Archive member included because of file (symbol)

c:/users/trent smith/desktop/sjsu_dev/yagarto/bin/../lib/gcc/arm-none-eabi/4.6.2/../../../../arm-none-eabi/lib/thumb/v7m\libstdc++.a(guard.o)
                              ./L5_Application/source/highLevelInitialize.o (__cxa_guard_acquire)
c:/users/trent smith/desktop/sjsu_dev/yagarto/bin/../lib/gcc/arm-none-eabi/4.6.2/../../../../arm-none-eabi/lib/thumb/v7m\libstdc++.a(guard_error.o)
                              c:/users/trent smith/desktop/sjsu_dev/yagarto/bin/../lib/gcc/arm-none-eabi/4.6.2/../../../../arm-none-eabi/lib/thumb/v7m\libstdc++.a(guard.o) (typeinfo for __gnu_cxx::recursive_init_error)
c:/users/trent smith/desktop/sjsu_dev/yagarto/bin/../lib/gcc/arm-none-eabi/4.6.2/../../../../arm-none-eabi/lib/thumb/v7m\libstdc++.a(pure.o)
                              ./L5_Application/source/handlers.o (__cxa_pure_virtual)
c:/users/trent smith/desktop/sjsu_dev/yagarto/bin/../lib/gcc/arm-none-eabi/4.6.2/../../../../arm-none-eabi/lib/thumb/v7m\libstdc++.a(si_class_type_info.o)
                              c:/users/trent smith/desktop/sjsu_dev/yagarto/bin/../lib/gcc/arm-none-eabi/4.6.2/../../../../arm-none-eabi/lib/thumb/v7m\libstdc++.a(guard_error.o) (vtable for __cxxabiv1::__si_class_type_info)
c:/users/trent smith/desktop/sjsu_dev/yagarto/bin/../lib/gcc/arm-none-eabi/4.6.2/../../../../arm-none-eabi/lib/thumb/v7m\libstdc++.a(tinfo.o)
                              c:/users/trent smith/desktop/sjsu_dev/yagarto/bin/../lib/gcc/arm-none-eabi/4.6.2/../../../../arm-none-eabi/lib/thumb/v7m\libstdc++.a(si_class_type_info.o) (std::type_info::__is_pointer_p() const)
c:/users/trent smith/desktop/sjsu_dev/yagarto/bin/../lib/gcc/arm-none-eabi/4.6.2/../../../../arm-none-eabi/lib/thumb/v7m\libstdc++.a(class_type_info.o)
                              c:/users/trent smith/desktop/sjsu_dev/yagarto/bin/../lib/gcc/arm-none-eabi/4.6.2/../../../../arm-none-eabi/lib/thumb/v7m\libstdc++.a(si_class_type_info.o) (__cxxabiv1::__class_type_info::__do_upcast(__cxxabiv1::__class_type_info const*, void**) const)
c:/users/trent smith/desktop/sjsu_dev/yagarto/bin/../lib/gcc/arm-none-eabi/4.6.2/../../../../arm-none-eabi/lib/thumb/v7m\libstdc++.a(eh_alloc.o)
                              c:/users/trent smith/desktop/sjsu_dev/yagarto/bin/../lib/gcc/arm-none-eabi/4.6.2/../../../../arm-none-eabi/lib/thumb/v7m\libstdc++.a(guard.o) (__cxa_allocate_exception)
c:/users/trent smith/desktop/sjsu_dev/yagarto/bin/../lib/gcc/arm-none-eabi/4.6.2/../../../../arm-none-eabi/lib/thumb/v7m\libstdc++.a(eh_exception.o)
                              c:/users/trent smith/desktop/sjsu_dev/yagarto/bin/../lib/gcc/arm-none-eabi/4.6.2/../../../../arm-none-eabi/lib/thumb/v7m\libstdc++.a(guard_error.o) (std::exception::~exception())
c:/users/trent smith/desktop/sjsu_dev/yagarto/bin/../lib/gcc/arm-none-eabi/4.6.2/../../../../arm-none-eabi/lib/thumb/v7m\libstdc++.a(eh_globals.o)
                              c:/users/trent smith/desktop/sjsu_dev/yagarto/bin/../lib/gcc/arm-none-eabi/4.6.2/../../../../arm-none-eabi/lib/thumb/v7m\libstdc++.a(eh_alloc.o) (__cxa_get_globals)
c:/users/trent smith/desktop/sjsu_dev/yagarto/bin/../lib/gcc/arm-none-eabi/4.6.2/../../../../arm-none-eabi/lib/thumb/v7m\libstdc++.a(eh_terminate.o)
                              c:/users/trent smith/desktop/sjsu_dev/yagarto/bin/../lib/gcc/arm-none-eabi/4.6.2/../../../../arm-none-eabi/lib/thumb/v7m\libstdc++.a(pure.o) (std::terminate())
c:/users/trent smith/desktop/sjsu_dev/yagarto/bin/../lib/gcc/arm-none-eabi/4.6.2/../../../../arm-none-eabi/lib/thumb/v7m\libstdc++.a(eh_term_handler.o)
                              c:/users/trent smith/desktop/sjsu_dev/yagarto/bin/../lib/gcc/arm-none-eabi/4.6.2/../../../../arm-none-eabi/lib/thumb/v7m\libstdc++.a(eh_terminate.o) (__cxxabiv1::__terminate_handler)
c:/users/trent smith/desktop/sjsu_dev/yagarto/bin/../lib/gcc/arm-none-eabi/4.6.2/../../../../arm-none-eabi/lib/thumb/v7m\libstdc++.a(eh_throw.o)
                              c:/users/trent smith/desktop/sjsu_dev/yagarto/bin/../lib/gcc/arm-none-eabi/4.6.2/../../../../arm-none-eabi/lib/thumb/v7m\libstdc++.a(guard.o) (__cxa_throw)
c:/users/trent smith/desktop/sjsu_dev/yagarto/bin/../lib/gcc/arm-none-eabi/4.6.2/../../../../arm-none-eabi/lib/thumb/v7m\libstdc++.a(eh_unex_handler.o)
                              c:/users/trent smith/desktop/sjsu_dev/yagarto/bin/../lib/gcc/arm-none-eabi/4.6.2/../../../../arm-none-eabi/lib/thumb/v7m\libstdc++.a(eh_terminate.o) (__cxxabiv1::__unexpected_handler)
c:/users/trent smith/desktop/sjsu_dev/yagarto/bin/../lib/gcc/arm-none-eabi/4.6.2/../../../../arm-none-eabi/lib/thumb/v7m\libstdc++.a(eh_arm.o)
                              c:/users/trent smith/desktop/sjsu_dev/yagarto/bin/../lib/gcc/arm-none-eabi/4.6.2/../../../../arm-none-eabi/lib/thumb/v7m\libstdc++.a(eh_terminate.o) (__cxa_end_cleanup)
c:/users/trent smith/desktop/sjsu_dev/yagarto/bin/../lib/gcc/arm-none-eabi/4.6.2/../../../../arm-none-eabi/lib/thumb/v7m\libstdc++.a(eh_aux_runtime.o)
                              c:/users/trent smith/desktop/sjsu_dev/yagarto/bin/../lib/gcc/arm-none-eabi/4.6.2/../../../../arm-none-eabi/lib/thumb/v7m\libstdc++.a(eh_arm.o) (__cxa_bad_typeid)
c:/users/trent smith/desktop/sjsu_dev/yagarto/bin/../lib/gcc/arm-none-eabi/4.6.2/../../../../arm-none-eabi/lib/thumb/v7m\libstdc++.a(eh_call.o)
                              c:/users/trent smith/desktop/sjsu_dev/yagarto/bin/../lib/gcc/arm-none-eabi/4.6.2/../../../../arm-none-eabi/lib/thumb/v7m\libstdc++.a(eh_terminate.o) (__cxa_call_unexpected)
c:/users/trent smith/desktop/sjsu_dev/yagarto/bin/../lib/gcc/arm-none-eabi/4.6.2/../../../../arm-none-eabi/lib/thumb/v7m\libstdc++.a(eh_catch.o)
                              c:/users/trent smith/desktop/sjsu_dev/yagarto/bin/../lib/gcc/arm-none-eabi/4.6.2/../../../../arm-none-eabi/lib/thumb/v7m\libstdc++.a(eh_terminate.o) (__cxa_begin_catch)
c:/users/trent smith/desktop/sjsu_dev/yagarto/bin/../lib/gcc/arm-none-eabi/4.6.2/../../../../arm-none-eabi/lib/thumb/v7m\libstdc++.a(eh_personality.o)
                              c:/users/trent smith/desktop/sjsu_dev/yagarto/bin/../lib/gcc/arm-none-eabi/4.6.2/../../../../arm-none-eabi/lib/thumb/v7m\libstdc++.a(eh_terminate.o) (__gxx_personality_v0)
c:/users/trent smith/desktop/sjsu_dev/yagarto/bin/../lib/gcc/arm-none-eabi/4.6.2/../../../../arm-none-eabi/lib/thumb/v7m\libstdc++.a(fundamental_type_info.o)
                              c:/users/trent smith/desktop/sjsu_dev/yagarto/bin/../lib/gcc/arm-none-eabi/4.6.2/../../../../arm-none-eabi/lib/thumb/v7m\libstdc++.a(eh_arm.o) (typeinfo for void)
c:/users/trent smith/desktop/sjsu_dev/yagarto/bin/../lib/gcc/arm-none-eabi/4.6.2/../../../../arm-none-eabi/lib/thumb/v7m\libstdc++.a(pointer_type_info.o)
                              c:/users/trent smith/desktop/sjsu_dev/yagarto/bin/../lib/gcc/arm-none-eabi/4.6.2/../../../../arm-none-eabi/lib/thumb/v7m\libstdc++.a(fundamental_type_info.o) (vtable for __cxxabiv1::__pointer_type_info)
c:/users/trent smith/desktop/sjsu_dev/yagarto/bin/../lib/gcc/arm-none-eabi/4.6.2/../../../../arm-none-eabi/lib/thumb/v7m\libstdc++.a(bad_cast.o)
                              c:/users/trent smith/desktop/sjsu_dev/yagarto/bin/../lib/gcc/arm-none-eabi/4.6.2/../../../../arm-none-eabi/lib/thumb/v7m\libstdc++.a(eh_aux_runtime.o) (typeinfo for std::bad_cast)
c:/users/trent smith/desktop/sjsu_dev/yagarto/bin/../lib/gcc/arm-none-eabi/4.6.2/../../../../arm-none-eabi/lib/thumb/v7m\libstdc++.a(bad_typeid.o)
                              c:/users/trent smith/desktop/sjsu_dev/yagarto/bin/../lib/gcc/arm-none-eabi/4.6.2/../../../../arm-none-eabi/lib/thumb/v7m\libstdc++.a(eh_aux_runtime.o) (typeinfo for std::bad_typeid)
c:/users/trent smith/desktop/sjsu_dev/yagarto/bin/../lib/gcc/arm-none-eabi/4.6.2/../../../../arm-none-eabi/lib/thumb/v7m\libstdc++.a(pbase_type_info.o)
                              c:/users/trent smith/desktop/sjsu_dev/yagarto/bin/../lib/gcc/arm-none-eabi/4.6.2/../../../../arm-none-eabi/lib/thumb/v7m\libstdc++.a(pointer_type_info.o) (__cxxabiv1::__pbase_type_info::~__pbase_type_info())
c:/users/trent smith/desktop/sjsu_dev/yagarto/bin/../lib/gcc/arm-none-eabi/4.6.2/thumb/v7m\libgcc.a(_arm_addsubdf3.o)
                              ./L2_Drivers/src/uart_base.o (__aeabi_dadd)
c:/users/trent smith/desktop/sjsu_dev/yagarto/bin/../lib/gcc/arm-none-eabi/4.6.2/thumb/v7m\libgcc.a(_arm_fixdfsi.o)
                              ./L0_LowLevel/source/io_functions.o (__aeabi_d2iz)
c:/users/trent smith/desktop/sjsu_dev/yagarto/bin/../lib/gcc/arm-none-eabi/4.6.2/thumb/v7m\libgcc.a(_arm_fixunsdfsi.o)
                              ./L2_Drivers/src/uart_base.o (__aeabi_d2uiz)
c:/users/trent smith/desktop/sjsu_dev/yagarto/bin/../lib/gcc/arm-none-eabi/4.6.2/thumb/v7m\libgcc.a(_arm_addsubsf3.o)
                              ./L4_IO/src/io_source.o (__aeabi_fsub)
c:/users/trent smith/desktop/sjsu_dev/yagarto/bin/../lib/gcc/arm-none-eabi/4.6.2/thumb/v7m\libgcc.a(_arm_muldivsf3.o)
                              ./L4_IO/src/io_source.o (__aeabi_fmul)
c:/users/trent smith/desktop/sjsu_dev/yagarto/bin/../lib/gcc/arm-none-eabi/4.6.2/thumb/v7m\libgcc.a(_arm_fixsfsi.o)
                              ./L4_IO/src/io_source.o (__aeabi_f2iz)
c:/users/trent smith/desktop/sjsu_dev/yagarto/bin/../lib/gcc/arm-none-eabi/4.6.2/thumb/v7m\libgcc.a(_arm_fixunssfsi.o)
                              ./L5_Application/source/tasks.o (__aeabi_f2uiz)
c:/users/trent smith/desktop/sjsu_dev/yagarto/bin/../lib/gcc/arm-none-eabi/4.6.2/thumb/v7m\libgcc.a(unwind-arm.o)
                              c:/users/trent smith/desktop/sjsu_dev/yagarto/bin/../lib/gcc/arm-none-eabi/4.6.2/../../../../arm-none-eabi/lib/thumb/v7m\libstdc++.a(si_class_type_info.o) (__aeabi_unwind_cpp_pr0)
c:/users/trent smith/desktop/sjsu_dev/yagarto/bin/../lib/gcc/arm-none-eabi/4.6.2/thumb/v7m\libgcc.a(libunwind.o)
                              c:/users/trent smith/desktop/sjsu_dev/yagarto/bin/../lib/gcc/arm-none-eabi/4.6.2/thumb/v7m\libgcc.a(unwind-arm.o) (restore_core_regs)
c:/users/trent smith/desktop/sjsu_dev/yagarto/bin/../lib/gcc/arm-none-eabi/4.6.2/thumb/v7m\libgcc.a(pr-support.o)
                              c:/users/trent smith/desktop/sjsu_dev/yagarto/bin/../lib/gcc/arm-none-eabi/4.6.2/thumb/v7m\libgcc.a(unwind-arm.o) (__gnu_unwind_execute)
c:/users/trent smith/desktop/sjsu_dev/yagarto/bin/../lib/gcc/arm-none-eabi/4.6.2/../../../../arm-none-eabi/lib/thumb/v7m\libc.a(lib_a-abort.o)
                              c:/users/trent smith/desktop/sjsu_dev/yagarto/bin/../lib/gcc/arm-none-eabi/4.6.2/../../../../arm-none-eabi/lib/thumb/v7m\libstdc++.a(eh_terminate.o) (abort)
c:/users/trent smith/desktop/sjsu_dev/yagarto/bin/../lib/gcc/arm-none-eabi/4.6.2/../../../../arm-none-eabi/lib/thumb/v7m\libc.a(lib_a-atoi.o)
                              ./L3_Utils/src/str.o (atoi)
c:/users/trent smith/desktop/sjsu_dev/yagarto/bin/../lib/gcc/arm-none-eabi/4.6.2/../../../../arm-none-eabi/lib/thumb/v7m\libc.a(lib_a-impure.o)
                              ./L5_Application/source/handlers.o (_impure_ptr)
c:/users/trent smith/desktop/sjsu_dev/yagarto/bin/../lib/gcc/arm-none-eabi/4.6.2/../../../../arm-none-eabi/lib/thumb/v7m\libc.a(lib_a-init.o)
                              ./L0_LowLevel/source/cr_startup_lpc175x.o (__libc_init_array)
c:/users/trent smith/desktop/sjsu_dev/yagarto/bin/../lib/gcc/arm-none-eabi/4.6.2/../../../../arm-none-eabi/lib/thumb/v7m\libc.a(lib_a-isalnum.o)
                              ./L3_Utils/src/str.o (isalnum)
c:/users/trent smith/desktop/sjsu_dev/yagarto/bin/../lib/gcc/arm-none-eabi/4.6.2/../../../../arm-none-eabi/lib/thumb/v7m\libc.a(lib_a-isalpha.o)
                              ./L3_Utils/src/str.o (isalpha)
c:/users/trent smith/desktop/sjsu_dev/yagarto/bin/../lib/gcc/arm-none-eabi/4.6.2/../../../../arm-none-eabi/lib/thumb/v7m\libc.a(lib_a-malloc.o)
                              ./L3_Utils/src/str.o (malloc)
c:/users/trent smith/desktop/sjsu_dev/yagarto/bin/../lib/gcc/arm-none-eabi/4.6.2/../../../../arm-none-eabi/lib/thumb/v7m\libc.a(lib_a-mallocr.o)
                              c:/users/trent smith/desktop/sjsu_dev/yagarto/bin/../lib/gcc/arm-none-eabi/4.6.2/../../../../arm-none-eabi/lib/thumb/v7m\libc.a(lib_a-malloc.o) (_malloc_r)
c:/users/trent smith/desktop/sjsu_dev/yagarto/bin/../lib/gcc/arm-none-eabi/4.6.2/../../../../arm-none-eabi/lib/thumb/v7m\libc.a(lib_a-memcmp.o)
                              ./L1_FreeRTOS/src/tasks.o (memcmp)
c:/users/trent smith/desktop/sjsu_dev/yagarto/bin/../lib/gcc/arm-none-eabi/4.6.2/../../../../arm-none-eabi/lib/thumb/v7m\libc.a(lib_a-memcpy.o)
                              ./L5_Application/source/handlers.o (memcpy)
c:/users/trent smith/desktop/sjsu_dev/yagarto/bin/../lib/gcc/arm-none-eabi/4.6.2/../../../../arm-none-eabi/lib/thumb/v7m\libc.a(lib_a-memmove.o)
                              ./L3_Utils/src/str.o (memmove)
c:/users/trent smith/desktop/sjsu_dev/yagarto/bin/../lib/gcc/arm-none-eabi/4.6.2/../../../../arm-none-eabi/lib/thumb/v7m\libc.a(lib_a-memset.o)
                              ./L5_Application/source/handlers.o (memset)
c:/users/trent smith/desktop/sjsu_dev/yagarto/bin/../lib/gcc/arm-none-eabi/4.6.2/../../../../arm-none-eabi/lib/thumb/v7m\libc.a(lib_a-mlock.o)
                              c:/users/trent smith/desktop/sjsu_dev/yagarto/bin/../lib/gcc/arm-none-eabi/4.6.2/../../../../arm-none-eabi/lib/thumb/v7m\libc.a(lib_a-mallocr.o) (__malloc_lock)
c:/users/trent smith/desktop/sjsu_dev/yagarto/bin/../lib/gcc/arm-none-eabi/4.6.2/../../../../arm-none-eabi/lib/thumb/v7m\libc.a(lib_a-mstats.o)
                              ./L0_LowLevel/source/memory.o (mallinfo)
c:/users/trent smith/desktop/sjsu_dev/yagarto/bin/../lib/gcc/arm-none-eabi/4.6.2/../../../../arm-none-eabi/lib/thumb/v7m\libc.a(lib_a-putchar.o)
                              ./L5_Application/source/handlers.o (putchar)
c:/users/trent smith/desktop/sjsu_dev/yagarto/bin/../lib/gcc/arm-none-eabi/4.6.2/../../../../arm-none-eabi/lib/thumb/v7m\libc.a(lib_a-puts.o)
                              ./L5_Application/source/handlers.o (puts)
c:/users/trent smith/desktop/sjsu_dev/yagarto/bin/../lib/gcc/arm-none-eabi/4.6.2/../../../../arm-none-eabi/lib/thumb/v7m\libc.a(lib_a-realloc.o)
                              ./L5_Application/source/tasks.o (realloc)
c:/users/trent smith/desktop/sjsu_dev/yagarto/bin/../lib/gcc/arm-none-eabi/4.6.2/../../../../arm-none-eabi/lib/thumb/v7m\libc.a(lib_a-reallocr.o)
                              c:/users/trent smith/desktop/sjsu_dev/yagarto/bin/../lib/gcc/arm-none-eabi/4.6.2/../../../../arm-none-eabi/lib/thumb/v7m\libc.a(lib_a-realloc.o) (_realloc_r)
c:/users/trent smith/desktop/sjsu_dev/yagarto/bin/../lib/gcc/arm-none-eabi/4.6.2/../../../../arm-none-eabi/lib/thumb/v7m\libc.a(lib_a-rget.o)
                              ./L5_Application/source/tasks.o (__srget_r)
c:/users/trent smith/desktop/sjsu_dev/yagarto/bin/../lib/gcc/arm-none-eabi/4.6.2/../../../../arm-none-eabi/lib/thumb/v7m\libc.a(lib_a-sbrkr.o)
                              c:/users/trent smith/desktop/sjsu_dev/yagarto/bin/../lib/gcc/arm-none-eabi/4.6.2/../../../../arm-none-eabi/lib/thumb/v7m\libc.a(lib_a-mallocr.o) (_sbrk_r)
c:/users/trent smith/desktop/sjsu_dev/yagarto/bin/../lib/gcc/arm-none-eabi/4.6.2/../../../../arm-none-eabi/lib/thumb/v7m\libc.a(lib_a-setvbuf.o)
                              ./L0_LowLevel/source/system_initialization.o (setvbuf)
c:/users/trent smith/desktop/sjsu_dev/yagarto/bin/../lib/gcc/arm-none-eabi/4.6.2/../../../../arm-none-eabi/lib/thumb/v7m\libc.a(lib_a-signal.o)
                              c:/users/trent smith/desktop/sjsu_dev/yagarto/bin/../lib/gcc/arm-none-eabi/4.6.2/../../../../arm-none-eabi/lib/thumb/v7m\libc.a(lib_a-abort.o) (raise)
c:/users/trent smith/desktop/sjsu_dev/yagarto/bin/../lib/gcc/arm-none-eabi/4.6.2/../../../../arm-none-eabi/lib/thumb/v7m\libc.a(lib_a-signalr.o)
                              c:/users/trent smith/desktop/sjsu_dev/yagarto/bin/../lib/gcc/arm-none-eabi/4.6.2/../../../../arm-none-eabi/lib/thumb/v7m\libc.a(lib_a-signal.o) (_kill_r)
c:/users/trent smith/desktop/sjsu_dev/yagarto/bin/../lib/gcc/arm-none-eabi/4.6.2/../../../../arm-none-eabi/lib/thumb/v7m\libc.a(lib_a-strcasecmp.o)
                              ./L3_Utils/src/str.o (strcasecmp)
c:/users/trent smith/desktop/sjsu_dev/yagarto/bin/../lib/gcc/arm-none-eabi/4.6.2/../../../../arm-none-eabi/lib/thumb/v7m\libc.a(lib_a-strcat.o)
                              ./L3_Utils/src/str.o (strcat)
c:/users/trent smith/desktop/sjsu_dev/yagarto/bin/../lib/gcc/arm-none-eabi/4.6.2/../../../../arm-none-eabi/lib/thumb/v7m\libc.a(lib_a-strchr.o)
                              ./L3_Utils/src/str.o (strchr)
c:/users/trent smith/desktop/sjsu_dev/yagarto/bin/../lib/gcc/arm-none-eabi/4.6.2/../../../../arm-none-eabi/lib/thumb/v7m\libc.a(lib_a-strcmp.o)
                              ./L3_Utils/src/str.o (strcmp)
c:/users/trent smith/desktop/sjsu_dev/yagarto/bin/../lib/gcc/arm-none-eabi/4.6.2/../../../../arm-none-eabi/lib/thumb/v7m\libc.a(lib_a-strcpy.o)
                              ./L3_Utils/src/str.o (strcpy)
c:/users/trent smith/desktop/sjsu_dev/yagarto/bin/../lib/gcc/arm-none-eabi/4.6.2/../../../../arm-none-eabi/lib/thumb/v7m\libc.a(lib_a-strlen.o)
                              ./L3_Utils/src/CommandHandler.o (strlen)
c:/users/trent smith/desktop/sjsu_dev/yagarto/bin/../lib/gcc/arm-none-eabi/4.6.2/../../../../arm-none-eabi/lib/thumb/v7m\libc.a(lib_a-strncasecmp.o)
                              ./L3_Utils/src/str.o (strncasecmp)
c:/users/trent smith/desktop/sjsu_dev/yagarto/bin/../lib/gcc/arm-none-eabi/4.6.2/../../../../arm-none-eabi/lib/thumb/v7m\libc.a(lib_a-strncmp.o)
                              ./L3_Utils/src/str.o (strncmp)
c:/users/trent smith/desktop/sjsu_dev/yagarto/bin/../lib/gcc/arm-none-eabi/4.6.2/../../../../arm-none-eabi/lib/thumb/v7m\libc.a(lib_a-strncpy.o)
                              ./L1_FreeRTOS/src/tasks.o (strncpy)
c:/users/trent smith/desktop/sjsu_dev/yagarto/bin/../lib/gcc/arm-none-eabi/4.6.2/../../../../arm-none-eabi/lib/thumb/v7m\libc.a(lib_a-strpbrk.o)
                              ./L3_Utils/src/str.o (strpbrk)
c:/users/trent smith/desktop/sjsu_dev/yagarto/bin/../lib/gcc/arm-none-eabi/4.6.2/../../../../arm-none-eabi/lib/thumb/v7m\libc.a(lib_a-strrchr.o)
                              ./L3_Utils/src/logger.o (strrchr)
c:/users/trent smith/desktop/sjsu_dev/yagarto/bin/../lib/gcc/arm-none-eabi/4.6.2/../../../../arm-none-eabi/lib/thumb/v7m\libc.a(lib_a-strstr.o)
                              ./L3_Utils/src/str.o (strstr)
c:/users/trent smith/desktop/sjsu_dev/yagarto/bin/../lib/gcc/arm-none-eabi/4.6.2/../../../../arm-none-eabi/lib/thumb/v7m\libc.a(lib_a-strtol.o)
                              c:/users/trent smith/desktop/sjsu_dev/yagarto/bin/../lib/gcc/arm-none-eabi/4.6.2/../../../../arm-none-eabi/lib/thumb/v7m\libc.a(lib_a-atoi.o) (_strtol_r)
c:/users/trent smith/desktop/sjsu_dev/yagarto/bin/../lib/gcc/arm-none-eabi/4.6.2/../../../../arm-none-eabi/lib/thumb/v7m\libc.a(lib_a-syswrite.o)
                              c:/users/trent smith/desktop/sjsu_dev/yagarto/bin/../lib/gcc/arm-none-eabi/4.6.2/../../../../arm-none-eabi/lib/thumb/v7m\libstdc++.a(pure.o) (write)
c:/users/trent smith/desktop/sjsu_dev/yagarto/bin/../lib/gcc/arm-none-eabi/4.6.2/../../../../arm-none-eabi/lib/thumb/v7m\libc.a(lib_a-tolower.o)
                              ./L3_Utils/src/str.o (tolower)
c:/users/trent smith/desktop/sjsu_dev/yagarto/bin/../lib/gcc/arm-none-eabi/4.6.2/../../../../arm-none-eabi/lib/thumb/v7m\libc.a(lib_a-toupper.o)
                              ./L3_Utils/src/str.o (toupper)
c:/users/trent smith/desktop/sjsu_dev/yagarto/bin/../lib/gcc/arm-none-eabi/4.6.2/../../../../arm-none-eabi/lib/thumb/v7m\libc.a(lib_a-vsniprintf.o)
                              ./L3_Utils/src/str.o (vsniprintf)
c:/users/trent smith/desktop/sjsu_dev/yagarto/bin/../lib/gcc/arm-none-eabi/4.6.2/../../../../arm-none-eabi/lib/thumb/v7m\libc.a(lib_a-wbuf.o)
                              ./L5_Application/source/handlers.o (__swbuf_r)
c:/users/trent smith/desktop/sjsu_dev/yagarto/bin/../lib/gcc/arm-none-eabi/4.6.2/../../../../arm-none-eabi/lib/thumb/v7m\libc.a(lib_a-writer.o)
                              c:/users/trent smith/desktop/sjsu_dev/yagarto/bin/../lib/gcc/arm-none-eabi/4.6.2/../../../../arm-none-eabi/lib/thumb/v7m\libc.a(lib_a-syswrite.o) (_write_r)
c:/users/trent smith/desktop/sjsu_dev/yagarto/bin/../lib/gcc/arm-none-eabi/4.6.2/../../../../arm-none-eabi/lib/thumb/v7m\libc.a(lib_a-wsetup.o)
                              c:/users/trent smith/desktop/sjsu_dev/yagarto/bin/../lib/gcc/arm-none-eabi/4.6.2/../../../../arm-none-eabi/lib/thumb/v7m\libc.a(lib_a-wbuf.o) (__swsetup_r)
c:/users/trent smith/desktop/sjsu_dev/yagarto/bin/../lib/gcc/arm-none-eabi/4.6.2/../../../../arm-none-eabi/lib/thumb/v7m\libc.a(lib_a-ctype_.o)
                              c:/users/trent smith/desktop/sjsu_dev/yagarto/bin/../lib/gcc/arm-none-eabi/4.6.2/../../../../arm-none-eabi/lib/thumb/v7m\libc.a(lib_a-isalnum.o) (__ctype_ptr__)
c:/users/trent smith/desktop/sjsu_dev/yagarto/bin/../lib/gcc/arm-none-eabi/4.6.2/../../../../arm-none-eabi/lib/thumb/v7m\libc.a(lib_a-fflush.o)
                              c:/users/trent smith/desktop/sjsu_dev/yagarto/bin/../lib/gcc/arm-none-eabi/4.6.2/../../../../arm-none-eabi/lib/thumb/v7m\libc.a(lib_a-setvbuf.o) (_fflush_r)
c:/users/trent smith/desktop/sjsu_dev/yagarto/bin/../lib/gcc/arm-none-eabi/4.6.2/../../../../arm-none-eabi/lib/thumb/v7m\libc.a(lib_a-findfp.o)
                              c:/users/trent smith/desktop/sjsu_dev/yagarto/bin/../lib/gcc/arm-none-eabi/4.6.2/../../../../arm-none-eabi/lib/thumb/v7m\libc.a(lib_a-setvbuf.o) (_cleanup_r)
c:/users/trent smith/desktop/sjsu_dev/yagarto/bin/../lib/gcc/arm-none-eabi/4.6.2/../../../../arm-none-eabi/lib/thumb/v7m\libc.a(lib_a-fiprintf.o)
                              c:/users/trent smith/desktop/sjsu_dev/yagarto/bin/../lib/gcc/arm-none-eabi/4.6.2/../../../../arm-none-eabi/lib/thumb/v7m\libc.a(lib_a-mstats.o) (fiprintf)
c:/users/trent smith/desktop/sjsu_dev/yagarto/bin/../lib/gcc/arm-none-eabi/4.6.2/../../../../arm-none-eabi/lib/thumb/v7m\libc.a(lib_a-freer.o)
                              c:/users/trent smith/desktop/sjsu_dev/yagarto/bin/../lib/gcc/arm-none-eabi/4.6.2/../../../../arm-none-eabi/lib/thumb/v7m\libc.a(lib_a-malloc.o) (_free_r)
c:/users/trent smith/desktop/sjsu_dev/yagarto/bin/../lib/gcc/arm-none-eabi/4.6.2/../../../../arm-none-eabi/lib/thumb/v7m\libc.a(lib_a-fvwrite.o)
                              c:/users/trent smith/desktop/sjsu_dev/yagarto/bin/../lib/gcc/arm-none-eabi/4.6.2/../../../../arm-none-eabi/lib/thumb/v7m\libc.a(lib_a-puts.o) (__sfvwrite_r)
c:/users/trent smith/desktop/sjsu_dev/yagarto/bin/../lib/gcc/arm-none-eabi/4.6.2/../../../../arm-none-eabi/lib/thumb/v7m\libc.a(lib_a-fwalk.o)
                              c:/users/trent smith/desktop/sjsu_dev/yagarto/bin/../lib/gcc/arm-none-eabi/4.6.2/../../../../arm-none-eabi/lib/thumb/v7m\libc.a(lib_a-findfp.o) (_fwalk)
c:/users/trent smith/desktop/sjsu_dev/yagarto/bin/../lib/gcc/arm-none-eabi/4.6.2/../../../../arm-none-eabi/lib/thumb/v7m\libc.a(lib_a-makebuf.o)
                              c:/users/trent smith/desktop/sjsu_dev/yagarto/bin/../lib/gcc/arm-none-eabi/4.6.2/../../../../arm-none-eabi/lib/thumb/v7m\libc.a(lib_a-wsetup.o) (__smakebuf_r)
c:/users/trent smith/desktop/sjsu_dev/yagarto/bin/../lib/gcc/arm-none-eabi/4.6.2/../../../../arm-none-eabi/lib/thumb/v7m\libc.a(lib_a-mallinfor.o)
                              c:/users/trent smith/desktop/sjsu_dev/yagarto/bin/../lib/gcc/arm-none-eabi/4.6.2/../../../../arm-none-eabi/lib/thumb/v7m\libc.a(lib_a-mstats.o) (_mallinfo_r)
c:/users/trent smith/desktop/sjsu_dev/yagarto/bin/../lib/gcc/arm-none-eabi/4.6.2/../../../../arm-none-eabi/lib/thumb/v7m\libc.a(lib_a-malloptr.o)
                              c:/users/trent smith/desktop/sjsu_dev/yagarto/bin/../lib/gcc/arm-none-eabi/4.6.2/../../../../arm-none-eabi/lib/thumb/v7m\libc.a(lib_a-mstats.o) (_mallopt_r)
c:/users/trent smith/desktop/sjsu_dev/yagarto/bin/../lib/gcc/arm-none-eabi/4.6.2/../../../../arm-none-eabi/lib/thumb/v7m\libc.a(lib_a-mallstatsr.o)
                              c:/users/trent smith/desktop/sjsu_dev/yagarto/bin/../lib/gcc/arm-none-eabi/4.6.2/../../../../arm-none-eabi/lib/thumb/v7m\libc.a(lib_a-mstats.o) (_malloc_stats_r)
c:/users/trent smith/desktop/sjsu_dev/yagarto/bin/../lib/gcc/arm-none-eabi/4.6.2/../../../../arm-none-eabi/lib/thumb/v7m\libc.a(lib_a-memchr.o)
                              c:/users/trent smith/desktop/sjsu_dev/yagarto/bin/../lib/gcc/arm-none-eabi/4.6.2/../../../../arm-none-eabi/lib/thumb/v7m\libc.a(lib_a-strstr.o) (memchr)
c:/users/trent smith/desktop/sjsu_dev/yagarto/bin/../lib/gcc/arm-none-eabi/4.6.2/../../../../arm-none-eabi/lib/thumb/v7m\libc.a(lib_a-putc.o)
                              c:/users/trent smith/desktop/sjsu_dev/yagarto/bin/../lib/gcc/arm-none-eabi/4.6.2/../../../../arm-none-eabi/lib/thumb/v7m\libc.a(lib_a-putchar.o) (_putc_r)
c:/users/trent smith/desktop/sjsu_dev/yagarto/bin/../lib/gcc/arm-none-eabi/4.6.2/../../../../arm-none-eabi/lib/thumb/v7m\libc.a(lib_a-reent.o)
                              c:/users/trent smith/desktop/sjsu_dev/yagarto/bin/../lib/gcc/arm-none-eabi/4.6.2/../../../../arm-none-eabi/lib/thumb/v7m\libc.a(lib_a-sbrkr.o) (errno)
c:/users/trent smith/desktop/sjsu_dev/yagarto/bin/../lib/gcc/arm-none-eabi/4.6.2/../../../../arm-none-eabi/lib/thumb/v7m\libc.a(lib_a-refill.o)
                              c:/users/trent smith/desktop/sjsu_dev/yagarto/bin/../lib/gcc/arm-none-eabi/4.6.2/../../../../arm-none-eabi/lib/thumb/v7m\libc.a(lib_a-rget.o) (__srefill_r)
c:/users/trent smith/desktop/sjsu_dev/yagarto/bin/../lib/gcc/arm-none-eabi/4.6.2/../../../../arm-none-eabi/lib/thumb/v7m\libc.a(lib_a-stdio.o)
                              c:/users/trent smith/desktop/sjsu_dev/yagarto/bin/../lib/gcc/arm-none-eabi/4.6.2/../../../../arm-none-eabi/lib/thumb/v7m\libc.a(lib_a-findfp.o) (__sread)
c:/users/trent smith/desktop/sjsu_dev/yagarto/bin/../lib/gcc/arm-none-eabi/4.6.2/../../../../arm-none-eabi/lib/thumb/v7m\libc.a(lib_a-svfiprintf.o)
                              c:/users/trent smith/desktop/sjsu_dev/yagarto/bin/../lib/gcc/arm-none-eabi/4.6.2/../../../../arm-none-eabi/lib/thumb/v7m\libc.a(lib_a-vsniprintf.o) (_svfiprintf_r)
c:/users/trent smith/desktop/sjsu_dev/yagarto/bin/../lib/gcc/arm-none-eabi/4.6.2/../../../../arm-none-eabi/lib/thumb/v7m\libc.a(lib_a-vfiprintf.o)
                              c:/users/trent smith/desktop/sjsu_dev/yagarto/bin/../lib/gcc/arm-none-eabi/4.6.2/../../../../arm-none-eabi/lib/thumb/v7m\libc.a(lib_a-fiprintf.o) (_vfiprintf_r)
c:/users/trent smith/desktop/sjsu_dev/yagarto/bin/../lib/gcc/arm-none-eabi/4.6.2/../../../../arm-none-eabi/lib/thumb/v7m\libc.a(lib_a-closer.o)
                              c:/users/trent smith/desktop/sjsu_dev/yagarto/bin/../lib/gcc/arm-none-eabi/4.6.2/../../../../arm-none-eabi/lib/thumb/v7m\libc.a(lib_a-stdio.o) (_close_r)
c:/users/trent smith/desktop/sjsu_dev/yagarto/bin/../lib/gcc/arm-none-eabi/4.6.2/../../../../arm-none-eabi/lib/thumb/v7m\libc.a(lib_a-fclose.o)
                              c:/users/trent smith/desktop/sjsu_dev/yagarto/bin/../lib/gcc/arm-none-eabi/4.6.2/../../../../arm-none-eabi/lib/thumb/v7m\libc.a(lib_a-findfp.o) (fclose)
c:/users/trent smith/desktop/sjsu_dev/yagarto/bin/../lib/gcc/arm-none-eabi/4.6.2/../../../../arm-none-eabi/lib/thumb/v7m\libc.a(lib_a-fputwc.o)
                              c:/users/trent smith/desktop/sjsu_dev/yagarto/bin/../lib/gcc/arm-none-eabi/4.6.2/../../../../arm-none-eabi/lib/thumb/v7m\libc.a(lib_a-vfiprintf.o) (_fputwc_r)
c:/users/trent smith/desktop/sjsu_dev/yagarto/bin/../lib/gcc/arm-none-eabi/4.6.2/../../../../arm-none-eabi/lib/thumb/v7m\libc.a(lib_a-fstatr.o)
                              c:/users/trent smith/desktop/sjsu_dev/yagarto/bin/../lib/gcc/arm-none-eabi/4.6.2/../../../../arm-none-eabi/lib/thumb/v7m\libc.a(lib_a-makebuf.o) (_fstat_r)
c:/users/trent smith/desktop/sjsu_dev/yagarto/bin/../lib/gcc/arm-none-eabi/4.6.2/../../../../arm-none-eabi/lib/thumb/v7m\libc.a(lib_a-isattyr.o)
                              c:/users/trent smith/desktop/sjsu_dev/yagarto/bin/../lib/gcc/arm-none-eabi/4.6.2/../../../../arm-none-eabi/lib/thumb/v7m\libc.a(lib_a-makebuf.o) (_isatty_r)
c:/users/trent smith/desktop/sjsu_dev/yagarto/bin/../lib/gcc/arm-none-eabi/4.6.2/../../../../arm-none-eabi/lib/thumb/v7m\libc.a(lib_a-locale.o)
                              c:/users/trent smith/desktop/sjsu_dev/yagarto/bin/../lib/gcc/arm-none-eabi/4.6.2/../../../../arm-none-eabi/lib/thumb/v7m\libc.a(lib_a-fputwc.o) (__locale_mb_cur_max)
c:/users/trent smith/desktop/sjsu_dev/yagarto/bin/../lib/gcc/arm-none-eabi/4.6.2/../../../../arm-none-eabi/lib/thumb/v7m\libc.a(lib_a-lseekr.o)
                              c:/users/trent smith/desktop/sjsu_dev/yagarto/bin/../lib/gcc/arm-none-eabi/4.6.2/../../../../arm-none-eabi/lib/thumb/v7m\libc.a(lib_a-stdio.o) (_lseek_r)
c:/users/trent smith/desktop/sjsu_dev/yagarto/bin/../lib/gcc/arm-none-eabi/4.6.2/../../../../arm-none-eabi/lib/thumb/v7m\libc.a(lib_a-readr.o)
                              c:/users/trent smith/desktop/sjsu_dev/yagarto/bin/../lib/gcc/arm-none-eabi/4.6.2/../../../../arm-none-eabi/lib/thumb/v7m\libc.a(lib_a-stdio.o) (_read_r)
c:/users/trent smith/desktop/sjsu_dev/yagarto/bin/../lib/gcc/arm-none-eabi/4.6.2/../../../../arm-none-eabi/lib/thumb/v7m\libc.a(lib_a-wcrtomb.o)
                              c:/users/trent smith/desktop/sjsu_dev/yagarto/bin/../lib/gcc/arm-none-eabi/4.6.2/../../../../arm-none-eabi/lib/thumb/v7m\libc.a(lib_a-fputwc.o) (_wcrtomb_r)
c:/users/trent smith/desktop/sjsu_dev/yagarto/bin/../lib/gcc/arm-none-eabi/4.6.2/../../../../arm-none-eabi/lib/thumb/v7m\libc.a(lib_a-wctomb_r.o)
                              c:/users/trent smith/desktop/sjsu_dev/yagarto/bin/../lib/gcc/arm-none-eabi/4.6.2/../../../../arm-none-eabi/lib/thumb/v7m\libc.a(lib_a-wcrtomb.o) (__wctomb)
c:/users/trent smith/desktop/sjsu_dev/yagarto/bin/../lib/gcc/arm-none-eabi/4.6.2/thumb/v7m\libgcc.a(_udivsi3.o)
                              c:/users/trent smith/desktop/sjsu_dev/yagarto/bin/../lib/gcc/arm-none-eabi/4.6.2/../../../../arm-none-eabi/lib/thumb/v7m\libc.a(lib_a-strtol.o) (__aeabi_uidiv)
c:/users/trent smith/desktop/sjsu_dev/yagarto/bin/../lib/gcc/arm-none-eabi/4.6.2/thumb/v7m\libgcc.a(_dvmd_tls.o)
                              c:/users/trent smith/desktop/sjsu_dev/yagarto/bin/../lib/gcc/arm-none-eabi/4.6.2/thumb/v7m\libgcc.a(_udivsi3.o) (__aeabi_idiv0)

Allocating common symbols
Common symbol       size              file

SD_TIMER1_100HZ     0x1               ./L4_IO/fat/disk/sd.o
CardType            0x1               ./L4_IO/fat/disk/sd.o
errno               0x4               c:/users/trent smith/desktop/sjsu_dev/yagarto/bin/../lib/gcc/arm-none-eabi/4.6.2/../../../../arm-none-eabi/lib/thumb/v7m\libc.a(lib_a-reent.o)
xQueueRegistry      0x50              ./L1_FreeRTOS/src/queue.o
SD_TIMER2_100HZ     0x1               ./L4_IO/fat/disk/sd.o

Discarded input sections

 .group         0x00000000        0xc ./L5_Application/source/handlers.o
 .group         0x00000000        0xc ./L5_Application/source/handlers.o
 .group         0x00000000        0x8 ./L5_Application/source/handlers.o
 .group         0x00000000        0x8 ./L5_Application/source/handlers.o
 .group         0x00000000        0x8 ./L5_Application/source/handlers.o
 .group         0x00000000        0xc ./L5_Application/source/handlers.o
 .group         0x00000000        0x8 ./L5_Application/source/handlers.o
 .group         0x00000000        0x8 ./L5_Application/source/handlers.o
 .group         0x00000000        0x8 ./L5_Application/source/handlers.o
 .group         0x00000000        0x8 ./L5_Application/source/handlers.o
 .group         0x00000000        0x8 ./L5_Application/source/handlers.o
 .group         0x00000000        0x8 ./L5_Application/source/handlers.o
 .group         0x00000000        0x8 ./L5_Application/source/handlers.o
 .group         0x00000000        0x8 ./L5_Application/source/handlers.o
 .group         0x00000000        0x8 ./L5_Application/source/handlers.o
 .group         0x00000000        0x8 ./L5_Application/source/handlers.o
 .group         0x00000000        0xc ./L5_Application/source/highLevelInitialize.o
 .group         0x00000000        0x8 ./L5_Application/source/highLevelInitialize.o
 .group         0x00000000        0x8 ./L5_Application/source/highLevelInitialize.o
 .group         0x00000000        0x8 ./L5_Application/source/highLevelInitialize.o
 .group         0x00000000        0x8 ./L5_Application/source/highLevelInitialize.o
 .group         0x00000000        0x8 ./L5_Application/source/highLevelInitialize.o
 .group         0x00000000        0x8 ./L5_Application/source/highLevelInitialize.o
 .group         0x00000000        0x8 ./L5_Application/source/highLevelInitialize.o
 .group         0x00000000        0x8 ./L5_Application/source/highLevelInitialize.o
 .group         0x00000000        0x8 ./L5_Application/source/highLevelInitialize.o
 .group         0x00000000        0x8 ./L5_Application/source/highLevelInitialize.o
 .group         0x00000000        0x8 ./L5_Application/source/highLevelInitialize.o
 .group         0x00000000        0x8 ./L5_Application/source/highLevelInitialize.o
 .group         0x00000000        0x8 ./L5_Application/source/highLevelInitialize.o
 .group         0x00000000        0x8 ./L5_Application/source/highLevelInitialize.o
 .group         0x00000000        0x8 ./L5_Application/source/highLevelInitialize.o
 .group         0x00000000        0x8 ./L5_Application/source/highLevelInitialize.o
 .group         0x00000000        0x8 ./L5_Application/source/highLevelInitialize.o
 .group         0x00000000        0x8 ./L5_Application/source/highLevelInitialize.o
 .group         0x00000000        0x8 ./L5_Application/source/highLevelInitialize.o
 .group         0x00000000        0x8 ./L5_Application/source/highLevelInitialize.o
 .group         0x00000000        0x8 ./L5_Application/source/highLevelInitialize.o
 .group         0x00000000        0x8 ./L5_Application/source/highLevelInitialize.o
 .text._ZN7Storage4copyEPKcS1_PjS2_S2_
                0x00000000       0xea ./L5_Application/source/highLevelInitialize.o
 .group         0x00000000        0xc ./L5_Application/source/tasks.o
 .group         0x00000000        0x8 ./L5_Application/source/tasks.o
 .group         0x00000000        0x8 ./L5_Application/source/tasks.o
 .group         0x00000000        0x8 ./L5_Application/source/tasks.o
 .group         0x00000000        0x8 ./L5_Application/source/tasks.o
 .group         0x00000000        0x8 ./L5_Application/source/tasks.o
 .group         0x00000000        0x8 ./L5_Application/source/tasks.o
 .group         0x00000000        0x8 ./L5_Application/source/tasks.o
 .group         0x00000000        0x8 ./L5_Application/source/tasks.o
 .group         0x00000000        0x8 ./L5_Application/source/tasks.o
 .group         0x00000000        0x8 ./L5_Application/source/tasks.o
 .group         0x00000000        0x8 ./L5_Application/source/tasks.o
 .group         0x00000000        0x8 ./L5_Application/source/tasks.o
 .group         0x00000000        0x8 ./L5_Application/source/tasks.o
 .group         0x00000000        0x8 ./L5_Application/source/tasks.o
 .group         0x00000000        0x8 ./L5_Application/source/tasks.o
 .group         0x00000000        0x8 ./L5_Application/source/tasks.o
 .group         0x00000000        0x8 ./L5_Application/source/tasks.o
 .group         0x00000000        0x8 ./L5_Application/source/tasks.o
 .group         0x00000000        0x8 ./L5_Application/source/tasks.o
 .text._ZN9IO_DeviceD2Ev
                0x00000000       0x18 ./L5_Application/source/tasks.o
 .text._ZN9IO_DeviceD0Ev
                0x00000000       0x12 ./L5_Application/source/tasks.o
 .text._ZN9IO_Device16getValueAsStringEv
                0x00000000       0x1c ./L5_Application/source/tasks.o
 .text._ZN9IO_DeviceC2Ev
                0x00000000       0x18 ./L5_Application/source/tasks.o
 .text._ZN17SingletonTemplateI11LED_DisplayE11getInstanceEv
                0x00000000       0x34 ./L5_Application/source/tasks.o
 .bss._ZN17SingletonTemplateI12Light_SensorE19mpSingletonInstanceE
                0x00000000        0x4 ./L5_Application/source/tasks.o
 .bss._ZN17SingletonTemplateI19Acceleration_SensorE19mpSingletonInstanceE
                0x00000000        0x4 ./L5_Application/source/tasks.o
 .bss._ZN17SingletonTemplateI4I2C2E19mpSingletonInstanceE
                0x00000000        0x4 ./L5_Application/source/tasks.o
 .rodata._ZTV9IO_Device
                0x00000000       0x18 ./L5_Application/source/tasks.o
 .bss._ZN17SingletonTemplateI17TemperatureSensorE19mpSingletonInstanceE
                0x00000000        0x4 ./L5_Application/source/tasks.o
 .bss._ZN17SingletonTemplateI8SwitchesE19mpSingletonInstanceE
                0x00000000        0x4 ./L5_Application/source/tasks.o
 .bss._ZN17SingletonTemplateI11LED_DisplayE19mpSingletonInstanceE
                0x00000000        0x4 ./L5_Application/source/tasks.o
 .bss._ZN17SingletonTemplateI9IR_SensorE19mpSingletonInstanceE
                0x00000000        0x4 ./L5_Application/source/tasks.o
 .bss._ZN17SingletonTemplateI3LEDE19mpSingletonInstanceE
                0x00000000        0x4 ./L5_Application/source/tasks.o
 .group         0x00000000        0x8 ./L5_Application/main.o
 .group         0x00000000        0xc ./L5_Application/main.o
 .group         0x00000000        0x8 ./L5_Application/main.o
 .group         0x00000000        0x8 ./L5_Application/main.o
 .group         0x00000000        0x8 ./L5_Application/main.o
 .group         0x00000000        0x8 ./L5_Application/main.o
 .group         0x00000000        0x8 ./L5_Application/main.o
 .group         0x00000000        0x8 ./L5_Application/main.o
 .group         0x00000000        0x8 ./L5_Application/main.o
 .group         0x00000000        0x8 ./L5_Application/main.o
 .group         0x00000000        0x8 ./L5_Application/main.o
 .group         0x00000000        0x8 ./L5_Application/main.o
 .group         0x00000000        0x8 ./L5_Application/main.o
 .group         0x00000000        0x8 ./L5_Application/main.o
 .group         0x00000000        0x8 ./L5_Application/main.o
 .group         0x00000000        0x8 ./L5_Application/main.o
 .group         0x00000000        0x8 ./L5_Application/main.o
 .text._ZN9IO_Device16getValueAsStringEv
                0x00000000       0x1c ./L5_Application/main.o
 .text._ZN9IO_DeviceD2Ev
                0x00000000       0x18 ./L5_Application/main.o
 .text._ZN9IO_DeviceD0Ev
                0x00000000       0x12 ./L5_Application/main.o
 .text._ZN9IO_DeviceC2Ev
                0x00000000       0x18 ./L5_Application/main.o
 .text._ZN15I2C_Device_BaseC2Eh
                0x00000000       0x28 ./L5_Application/main.o
 .text._ZN17SingletonTemplateI8SwitchesE11getInstanceEv
                0x00000000       0x28 ./L5_Application/main.o
 .text._ZN17SingletonTemplateI11LED_DisplayE11getInstanceEv
                0x00000000       0x34 ./L5_Application/main.o
 .text._ZN17SingletonTemplateI3LEDE11getInstanceEv
                0x00000000       0x28 ./L5_Application/main.o
 .bss._ZN17SingletonTemplateI17TemperatureSensorE19mpSingletonInstanceE
                0x00000000        0x4 ./L5_Application/main.o
 .rodata._ZTV9IO_Device
                0x00000000       0x18 ./L5_Application/main.o
 .bss._ZN17SingletonTemplateI4I2C2E19mpSingletonInstanceE
                0x00000000        0x4 ./L5_Application/main.o
 .bss._ZN17SingletonTemplateI3LEDE19mpSingletonInstanceE
                0x00000000        0x4 ./L5_Application/main.o
 .bss._ZN17SingletonTemplateI11LED_DisplayE19mpSingletonInstanceE
                0x00000000        0x4 ./L5_Application/main.o
 .bss._ZN17SingletonTemplateI8SwitchesE19mpSingletonInstanceE
                0x00000000        0x4 ./L5_Application/main.o
 .group         0x00000000        0xc ./L4_IO/src/io_source.o
 .group         0x00000000        0xc ./L4_IO/src/io_source.o
 .group         0x00000000        0xc ./L4_IO/src/io_source.o
 .group         0x00000000        0xc ./L4_IO/src/io_source.o
 .group         0x00000000        0xc ./L4_IO/src/io_source.o
 .group         0x00000000        0xc ./L4_IO/src/io_source.o
 .group         0x00000000        0xc ./L4_IO/src/io_source.o
 .group         0x00000000        0xc ./L4_IO/src/io_source.o
 .group         0x00000000        0xc ./L4_IO/src/io_source.o
 .group         0x00000000        0xc ./L4_IO/src/io_source.o
 .group         0x00000000        0x8 ./L4_IO/src/io_source.o
 .group         0x00000000        0x8 ./L4_IO/src/io_source.o
 .group         0x00000000        0x8 ./L4_IO/src/io_source.o
 .group         0x00000000        0x8 ./L4_IO/src/io_source.o
 .group         0x00000000        0x8 ./L4_IO/src/io_source.o
 .group         0x00000000        0x8 ./L4_IO/src/io_source.o
 .text._ZN9IO_DeviceD2Ev
                0x00000000       0x18 ./L4_IO/src/io_source.o
 .text._ZN9IO_DeviceD0Ev
                0x00000000       0x12 ./L4_IO/src/io_source.o
 .text._ZN9IO_Device16getValueAsStringEv
                0x00000000       0x1c ./L4_IO/src/io_source.o
 .text.adc0_initialize
                0x00000000       0x58 ./L4_IO/src/io_source.o
 .rodata._ZTV9IO_Device
                0x00000000       0x18 ./L4_IO/src/io_source.o
 .group         0x00000000        0x8 ./L4_IO/fat/disk/spi_flash.o
 .group         0x00000000        0x8 ./L4_IO/fat/disk/spi_flash.o
 .group         0x00000000        0x8 ./L3_Utils/src/CommandHandler.o
 .group         0x00000000        0x8 ./L2_Drivers/src/I2C2.o
 .bss._ZN17SingletonTemplateI4I2C2E19mpSingletonInstanceE
                0x00000000        0x4 ./L2_Drivers/src/I2C2.o
 .group         0x00000000        0x8 ./L2_Drivers/src/uart0.o
 .group         0x00000000        0x8 ./L2_Drivers/src/uart0.o
 .bss._ZN17SingletonTemplateI5UART0E19mpSingletonInstanceE
                0x00000000        0x4 ./L2_Drivers/src/uart0.o
 .group         0x00000000        0x8 c:/users/trent smith/desktop/sjsu_dev/yagarto/bin/../lib/gcc/arm-none-eabi/4.6.2/../../../../arm-none-eabi/lib/thumb/v7m\libstdc++.a(fundamental_type_info.o)
 .group         0x00000000        0x8 c:/users/trent smith/desktop/sjsu_dev/yagarto/bin/../lib/gcc/arm-none-eabi/4.6.2/../../../../arm-none-eabi/lib/thumb/v7m\libstdc++.a(fundamental_type_info.o)
 .group         0x00000000        0x8 c:/users/trent smith/desktop/sjsu_dev/yagarto/bin/../lib/gcc/arm-none-eabi/4.6.2/../../../../arm-none-eabi/lib/thumb/v7m\libstdc++.a(fundamental_type_info.o)
 .group         0x00000000        0x8 c:/users/trent smith/desktop/sjsu_dev/yagarto/bin/../lib/gcc/arm-none-eabi/4.6.2/../../../../arm-none-eabi/lib/thumb/v7m\libstdc++.a(fundamental_type_info.o)
 .group         0x00000000        0x8 c:/users/trent smith/desktop/sjsu_dev/yagarto/bin/../lib/gcc/arm-none-eabi/4.6.2/../../../../arm-none-eabi/lib/thumb/v7m\libstdc++.a(fundamental_type_info.o)
 .group         0x00000000        0x8 c:/users/trent smith/desktop/sjsu_dev/yagarto/bin/../lib/gcc/arm-none-eabi/4.6.2/../../../../arm-none-eabi/lib/thumb/v7m\libstdc++.a(fundamental_type_info.o)
 .group         0x00000000        0x8 c:/users/trent smith/desktop/sjsu_dev/yagarto/bin/../lib/gcc/arm-none-eabi/4.6.2/../../../../arm-none-eabi/lib/thumb/v7m\libstdc++.a(fundamental_type_info.o)
 .group         0x00000000        0x8 c:/users/trent smith/desktop/sjsu_dev/yagarto/bin/../lib/gcc/arm-none-eabi/4.6.2/../../../../arm-none-eabi/lib/thumb/v7m\libstdc++.a(fundamental_type_info.o)
 .group         0x00000000        0x8 c:/users/trent smith/desktop/sjsu_dev/yagarto/bin/../lib/gcc/arm-none-eabi/4.6.2/../../../../arm-none-eabi/lib/thumb/v7m\libstdc++.a(fundamental_type_info.o)
 .group         0x00000000        0x8 c:/users/trent smith/desktop/sjsu_dev/yagarto/bin/../lib/gcc/arm-none-eabi/4.6.2/../../../../arm-none-eabi/lib/thumb/v7m\libstdc++.a(fundamental_type_info.o)
 .group         0x00000000        0x8 c:/users/trent smith/desktop/sjsu_dev/yagarto/bin/../lib/gcc/arm-none-eabi/4.6.2/../../../../arm-none-eabi/lib/thumb/v7m\libstdc++.a(fundamental_type_info.o)
 .group         0x00000000        0x8 c:/users/trent smith/desktop/sjsu_dev/yagarto/bin/../lib/gcc/arm-none-eabi/4.6.2/../../../../arm-none-eabi/lib/thumb/v7m\libstdc++.a(fundamental_type_info.o)
 .group         0x00000000        0x8 c:/users/trent smith/desktop/sjsu_dev/yagarto/bin/../lib/gcc/arm-none-eabi/4.6.2/../../../../arm-none-eabi/lib/thumb/v7m\libstdc++.a(fundamental_type_info.o)
 .group         0x00000000        0x8 c:/users/trent smith/desktop/sjsu_dev/yagarto/bin/../lib/gcc/arm-none-eabi/4.6.2/../../../../arm-none-eabi/lib/thumb/v7m\libstdc++.a(fundamental_type_info.o)
 .group         0x00000000        0x8 c:/users/trent smith/desktop/sjsu_dev/yagarto/bin/../lib/gcc/arm-none-eabi/4.6.2/../../../../arm-none-eabi/lib/thumb/v7m\libstdc++.a(fundamental_type_info.o)
 .group         0x00000000        0x8 c:/users/trent smith/desktop/sjsu_dev/yagarto/bin/../lib/gcc/arm-none-eabi/4.6.2/../../../../arm-none-eabi/lib/thumb/v7m\libstdc++.a(fundamental_type_info.o)
 .group         0x00000000        0x8 c:/users/trent smith/desktop/sjsu_dev/yagarto/bin/../lib/gcc/arm-none-eabi/4.6.2/../../../../arm-none-eabi/lib/thumb/v7m\libstdc++.a(fundamental_type_info.o)
 .group         0x00000000        0x8 c:/users/trent smith/desktop/sjsu_dev/yagarto/bin/../lib/gcc/arm-none-eabi/4.6.2/../../../../arm-none-eabi/lib/thumb/v7m\libstdc++.a(fundamental_type_info.o)
 .group         0x00000000        0x8 c:/users/trent smith/desktop/sjsu_dev/yagarto/bin/../lib/gcc/arm-none-eabi/4.6.2/../../../../arm-none-eabi/lib/thumb/v7m\libstdc++.a(fundamental_type_info.o)
 .group         0x00000000        0x8 c:/users/trent smith/desktop/sjsu_dev/yagarto/bin/../lib/gcc/arm-none-eabi/4.6.2/../../../../arm-none-eabi/lib/thumb/v7m\libstdc++.a(fundamental_type_info.o)
 .group         0x00000000        0x8 c:/users/trent smith/desktop/sjsu_dev/yagarto/bin/../lib/gcc/arm-none-eabi/4.6.2/../../../../arm-none-eabi/lib/thumb/v7m\libstdc++.a(fundamental_type_info.o)
 .group         0x00000000        0x8 c:/users/trent smith/desktop/sjsu_dev/yagarto/bin/../lib/gcc/arm-none-eabi/4.6.2/../../../../arm-none-eabi/lib/thumb/v7m\libstdc++.a(fundamental_type_info.o)
 .group         0x00000000        0x8 c:/users/trent smith/desktop/sjsu_dev/yagarto/bin/../lib/gcc/arm-none-eabi/4.6.2/../../../../arm-none-eabi/lib/thumb/v7m\libstdc++.a(fundamental_type_info.o)
 .group         0x00000000        0x8 c:/users/trent smith/desktop/sjsu_dev/yagarto/bin/../lib/gcc/arm-none-eabi/4.6.2/../../../../arm-none-eabi/lib/thumb/v7m\libstdc++.a(fundamental_type_info.o)
 .group         0x00000000        0x8 c:/users/trent smith/desktop/sjsu_dev/yagarto/bin/../lib/gcc/arm-none-eabi/4.6.2/../../../../arm-none-eabi/lib/thumb/v7m\libstdc++.a(fundamental_type_info.o)
 .group         0x00000000        0x8 c:/users/trent smith/desktop/sjsu_dev/yagarto/bin/../lib/gcc/arm-none-eabi/4.6.2/../../../../arm-none-eabi/lib/thumb/v7m\libstdc++.a(fundamental_type_info.o)
 .group         0x00000000        0x8 c:/users/trent smith/desktop/sjsu_dev/yagarto/bin/../lib/gcc/arm-none-eabi/4.6.2/../../../../arm-none-eabi/lib/thumb/v7m\libstdc++.a(fundamental_type_info.o)
 .group         0x00000000        0x8 c:/users/trent smith/desktop/sjsu_dev/yagarto/bin/../lib/gcc/arm-none-eabi/4.6.2/../../../../arm-none-eabi/lib/thumb/v7m\libstdc++.a(fundamental_type_info.o)
 .group         0x00000000        0x8 c:/users/trent smith/desktop/sjsu_dev/yagarto/bin/../lib/gcc/arm-none-eabi/4.6.2/../../../../arm-none-eabi/lib/thumb/v7m\libstdc++.a(fundamental_type_info.o)
 .group         0x00000000        0x8 c:/users/trent smith/desktop/sjsu_dev/yagarto/bin/../lib/gcc/arm-none-eabi/4.6.2/../../../../arm-none-eabi/lib/thumb/v7m\libstdc++.a(fundamental_type_info.o)
 .group         0x00000000        0x8 c:/users/trent smith/desktop/sjsu_dev/yagarto/bin/../lib/gcc/arm-none-eabi/4.6.2/../../../../arm-none-eabi/lib/thumb/v7m\libstdc++.a(fundamental_type_info.o)
 .group         0x00000000        0x8 c:/users/trent smith/desktop/sjsu_dev/yagarto/bin/../lib/gcc/arm-none-eabi/4.6.2/../../../../arm-none-eabi/lib/thumb/v7m\libstdc++.a(fundamental_type_info.o)
 .group         0x00000000        0x8 c:/users/trent smith/desktop/sjsu_dev/yagarto/bin/../lib/gcc/arm-none-eabi/4.6.2/../../../../arm-none-eabi/lib/thumb/v7m\libstdc++.a(fundamental_type_info.o)
 .group         0x00000000        0x8 c:/users/trent smith/desktop/sjsu_dev/yagarto/bin/../lib/gcc/arm-none-eabi/4.6.2/../../../../arm-none-eabi/lib/thumb/v7m\libstdc++.a(fundamental_type_info.o)
 .group         0x00000000        0x8 c:/users/trent smith/desktop/sjsu_dev/yagarto/bin/../lib/gcc/arm-none-eabi/4.6.2/../../../../arm-none-eabi/lib/thumb/v7m\libstdc++.a(fundamental_type_info.o)
 .group         0x00000000        0x8 c:/users/trent smith/desktop/sjsu_dev/yagarto/bin/../lib/gcc/arm-none-eabi/4.6.2/../../../../arm-none-eabi/lib/thumb/v7m\libstdc++.a(fundamental_type_info.o)
 .group         0x00000000        0x8 c:/users/trent smith/desktop/sjsu_dev/yagarto/bin/../lib/gcc/arm-none-eabi/4.6.2/../../../../arm-none-eabi/lib/thumb/v7m\libstdc++.a(fundamental_type_info.o)
 .group         0x00000000        0x8 c:/users/trent smith/desktop/sjsu_dev/yagarto/bin/../lib/gcc/arm-none-eabi/4.6.2/../../../../arm-none-eabi/lib/thumb/v7m\libstdc++.a(fundamental_type_info.o)
 .group         0x00000000        0x8 c:/users/trent smith/desktop/sjsu_dev/yagarto/bin/../lib/gcc/arm-none-eabi/4.6.2/../../../../arm-none-eabi/lib/thumb/v7m\libstdc++.a(fundamental_type_info.o)
 .group         0x00000000        0x8 c:/users/trent smith/desktop/sjsu_dev/yagarto/bin/../lib/gcc/arm-none-eabi/4.6.2/../../../../arm-none-eabi/lib/thumb/v7m\libstdc++.a(fundamental_type_info.o)
 .group         0x00000000        0x8 c:/users/trent smith/desktop/sjsu_dev/yagarto/bin/../lib/gcc/arm-none-eabi/4.6.2/../../../../arm-none-eabi/lib/thumb/v7m\libstdc++.a(fundamental_type_info.o)
 .group         0x00000000        0x8 c:/users/trent smith/desktop/sjsu_dev/yagarto/bin/../lib/gcc/arm-none-eabi/4.6.2/../../../../arm-none-eabi/lib/thumb/v7m\libstdc++.a(fundamental_type_info.o)
 .group         0x00000000        0x8 c:/users/trent smith/desktop/sjsu_dev/yagarto/bin/../lib/gcc/arm-none-eabi/4.6.2/../../../../arm-none-eabi/lib/thumb/v7m\libstdc++.a(fundamental_type_info.o)
 .group         0x00000000        0x8 c:/users/trent smith/desktop/sjsu_dev/yagarto/bin/../lib/gcc/arm-none-eabi/4.6.2/../../../../arm-none-eabi/lib/thumb/v7m\libstdc++.a(fundamental_type_info.o)
 .group         0x00000000        0x8 c:/users/trent smith/desktop/sjsu_dev/yagarto/bin/../lib/gcc/arm-none-eabi/4.6.2/../../../../arm-none-eabi/lib/thumb/v7m\libstdc++.a(fundamental_type_info.o)
 .group         0x00000000        0x8 c:/users/trent smith/desktop/sjsu_dev/yagarto/bin/../lib/gcc/arm-none-eabi/4.6.2/../../../../arm-none-eabi/lib/thumb/v7m\libstdc++.a(fundamental_type_info.o)
 .group         0x00000000        0x8 c:/users/trent smith/desktop/sjsu_dev/yagarto/bin/../lib/gcc/arm-none-eabi/4.6.2/../../../../arm-none-eabi/lib/thumb/v7m\libstdc++.a(fundamental_type_info.o)
 .group         0x00000000        0x8 c:/users/trent smith/desktop/sjsu_dev/yagarto/bin/../lib/gcc/arm-none-eabi/4.6.2/../../../../arm-none-eabi/lib/thumb/v7m\libstdc++.a(fundamental_type_info.o)
 .group         0x00000000        0x8 c:/users/trent smith/desktop/sjsu_dev/yagarto/bin/../lib/gcc/arm-none-eabi/4.6.2/../../../../arm-none-eabi/lib/thumb/v7m\libstdc++.a(fundamental_type_info.o)
 .group         0x00000000        0x8 c:/users/trent smith/desktop/sjsu_dev/yagarto/bin/../lib/gcc/arm-none-eabi/4.6.2/../../../../arm-none-eabi/lib/thumb/v7m\libstdc++.a(fundamental_type_info.o)
 .group         0x00000000        0x8 c:/users/trent smith/desktop/sjsu_dev/yagarto/bin/../lib/gcc/arm-none-eabi/4.6.2/../../../../arm-none-eabi/lib/thumb/v7m\libstdc++.a(fundamental_type_info.o)
 .group         0x00000000        0x8 c:/users/trent smith/desktop/sjsu_dev/yagarto/bin/../lib/gcc/arm-none-eabi/4.6.2/../../../../arm-none-eabi/lib/thumb/v7m\libstdc++.a(fundamental_type_info.o)
 .group         0x00000000        0x8 c:/users/trent smith/desktop/sjsu_dev/yagarto/bin/../lib/gcc/arm-none-eabi/4.6.2/../../../../arm-none-eabi/lib/thumb/v7m\libstdc++.a(fundamental_type_info.o)
 .group         0x00000000        0x8 c:/users/trent smith/desktop/sjsu_dev/yagarto/bin/../lib/gcc/arm-none-eabi/4.6.2/../../../../arm-none-eabi/lib/thumb/v7m\libstdc++.a(fundamental_type_info.o)
 .group         0x00000000        0x8 c:/users/trent smith/desktop/sjsu_dev/yagarto/bin/../lib/gcc/arm-none-eabi/4.6.2/../../../../arm-none-eabi/lib/thumb/v7m\libstdc++.a(fundamental_type_info.o)
 .group         0x00000000        0x8 c:/users/trent smith/desktop/sjsu_dev/yagarto/bin/../lib/gcc/arm-none-eabi/4.6.2/../../../../arm-none-eabi/lib/thumb/v7m\libstdc++.a(fundamental_type_info.o)
 .group         0x00000000        0x8 c:/users/trent smith/desktop/sjsu_dev/yagarto/bin/../lib/gcc/arm-none-eabi/4.6.2/../../../../arm-none-eabi/lib/thumb/v7m\libstdc++.a(fundamental_type_info.o)
 .group         0x00000000        0x8 c:/users/trent smith/desktop/sjsu_dev/yagarto/bin/../lib/gcc/arm-none-eabi/4.6.2/../../../../arm-none-eabi/lib/thumb/v7m\libstdc++.a(fundamental_type_info.o)
 .group         0x00000000        0x8 c:/users/trent smith/desktop/sjsu_dev/yagarto/bin/../lib/gcc/arm-none-eabi/4.6.2/../../../../arm-none-eabi/lib/thumb/v7m\libstdc++.a(fundamental_type_info.o)
 .group         0x00000000        0x8 c:/users/trent smith/desktop/sjsu_dev/yagarto/bin/../lib/gcc/arm-none-eabi/4.6.2/../../../../arm-none-eabi/lib/thumb/v7m\libstdc++.a(fundamental_type_info.o)
 .group         0x00000000        0x8 c:/users/trent smith/desktop/sjsu_dev/yagarto/bin/../lib/gcc/arm-none-eabi/4.6.2/../../../../arm-none-eabi/lib/thumb/v7m\libstdc++.a(fundamental_type_info.o)
 .group         0x00000000        0x8 c:/users/trent smith/desktop/sjsu_dev/yagarto/bin/../lib/gcc/arm-none-eabi/4.6.2/../../../../arm-none-eabi/lib/thumb/v7m\libstdc++.a(fundamental_type_info.o)
 .group         0x00000000        0x8 c:/users/trent smith/desktop/sjsu_dev/yagarto/bin/../lib/gcc/arm-none-eabi/4.6.2/../../../../arm-none-eabi/lib/thumb/v7m\libstdc++.a(fundamental_type_info.o)
 .group         0x00000000        0x8 c:/users/trent smith/desktop/sjsu_dev/yagarto/bin/../lib/gcc/arm-none-eabi/4.6.2/../../../../arm-none-eabi/lib/thumb/v7m\libstdc++.a(fundamental_type_info.o)
 .group         0x00000000        0x8 c:/users/trent smith/desktop/sjsu_dev/yagarto/bin/../lib/gcc/arm-none-eabi/4.6.2/../../../../arm-none-eabi/lib/thumb/v7m\libstdc++.a(fundamental_type_info.o)
 .group         0x00000000        0x8 c:/users/trent smith/desktop/sjsu_dev/yagarto/bin/../lib/gcc/arm-none-eabi/4.6.2/../../../../arm-none-eabi/lib/thumb/v7m\libstdc++.a(fundamental_type_info.o)
 .group         0x00000000        0x8 c:/users/trent smith/desktop/sjsu_dev/yagarto/bin/../lib/gcc/arm-none-eabi/4.6.2/../../../../arm-none-eabi/lib/thumb/v7m\libstdc++.a(fundamental_type_info.o)
 .group         0x00000000        0x8 c:/users/trent smith/desktop/sjsu_dev/yagarto/bin/../lib/gcc/arm-none-eabi/4.6.2/../../../../arm-none-eabi/lib/thumb/v7m\libstdc++.a(fundamental_type_info.o)
 .group         0x00000000        0x8 c:/users/trent smith/desktop/sjsu_dev/yagarto/bin/../lib/gcc/arm-none-eabi/4.6.2/../../../../arm-none-eabi/lib/thumb/v7m\libstdc++.a(fundamental_type_info.o)
 .group         0x00000000        0x8 c:/users/trent smith/desktop/sjsu_dev/yagarto/bin/../lib/gcc/arm-none-eabi/4.6.2/../../../../arm-none-eabi/lib/thumb/v7m\libstdc++.a(fundamental_type_info.o)
 .group         0x00000000        0x8 c:/users/trent smith/desktop/sjsu_dev/yagarto/bin/../lib/gcc/arm-none-eabi/4.6.2/../../../../arm-none-eabi/lib/thumb/v7m\libstdc++.a(fundamental_type_info.o)
 .group         0x00000000        0x8 c:/users/trent smith/desktop/sjsu_dev/yagarto/bin/../lib/gcc/arm-none-eabi/4.6.2/../../../../arm-none-eabi/lib/thumb/v7m\libstdc++.a(fundamental_type_info.o)
 .group         0x00000000        0x8 c:/users/trent smith/desktop/sjsu_dev/yagarto/bin/../lib/gcc/arm-none-eabi/4.6.2/../../../../arm-none-eabi/lib/thumb/v7m\libstdc++.a(fundamental_type_info.o)
 .group         0x00000000        0x8 c:/users/trent smith/desktop/sjsu_dev/yagarto/bin/../lib/gcc/arm-none-eabi/4.6.2/../../../../arm-none-eabi/lib/thumb/v7m\libstdc++.a(fundamental_type_info.o)
 .group         0x00000000        0x8 c:/users/trent smith/desktop/sjsu_dev/yagarto/bin/../lib/gcc/arm-none-eabi/4.6.2/../../../../arm-none-eabi/lib/thumb/v7m\libstdc++.a(fundamental_type_info.o)
 .group         0x00000000        0x8 c:/users/trent smith/desktop/sjsu_dev/yagarto/bin/../lib/gcc/arm-none-eabi/4.6.2/../../../../arm-none-eabi/lib/thumb/v7m\libstdc++.a(fundamental_type_info.o)
 .group         0x00000000        0x8 c:/users/trent smith/desktop/sjsu_dev/yagarto/bin/../lib/gcc/arm-none-eabi/4.6.2/../../../../arm-none-eabi/lib/thumb/v7m\libstdc++.a(fundamental_type_info.o)
 .group         0x00000000        0x8 c:/users/trent smith/desktop/sjsu_dev/yagarto/bin/../lib/gcc/arm-none-eabi/4.6.2/../../../../arm-none-eabi/lib/thumb/v7m\libstdc++.a(fundamental_type_info.o)
 .group         0x00000000        0x8 c:/users/trent smith/desktop/sjsu_dev/yagarto/bin/../lib/gcc/arm-none-eabi/4.6.2/../../../../arm-none-eabi/lib/thumb/v7m\libstdc++.a(fundamental_type_info.o)
 .group         0x00000000        0x8 c:/users/trent smith/desktop/sjsu_dev/yagarto/bin/../lib/gcc/arm-none-eabi/4.6.2/../../../../arm-none-eabi/lib/thumb/v7m\libstdc++.a(fundamental_type_info.o)
 .group         0x00000000        0x8 c:/users/trent smith/desktop/sjsu_dev/yagarto/bin/../lib/gcc/arm-none-eabi/4.6.2/../../../../arm-none-eabi/lib/thumb/v7m\libstdc++.a(fundamental_type_info.o)
 .group         0x00000000        0x8 c:/users/trent smith/desktop/sjsu_dev/yagarto/bin/../lib/gcc/arm-none-eabi/4.6.2/../../../../arm-none-eabi/lib/thumb/v7m\libstdc++.a(fundamental_type_info.o)
 .group         0x00000000        0x8 c:/users/trent smith/desktop/sjsu_dev/yagarto/bin/../lib/gcc/arm-none-eabi/4.6.2/../../../../arm-none-eabi/lib/thumb/v7m\libstdc++.a(fundamental_type_info.o)
 .group         0x00000000        0x8 c:/users/trent smith/desktop/sjsu_dev/yagarto/bin/../lib/gcc/arm-none-eabi/4.6.2/../../../../arm-none-eabi/lib/thumb/v7m\libstdc++.a(fundamental_type_info.o)
 .group         0x00000000        0x8 c:/users/trent smith/desktop/sjsu_dev/yagarto/bin/../lib/gcc/arm-none-eabi/4.6.2/../../../../arm-none-eabi/lib/thumb/v7m\libstdc++.a(fundamental_type_info.o)
 .group         0x00000000        0x8 c:/users/trent smith/desktop/sjsu_dev/yagarto/bin/../lib/gcc/arm-none-eabi/4.6.2/../../../../arm-none-eabi/lib/thumb/v7m\libstdc++.a(fundamental_type_info.o)
 .group         0x00000000        0x8 c:/users/trent smith/desktop/sjsu_dev/yagarto/bin/../lib/gcc/arm-none-eabi/4.6.2/../../../../arm-none-eabi/lib/thumb/v7m\libstdc++.a(fundamental_type_info.o)
 .group         0x00000000        0x8 c:/users/trent smith/desktop/sjsu_dev/yagarto/bin/../lib/gcc/arm-none-eabi/4.6.2/../../../../arm-none-eabi/lib/thumb/v7m\libstdc++.a(fundamental_type_info.o)
 .group         0x00000000        0x8 c:/users/trent smith/desktop/sjsu_dev/yagarto/bin/../lib/gcc/arm-none-eabi/4.6.2/../../../../arm-none-eabi/lib/thumb/v7m\libstdc++.a(fundamental_type_info.o)
 .group         0x00000000        0x8 c:/users/trent smith/desktop/sjsu_dev/yagarto/bin/../lib/gcc/arm-none-eabi/4.6.2/../../../../arm-none-eabi/lib/thumb/v7m\libstdc++.a(fundamental_type_info.o)
 .group         0x00000000        0x8 c:/users/trent smith/desktop/sjsu_dev/yagarto/bin/../lib/gcc/arm-none-eabi/4.6.2/../../../../arm-none-eabi/lib/thumb/v7m\libstdc++.a(fundamental_type_info.o)
 .group         0x00000000        0x8 c:/users/trent smith/desktop/sjsu_dev/yagarto/bin/../lib/gcc/arm-none-eabi/4.6.2/../../../../arm-none-eabi/lib/thumb/v7m\libstdc++.a(fundamental_type_info.o)
 .group         0x00000000        0x8 c:/users/trent smith/desktop/sjsu_dev/yagarto/bin/../lib/gcc/arm-none-eabi/4.6.2/../../../../arm-none-eabi/lib/thumb/v7m\libstdc++.a(fundamental_type_info.o)
 .group         0x00000000        0x8 c:/users/trent smith/desktop/sjsu_dev/yagarto/bin/../lib/gcc/arm-none-eabi/4.6.2/../../../../arm-none-eabi/lib/thumb/v7m\libstdc++.a(fundamental_type_info.o)
 .group         0x00000000        0x8 c:/users/trent smith/desktop/sjsu_dev/yagarto/bin/../lib/gcc/arm-none-eabi/4.6.2/../../../../arm-none-eabi/lib/thumb/v7m\libstdc++.a(fundamental_type_info.o)
 .group         0x00000000        0x8 c:/users/trent smith/desktop/sjsu_dev/yagarto/bin/../lib/gcc/arm-none-eabi/4.6.2/../../../../arm-none-eabi/lib/thumb/v7m\libstdc++.a(fundamental_type_info.o)
 .group         0x00000000        0x8 c:/users/trent smith/desktop/sjsu_dev/yagarto/bin/../lib/gcc/arm-none-eabi/4.6.2/../../../../arm-none-eabi/lib/thumb/v7m\libstdc++.a(fundamental_type_info.o)
 .group         0x00000000        0x8 c:/users/trent smith/desktop/sjsu_dev/yagarto/bin/../lib/gcc/arm-none-eabi/4.6.2/../../../../arm-none-eabi/lib/thumb/v7m\libstdc++.a(fundamental_type_info.o)
 .group         0x00000000        0x8 c:/users/trent smith/desktop/sjsu_dev/yagarto/bin/../lib/gcc/arm-none-eabi/4.6.2/../../../../arm-none-eabi/lib/thumb/v7m\libstdc++.a(fundamental_type_info.o)
 .group         0x00000000        0x8 c:/users/trent smith/desktop/sjsu_dev/yagarto/bin/../lib/gcc/arm-none-eabi/4.6.2/../../../../arm-none-eabi/lib/thumb/v7m\libstdc++.a(fundamental_type_info.o)
 .group         0x00000000        0x8 c:/users/trent smith/desktop/sjsu_dev/yagarto/bin/../lib/gcc/arm-none-eabi/4.6.2/../../../../arm-none-eabi/lib/thumb/v7m\libstdc++.a(fundamental_type_info.o)
 .group         0x00000000        0x8 c:/users/trent smith/desktop/sjsu_dev/yagarto/bin/../lib/gcc/arm-none-eabi/4.6.2/../../../../arm-none-eabi/lib/thumb/v7m\libstdc++.a(fundamental_type_info.o)
 .group         0x00000000        0x8 c:/users/trent smith/desktop/sjsu_dev/yagarto/bin/../lib/gcc/arm-none-eabi/4.6.2/../../../../arm-none-eabi/lib/thumb/v7m\libstdc++.a(fundamental_type_info.o)
 .group         0x00000000        0x8 c:/users/trent smith/desktop/sjsu_dev/yagarto/bin/../lib/gcc/arm-none-eabi/4.6.2/../../../../arm-none-eabi/lib/thumb/v7m\libstdc++.a(fundamental_type_info.o)
 .group         0x00000000        0x8 c:/users/trent smith/desktop/sjsu_dev/yagarto/bin/../lib/gcc/arm-none-eabi/4.6.2/../../../../arm-none-eabi/lib/thumb/v7m\libstdc++.a(fundamental_type_info.o)
 .group         0x00000000        0x8 c:/users/trent smith/desktop/sjsu_dev/yagarto/bin/../lib/gcc/arm-none-eabi/4.6.2/../../../../arm-none-eabi/lib/thumb/v7m\libstdc++.a(fundamental_type_info.o)
 .group         0x00000000        0x8 c:/users/trent smith/desktop/sjsu_dev/yagarto/bin/../lib/gcc/arm-none-eabi/4.6.2/../../../../arm-none-eabi/lib/thumb/v7m\libstdc++.a(fundamental_type_info.o)
 .group         0x00000000        0x8 c:/users/trent smith/desktop/sjsu_dev/yagarto/bin/../lib/gcc/arm-none-eabi/4.6.2/../../../../arm-none-eabi/lib/thumb/v7m\libstdc++.a(fundamental_type_info.o)
 .group         0x00000000        0x8 c:/users/trent smith/desktop/sjsu_dev/yagarto/bin/../lib/gcc/arm-none-eabi/4.6.2/../../../../arm-none-eabi/lib/thumb/v7m\libstdc++.a(fundamental_type_info.o)
 .group         0x00000000        0x8 c:/users/trent smith/desktop/sjsu_dev/yagarto/bin/../lib/gcc/arm-none-eabi/4.6.2/../../../../arm-none-eabi/lib/thumb/v7m\libstdc++.a(fundamental_type_info.o)
 .group         0x00000000        0x8 c:/users/trent smith/desktop/sjsu_dev/yagarto/bin/../lib/gcc/arm-none-eabi/4.6.2/../../../../arm-none-eabi/lib/thumb/v7m\libstdc++.a(fundamental_type_info.o)
 .group         0x00000000        0x8 c:/users/trent smith/desktop/sjsu_dev/yagarto/bin/../lib/gcc/arm-none-eabi/4.6.2/../../../../arm-none-eabi/lib/thumb/v7m\libstdc++.a(fundamental_type_info.o)
 .group         0x00000000        0x8 c:/users/trent smith/desktop/sjsu_dev/yagarto/bin/../lib/gcc/arm-none-eabi/4.6.2/../../../../arm-none-eabi/lib/thumb/v7m\libstdc++.a(fundamental_type_info.o)
 .group         0x00000000        0x8 c:/users/trent smith/desktop/sjsu_dev/yagarto/bin/../lib/gcc/arm-none-eabi/4.6.2/../../../../arm-none-eabi/lib/thumb/v7m\libstdc++.a(fundamental_type_info.o)
 .group         0x00000000        0x8 c:/users/trent smith/desktop/sjsu_dev/yagarto/bin/../lib/gcc/arm-none-eabi/4.6.2/../../../../arm-none-eabi/lib/thumb/v7m\libstdc++.a(fundamental_type_info.o)
 .group         0x00000000        0x8 c:/users/trent smith/desktop/sjsu_dev/yagarto/bin/../lib/gcc/arm-none-eabi/4.6.2/../../../../arm-none-eabi/lib/thumb/v7m\libstdc++.a(fundamental_type_info.o)
 .group         0x00000000        0x8 c:/users/trent smith/desktop/sjsu_dev/yagarto/bin/../lib/gcc/arm-none-eabi/4.6.2/../../../../arm-none-eabi/lib/thumb/v7m\libstdc++.a(fundamental_type_info.o)
 .group         0x00000000        0x8 c:/users/trent smith/desktop/sjsu_dev/yagarto/bin/../lib/gcc/arm-none-eabi/4.6.2/../../../../arm-none-eabi/lib/thumb/v7m\libstdc++.a(fundamental_type_info.o)
 .group         0x00000000        0x8 c:/users/trent smith/desktop/sjsu_dev/yagarto/bin/../lib/gcc/arm-none-eabi/4.6.2/../../../../arm-none-eabi/lib/thumb/v7m\libstdc++.a(fundamental_type_info.o)
 .group         0x00000000        0x8 c:/users/trent smith/desktop/sjsu_dev/yagarto/bin/../lib/gcc/arm-none-eabi/4.6.2/../../../../arm-none-eabi/lib/thumb/v7m\libstdc++.a(fundamental_type_info.o)
 .group         0x00000000        0x8 c:/users/trent smith/desktop/sjsu_dev/yagarto/bin/../lib/gcc/arm-none-eabi/4.6.2/../../../../arm-none-eabi/lib/thumb/v7m\libstdc++.a(fundamental_type_info.o)
 .group         0x00000000        0x8 c:/users/trent smith/desktop/sjsu_dev/yagarto/bin/../lib/gcc/arm-none-eabi/4.6.2/../../../../arm-none-eabi/lib/thumb/v7m\libstdc++.a(fundamental_type_info.o)
 .group         0x00000000        0x8 c:/users/trent smith/desktop/sjsu_dev/yagarto/bin/../lib/gcc/arm-none-eabi/4.6.2/../../../../arm-none-eabi/lib/thumb/v7m\libstdc++.a(fundamental_type_info.o)
 .group         0x00000000        0x8 c:/users/trent smith/desktop/sjsu_dev/yagarto/bin/../lib/gcc/arm-none-eabi/4.6.2/../../../../arm-none-eabi/lib/thumb/v7m\libstdc++.a(fundamental_type_info.o)
 .group         0x00000000        0x8 c:/users/trent smith/desktop/sjsu_dev/yagarto/bin/../lib/gcc/arm-none-eabi/4.6.2/../../../../arm-none-eabi/lib/thumb/v7m\libstdc++.a(fundamental_type_info.o)
 .group         0x00000000        0x8 c:/users/trent smith/desktop/sjsu_dev/yagarto/bin/../lib/gcc/arm-none-eabi/4.6.2/../../../../arm-none-eabi/lib/thumb/v7m\libstdc++.a(fundamental_type_info.o)
 .group         0x00000000        0x8 c:/users/trent smith/desktop/sjsu_dev/yagarto/bin/../lib/gcc/arm-none-eabi/4.6.2/../../../../arm-none-eabi/lib/thumb/v7m\libstdc++.a(fundamental_type_info.o)
 .group         0x00000000        0x8 c:/users/trent smith/desktop/sjsu_dev/yagarto/bin/../lib/gcc/arm-none-eabi/4.6.2/../../../../arm-none-eabi/lib/thumb/v7m\libstdc++.a(fundamental_type_info.o)
 .group         0x00000000        0x8 c:/users/trent smith/desktop/sjsu_dev/yagarto/bin/../lib/gcc/arm-none-eabi/4.6.2/../../../../arm-none-eabi/lib/thumb/v7m\libstdc++.a(fundamental_type_info.o)
 .group         0x00000000        0x8 c:/users/trent smith/desktop/sjsu_dev/yagarto/bin/../lib/gcc/arm-none-eabi/4.6.2/../../../../arm-none-eabi/lib/thumb/v7m\libstdc++.a(fundamental_type_info.o)
 .group         0x00000000        0x8 c:/users/trent smith/desktop/sjsu_dev/yagarto/bin/../lib/gcc/arm-none-eabi/4.6.2/../../../../arm-none-eabi/lib/thumb/v7m\libstdc++.a(fundamental_type_info.o)
 .group         0x00000000        0x8 c:/users/trent smith/desktop/sjsu_dev/yagarto/bin/../lib/gcc/arm-none-eabi/4.6.2/../../../../arm-none-eabi/lib/thumb/v7m\libstdc++.a(fundamental_type_info.o)
 .group         0x00000000        0x8 c:/users/trent smith/desktop/sjsu_dev/yagarto/bin/../lib/gcc/arm-none-eabi/4.6.2/../../../../arm-none-eabi/lib/thumb/v7m\libstdc++.a(fundamental_type_info.o)
 .group         0x00000000        0x8 c:/users/trent smith/desktop/sjsu_dev/yagarto/bin/../lib/gcc/arm-none-eabi/4.6.2/../../../../arm-none-eabi/lib/thumb/v7m\libstdc++.a(fundamental_type_info.o)
 .group         0x00000000        0x8 c:/users/trent smith/desktop/sjsu_dev/yagarto/bin/../lib/gcc/arm-none-eabi/4.6.2/../../../../arm-none-eabi/lib/thumb/v7m\libstdc++.a(fundamental_type_info.o)
 .group         0x00000000        0x8 c:/users/trent smith/desktop/sjsu_dev/yagarto/bin/../lib/gcc/arm-none-eabi/4.6.2/../../../../arm-none-eabi/lib/thumb/v7m\libstdc++.a(fundamental_type_info.o)
 .group         0x00000000        0x8 c:/users/trent smith/desktop/sjsu_dev/yagarto/bin/../lib/gcc/arm-none-eabi/4.6.2/../../../../arm-none-eabi/lib/thumb/v7m\libstdc++.a(fundamental_type_info.o)
 .group         0x00000000        0x8 c:/users/trent smith/desktop/sjsu_dev/yagarto/bin/../lib/gcc/arm-none-eabi/4.6.2/../../../../arm-none-eabi/lib/thumb/v7m\libstdc++.a(fundamental_type_info.o)
 .group         0x00000000       0x10 c:/users/trent smith/desktop/sjsu_dev/yagarto/bin/../lib/gcc/arm-none-eabi/4.6.2/../../../../arm-none-eabi/lib/thumb/v7m\libstdc++.a(pbase_type_info.o)

Memory Configuration

Name             Origin             Length             Attributes
MFlash512        0x00001000         0x00080000         xr
RamLoc32         0x10000000         0x00008000         xrw
RamAHB32         0x2007c000         0x00008000         xrw
*default*        0x00000000         0xffffffff

Linker script and memory map

LOAD ./L5_Application/source/handlers.o
LOAD ./L5_Application/source/highLevelInitialize.o
LOAD ./L5_Application/source/tasks.o
LOAD ./L5_Application/source/utilities.o
LOAD ./L5_Application/main.o
LOAD ./L4_IO/src/io_source.o
LOAD ./L4_IO/fat/option/ccsbcs.o
LOAD ./L4_IO/fat/option/reentrant.o
LOAD ./L4_IO/fat/disk/diskio.o
LOAD ./L4_IO/fat/disk/sd.o
LOAD ./L4_IO/fat/disk/spi_flash.o
LOAD ./L4_IO/fat/fatfs_time.o
LOAD ./L4_IO/fat/ff.o
LOAD ./L3_Utils/src/CommandHandler.o
LOAD ./L3_Utils/src/logger.o
LOAD ./L3_Utils/src/str.o
LOAD ./L3_Utils/src/timer.o
LOAD ./L2_Drivers/src/I2C2.o
LOAD ./L2_Drivers/src/i2c_base.o
LOAD ./L2_Drivers/src/rtc.o
LOAD ./L2_Drivers/src/spi1.o
LOAD ./L2_Drivers/src/uart0.o
LOAD ./L2_Drivers/src/uart_base.o
LOAD ./L1_FreeRTOS/src/croutine.o
LOAD ./L1_FreeRTOS/src/list.o
LOAD ./L1_FreeRTOS/src/queue.o
LOAD ./L1_FreeRTOS/src/tasks.o
LOAD ./L1_FreeRTOS/src/timers.o
LOAD ./L1_FreeRTOS/portable/port.o
LOAD ./L1_FreeRTOS/hooks/hooks.o
LOAD ./L1_FreeRTOS/MemMang/heap_3.o
LOAD ./L0_LowLevel/source/core_cm3.o
LOAD ./L0_LowLevel/source/cr_startup_lpc175x.o
LOAD ./L0_LowLevel/source/io_functions.o
LOAD ./L0_LowLevel/source/memory.o
LOAD ./L0_LowLevel/source/sys_clock.o
LOAD ./L0_LowLevel/source/sys_hooks.o
LOAD ./L0_LowLevel/source/system_initialization.o
LOAD ./L0_LowLevel/source/uart0_min.o
LOAD c:/users/trent smith/desktop/sjsu_dev/yagarto/bin/../lib/gcc/arm-none-eabi/4.6.2/../../../../arm-none-eabi/lib/thumb/v7m\libstdc++.a
LOAD c:/users/trent smith/desktop/sjsu_dev/yagarto/bin/../lib/gcc/arm-none-eabi/4.6.2/../../../../arm-none-eabi/lib/thumb/v7m\libm.a
START GROUP
LOAD c:/users/trent smith/desktop/sjsu_dev/yagarto/bin/../lib/gcc/arm-none-eabi/4.6.2/thumb/v7m\libgcc.a
LOAD c:/users/trent smith/desktop/sjsu_dev/yagarto/bin/../lib/gcc/arm-none-eabi/4.6.2/../../../../arm-none-eabi/lib/thumb/v7m\libc.a
END GROUP
                0x00080000                __top_MFlash512 = 0x80000
                0x10008000                __top_RamLoc32 = 0x10008000
                0x20084000                __top_RamAHB32 = 0x20084000

.text           0x00001000    0x13644
 FILL mask 0xff
 *(.isr_vector)
 .isr_vector    0x00001000       0xcc ./L0_LowLevel/source/cr_startup_lpc175x.o
                0x00001000                g_pfnVectors
                0x000010cc                . = ALIGN (0x4)
                0x000010cc                __section_table_start = .
                0x000010cc                __data_section_table = .
                0x000010cc        0x4 LONG 0x14978 LOADADDR (.data)
                0x000010d0        0x4 LONG 0x10000000 ADDR (.data)
                0x000010d4        0x4 LONG 0x934 SIZEOF (.data)
                0x000010d8                __data_section_table_end = .
                0x000010d8                __bss_section_table = .
                0x000010d8        0x4 LONG 0x10000938 ADDR (.bss)
                0x000010dc        0x4 LONG 0xcdc SIZEOF (.bss)
                0x000010e0                __bss_section_table_end = .
                0x000010e0                __section_table_end = .
 *(.after_vectors*)
 .after_vectors
                0x000010e0      0x12c ./L0_LowLevel/source/cr_startup_lpc175x.o
                0x000010e0                HardFault_Handler
                0x000010fa                DebugMon_Handler
                0x00001108                UsageFault_Handler
                0x00001118                BusFault_Handler
                0x00001128                MemManage_Handler
                0x00001138                NMI_Handler
                0x00001148                data_init(unsigned int, unsigned int, unsigned int)
                0x0000115a                bss_init(unsigned int, unsigned int)
                0x0000116a                ResetISR
                0x000011cc                SVC_Handler
                0x000011dc                PendSV_Handler
                0x000011ec                SysTick_Handler
                0x000011fc                EINT3_IRQHandler
                0x000011fc                CANActivity_IRQHandler
                0x000011fc                TIMER3_IRQHandler
                0x000011fc                UART1_IRQHandler
                0x000011fc                IntDefaultHandler
                0x000011fc                PLL0_IRQHandler
                0x000011fc                CAN_IRQHandler
                0x000011fc                PWM1_IRQHandler
                0x000011fc                SSP0_IRQHandler
                0x000011fc                EINT2_IRQHandler
                0x000011fc                RTC_IRQHandler
                0x000011fc                TIMER0_IRQHandler
                0x000011fc                SPI_IRQHandler
                0x000011fc                EINT1_IRQHandler
                0x000011fc                UART2_IRQHandler
                0x000011fc                ADC_IRQHandler
                0x000011fc                SSP1_IRQHandler
                0x000011fc                USBActivity_IRQHandler
                0x000011fc                USB_IRQHandler
                0x000011fc                BOD_IRQHandler
                0x000011fc                I2S_IRQHandler
                0x000011fc                I2C0_IRQHandler
                0x000011fc                WDT_IRQHandler
                0x000011fc                I2C1_IRQHandler
                0x000011fc                QEI_IRQHandler
                0x000011fc                EINT0_IRQHandler
                0x000011fc                PLL1_IRQHandler
                0x000011fc                DMA_IRQHandler
                0x000011fc                TIMER2_IRQHandler
                0x000011fc                UART3_IRQHandler
                0x000011fc                MCPWM_IRQHandler
                0x000011fc                ENET_IRQHandler
 *(.text*)
 .text          0x0000120c      0x5b8 ./L5_Application/source/handlers.o
                0x0000120c                taskListHandler(str&, str&, void*, int)
                0x0000125c                memInfoHandler(str&, str&, void*, int)
                0x00001260                timeHandler(str&, str&, void*, int)
                0x000013a0                copyHandler(str&, str&, void*, int)
                0x00001458                readHandler(str&, str&, void*, int)
                0x00001578                lsHandler(str&, str&, void*, int)
                0x000016b8                rmHandler(str&, str&, void*, int)
                0x000016f0                loggerTest(str&, str&, void*, int)
 .text._ZN10LoggerBaseD2Ev
                0x000017c4        0xc ./L5_Application/source/handlers.o
                0x000017c4                LoggerBase::~LoggerBase()
                0x000017c4                LoggerBase::~LoggerBase()
 .text._ZN9CSVLoggerD2Ev
                0x000017d0        0xc ./L5_Application/source/handlers.o
                0x000017d0                CSVLogger::~CSVLogger()
                0x000017d0                CSVLogger::~CSVLogger()
 .text._ZN9CSVLogger7semTakeEv
                0x000017dc        0x2 ./L5_Application/source/handlers.o
                0x000017dc                CSVLogger::semTake()
 .text._ZN9CSVLogger7semGiveEv
                0x000017de        0x2 ./L5_Application/source/handlers.o
                0x000017de                CSVLogger::semGive()
 .text._ZN9CSVLogger12getTimestampEv
                0x000017e0        0x4 ./L5_Application/source/handlers.o
                0x000017e0                CSVLogger::getTimestamp()
 .text._ZN10FileLoggerD2Ev
                0x000017e4        0xc ./L5_Application/source/handlers.o
                0x000017e4                FileLogger::~FileLogger()
                0x000017e4                FileLogger::~FileLogger()
 .text._ZN10FileLoggerD0Ev
                0x000017f0       0x14 ./L5_Application/source/handlers.o
                0x000017f0                FileLogger::~FileLogger()
 .text._ZN9CSVLoggerD0Ev
                0x00001804       0x14 ./L5_Application/source/handlers.o
                0x00001804                CSVLogger::~CSVLogger()
 .text._ZN10LoggerBaseD0Ev
                0x00001818       0x14 ./L5_Application/source/handlers.o
                0x00001818                LoggerBase::~LoggerBase()
 .text._ZN10FileLogger12getTimestampEv
                0x0000182c        0x4 ./L5_Application/source/handlers.o
                0x0000182c                FileLogger::getTimestamp()
 .text._ZN10FileLogger7semGiveEv
                0x00001830        0xc ./L5_Application/source/handlers.o
                0x00001830                FileLogger::semGive()
 .text._ZN10FileLogger7semTakeEv
                0x0000183c        0xe ./L5_Application/source/handlers.o
                0x0000183c                FileLogger::semTake()
 *fill*         0x0000184a        0x2 00
 .text._ZN10FileLogger21handleCompletedBufferEPcj
                0x0000184c       0x90 ./L5_Application/source/handlers.o
                0x0000184c                FileLogger::handleCompletedBuffer(char*, unsigned int)
 .text._ZN7Storage4copyEPKcS1_PjS2_S2_
                0x000018dc       0xea ./L5_Application/source/handlers.o
                0x000018dc                Storage::copy(char const*, char const*, unsigned int*, unsigned int*, unsigned int*)
 *fill*         0x000019c6        0x2 00
 .text._ZN17SingletonTemplateI10FileLoggerE11getInstanceEv
                0x000019c8       0x60 ./L5_Application/source/handlers.o
                0x000019c8                SingletonTemplate<FileLogger>::getInstance()
 .text          0x00001a28      0x458 ./L5_Application/source/highLevelInitialize.o
                0x00001a28                printLine()
                0x00001a34                mountStorage(FileSystemObject&, char const*)
                0x00001aac                copyLogFileToSDCard()
                0x00001b0c                RIT_IRQHandler
                0x00001b2c                setupPeriodicCallBack(void (*)(), unsigned int)
                0x00001b9c                discoverExternalDevsOnI2C()
                0x00001be0                initializeBoardIO()
                0x00001d28                highLevelInitialize()
 .text._ZN9IO_DeviceD2Ev
                0x00001e80       0x18 ./L5_Application/source/highLevelInitialize.o
                0x00001e80                IO_Device::~IO_Device()
                0x00001e80                IO_Device::~IO_Device()
 .text._ZN9IO_DeviceD0Ev
                0x00001e98       0x12 ./L5_Application/source/highLevelInitialize.o
                0x00001e98                IO_Device::~IO_Device()
 *fill*         0x00001eaa        0x2 00
 .text._ZN9IO_Device16getValueAsStringEv
                0x00001eac       0x1c ./L5_Application/source/highLevelInitialize.o
                0x00001eac                IO_Device::getValueAsString()
 .text.adc0_initialize
                0x00001ec8       0x58 ./L5_Application/source/highLevelInitialize.o
                0x00001ec8                adc0_initialize
 .text._ZN7Storage13getFlashDriveEv
                0x00001f20       0x48 ./L5_Application/source/highLevelInitialize.o
                0x00001f20                Storage::getFlashDrive()
 .text._ZN9IO_DeviceC2Ev
                0x00001f68       0x18 ./L5_Application/source/highLevelInitialize.o
                0x00001f68                IO_Device::IO_Device()
                0x00001f68                IO_Device::IO_Device()
 .text._ZN17SingletonTemplateI4I2C2E11getInstanceEv
                0x00001f80       0x20 ./L5_Application/source/highLevelInitialize.o
                0x00001f80                SingletonTemplate<I2C2>::getInstance()
 .text._ZN17SingletonTemplateI11LED_DisplayE11getInstanceEv
                0x00001fa0       0x34 ./L5_Application/source/highLevelInitialize.o
                0x00001fa0                SingletonTemplate<LED_Display>::getInstance()
 .text          0x00001fd4      0x480 ./L5_Application/source/tasks.o
                0x00001fd4                getLine(str&, int)
                0x000020d0                terminalTask(void*)
                0x000022d0                switchled(void*)
 .text._ZN15I2C_Device_BaseC2Eh
                0x00002454       0x28 ./L5_Application/source/tasks.o
                0x00002454                I2C_Device_Base::I2C_Device_Base(unsigned char)
                0x00002454                I2C_Device_Base::I2C_Device_Base(unsigned char)
 .text._ZN17SingletonTemplateI3LEDE11getInstanceEv
                0x0000247c       0x28 ./L5_Application/source/tasks.o
                0x0000247c                SingletonTemplate<LED>::getInstance()
 .text._ZN17SingletonTemplateI8SwitchesE11getInstanceEv
                0x000024a4       0x28 ./L5_Application/source/tasks.o
                0x000024a4                SingletonTemplate<Switches>::getInstance()
 .text._ZN17SingletonTemplateI19Acceleration_SensorE11getInstanceEv
                0x000024cc       0x34 ./L5_Application/source/tasks.o
                0x000024cc                SingletonTemplate<Acceleration_Sensor>::getInstance()
 .text._ZN17SingletonTemplateI17TemperatureSensorE11getInstanceEv
                0x00002500       0x34 ./L5_Application/source/tasks.o
                0x00002500                SingletonTemplate<TemperatureSensor>::getInstance()
 .text._ZN17SingletonTemplateI9IR_SensorE11getInstanceEv
                0x00002534       0x28 ./L5_Application/source/tasks.o
                0x00002534                SingletonTemplate<IR_Sensor>::getInstance()
 .text          0x0000255c       0x60 ./L5_Application/source/utilities.o
                0x0000255c                delay_ms
                0x0000259e                printMemoryInfo
 .text          0x000025bc        0x0 ./L5_Application/main.o
 .text._ZN17SingletonTemplateI3LCDE11getInstanceEv
                0x000025bc       0x28 ./L5_Application/main.o
                0x000025bc                SingletonTemplate<LCD>::getInstance()
 .text._ZN17SingletonTemplateI6KeypadE11getInstanceEv
                0x000025e4       0x28 ./L5_Application/main.o
                0x000025e4                SingletonTemplate<Keypad>::getInstance()
 .text.startup  0x0000260c      0x1ec ./L5_Application/main.o
                0x0000260c                main
 .text          0x000027f8      0xabc ./L4_IO/src/io_source.o
                0x000027f8                LED::init()
                0x0000280c                Switches::init()
                0x0000281c                Keypad::init()
                0x00002834                LED_Display::getValueAsString()
                0x00002854                IR_Sensor::getValueAsString()
                0x0000287c                TemperatureSensor::init()
                0x00002894                LCD::init()
                0x000028d0                LED::getValueAsString()
                0x0000292c                Switches::getValueAsString()
                0x0000298c                IR_Sensor::init()
                0x00002a08                Acceleration_Sensor::init()
                0x00002a2e                Light_Sensor::init()
                0x00002a50                Acceleration_Sensor::getX()
                0x00002a64                Acceleration_Sensor::getY()
                0x00002a78                Acceleration_Sensor::getZ()
                0x00002a8c                Acceleration_Sensor::getValueAsString()
                0x00002ac4                TIMER1_IRQHandler
                0x00002b60                IR_Sensor::isIRCodeReceived()
                0x00002b70                IR_Sensor::getLastIRCode()
                0x00002b80                LED_Display::setLeftDigit(char)
                0x00002b98                LED_Display::setRightDigit(char)
                0x00002bb0                LED_Display::setNumber(char)
                0x00002be6                LED_Display::init()
                0x00002c26                LED::setAll(char)
                0x00002c8c                LED::off(int)
                0x00002c9e                LED::on(int)
                0x00002cb0                Light_Sensor::getLightReading()
                0x00002ce4                Light_Sensor::getValueAsString()
                0x00002d08                Switches::getSwitchValues()
                0x00002d14                Switches::getSwitch(int)
                0x00002d28                Keypad::setCol(int)
                0x00002d54                Keypad::chkRow(int)
                0x00002d98                Keypad::chkRow()
                0x00002dc8                Keypad::getChar()
                0x00002dee                Keypad::getChar(char*)
                0x00002e38                Keypad::getVal()
                0x00002e94                Keypad::getVal(int*)
                0x00002edc                LCD::setup(unsigned int, unsigned int, bool)
                0x00002f4c                LCD::on()
                0x00002f80                LCD::off()
                0x00002fb4                LCD::clear()
                0x00002fe8                LCD::clear(unsigned int)
                0x000030a4                LCD::B_Light(unsigned int)
                0x000030e4                LCD::Contrast(unsigned int)
                0x00003124                LCD::write(char const*, unsigned int)
                0x000031b8                LCD::write(char const*)
                0x00003204                TemperatureSensor::getCelsius()
                0x00003224                TemperatureSensor::getFarenheit()
                0x00003248                TemperatureSensor::getValueAsString()
 .text._ZN19Acceleration_SensorD2Ev
                0x000032b4       0x14 ./L4_IO/src/io_source.o
                0x000032b4                Acceleration_Sensor::~Acceleration_Sensor()
                0x000032b4                Acceleration_Sensor::~Acceleration_Sensor()
 .text._ZN19Acceleration_SensorD0Ev
                0x000032c8       0x1c ./L4_IO/src/io_source.o
                0x000032c8                Acceleration_Sensor::~Acceleration_Sensor()
 .text._ZN9IR_SensorD2Ev
                0x000032e4       0x14 ./L4_IO/src/io_source.o
                0x000032e4                IR_Sensor::~IR_Sensor()
                0x000032e4                IR_Sensor::~IR_Sensor()
 .text._ZN9IR_SensorD0Ev
                0x000032f8       0x1c ./L4_IO/src/io_source.o
                0x000032f8                IR_Sensor::~IR_Sensor()
 .text._ZN11LED_DisplayD2Ev
                0x00003314       0x14 ./L4_IO/src/io_source.o
                0x00003314                LED_Display::~LED_Display()
                0x00003314                LED_Display::~LED_Display()
 .text._ZN11LED_DisplayD0Ev
                0x00003328       0x1c ./L4_IO/src/io_source.o
                0x00003328                LED_Display::~LED_Display()
 .text._ZN3LEDD2Ev
                0x00003344       0x14 ./L4_IO/src/io_source.o
                0x00003344                LED::~LED()
                0x00003344                LED::~LED()
 .text._ZN3LEDD0Ev
                0x00003358       0x1c ./L4_IO/src/io_source.o
                0x00003358                LED::~LED()
 .text._ZN12Light_SensorD2Ev
                0x00003374       0x14 ./L4_IO/src/io_source.o
                0x00003374                Light_Sensor::~Light_Sensor()
                0x00003374                Light_Sensor::~Light_Sensor()
 .text._ZN12Light_SensorD0Ev
                0x00003388       0x1c ./L4_IO/src/io_source.o
                0x00003388                Light_Sensor::~Light_Sensor()
 .text._ZN8SwitchesD2Ev
                0x000033a4       0x14 ./L4_IO/src/io_source.o
                0x000033a4                Switches::~Switches()
                0x000033a4                Switches::~Switches()
 .text._ZN8SwitchesD0Ev
                0x000033b8       0x1c ./L4_IO/src/io_source.o
                0x000033b8                Switches::~Switches()
 .text._ZN17TemperatureSensorD2Ev
                0x000033d4       0x14 ./L4_IO/src/io_source.o
                0x000033d4                TemperatureSensor::~TemperatureSensor()
                0x000033d4                TemperatureSensor::~TemperatureSensor()
 .text._ZN17TemperatureSensorD0Ev
                0x000033e8       0x1c ./L4_IO/src/io_source.o
                0x000033e8                TemperatureSensor::~TemperatureSensor()
 .text._ZN6KeypadD2Ev
                0x00003404       0x14 ./L4_IO/src/io_source.o
                0x00003404                Keypad::~Keypad()
                0x00003404                Keypad::~Keypad()
 .text._ZN6KeypadD0Ev
                0x00003418       0x1c ./L4_IO/src/io_source.o
                0x00003418                Keypad::~Keypad()
 .text._ZN3LCDD2Ev
                0x00003434       0x14 ./L4_IO/src/io_source.o
                0x00003434                LCD::~LCD()
                0x00003434                LCD::~LCD()
 .text._ZN3LCDD0Ev
                0x00003448       0x1c ./L4_IO/src/io_source.o
                0x00003448                LCD::~LCD()
 .text._ZN15I2C_Device_Base8writeRegEhh
                0x00003464       0x14 ./L4_IO/src/io_source.o
                0x00003464                I2C_Device_Base::writeReg(unsigned char, unsigned char)
 .text._ZN15I2C_Device_Base16get16BitRegisterEh
                0x00003478       0x28 ./L4_IO/src/io_source.o
                0x00003478                I2C_Device_Base::get16BitRegister(unsigned char)
 .text.spi1_ExchangeByte
                0x000034a0       0x18 ./L4_IO/src/io_source.o
                0x000034a0                spi1_ExchangeByte
 .text          0x000034b8       0x64 ./L4_IO/fat/option/ccsbcs.o
                0x000034b8                ff_convert
                0x000034f4                ff_wtoupper
 .text          0x0000351c       0x5e ./L4_IO/fat/option/reentrant.o
                0x0000351c                ff_cre_syncobj
                0x0000352e                ff_del_syncobj
                0x00003532                ff_req_grant
                0x0000355c                ff_rel_grant
 *fill*         0x0000357a        0x2 00
 .text          0x0000357c      0x28c ./L4_IO/fat/disk/diskio.o
                0x0000357c                diskio_initializeSPIMutex
                0x00003588                disk_initialize
                0x000035f8                disk_status
                0x00003660                disk_read
                0x000036f0                disk_write
                0x00003780                disk_ioctl
 .text          0x00003808      0x834 ./L4_IO/fat/disk/sd.o
                0x00003808                get_spi
                0x00003818                release_spi
                0x0000383c                wait_ready
                0x0000387c                sd_initializeCardSignals
                0x000038c0                power_on
                0x000038c2                power_off
                0x000038e8                chk_power
                0x000038fc                rcvr_datablock
                0x000039ac                xmit_datablock
                0x00003a24                send_cmd
                0x00003b04                sd_initialize
                0x00003c4c                sd_status
                0x00003c58                sd_read
                0x00003ce4                sd_write
                0x00003d90                sd_ioctl
                0x00003fdc                sd_timerproc
 .text          0x0000403c      0x27c ./L4_IO/fat/disk/spi_flash.o
                0x0000403c                flash_InitializeSignals
                0x000040e4                flash_Initialize
                0x00004194                flash_ReadSector
                0x0000423c                flash_WriteSector
                0x00004286                flash_ioctl
 .text._Z11flashSelectv
                0x000042b8       0x14 ./L4_IO/fat/disk/spi_flash.o
                0x000042b8                flashSelect()
 .text._Z15spiExchangeBytec
                0x000042cc       0x18 ./L4_IO/fat/disk/spi_flash.o
                0x000042cc                spiExchangeByte(char)
 .text          0x000042e4       0x52 ./L4_IO/fat/fatfs_time.o
                0x000042e4                get_fattime
 *fill*         0x00004336        0x2 00
 .text          0x00004338     0x2334 ./L4_IO/fat/ff.o
                0x000048b2                clust2sect
                0x000048c8                get_fat
                0x000049f6                put_fat
                0x0000520c                gen_numname
                0x0000545c                f_mount
                0x000054c0                f_open
                0x00005698                f_read
                0x00005804                f_write
                0x000059ba                f_sync
                0x00005a1c                f_close
                0x00005a7c                f_lseek
                0x00005bae                f_opendir
                0x00005c12                f_readdir
                0x00005c74                f_stat
                0x00005cbc                f_getfree
                0x00005d92                f_truncate
                0x00005e2a                f_unlink
                0x00005eea                f_mkdir
                0x00006046                f_chmod
                0x000060a2                f_utime
                0x000060f4                f_rename
                0x0000620c                f_mkfs
 .text          0x0000666c      0x1cc ./L3_Utils/src/CommandHandler.o
                0x0000666c                CommandProcessor::getRegisteredCommandList(str&)
                0x000066b0                CommandProcessor::getHelpText(str&, str&)
                0x00006720                CommandProcessor::pointToParameters(str&, char const*)
                0x00006744                CommandProcessor::handleCmd(str&, str&)
                0x000067d8                CommandProcessor::handleCommand(char const*)
                0x0000681c                CommandProcessor::addHandler(void (*)(str&, str&, void*, int), char const*, char const*, void*, int)
 .text._ZN6VECTORIN16CommandProcessor16CmdProcessorTypeEE9push_backERKS1_
                0x00006838       0x62 ./L3_Utils/src/CommandHandler.o
                0x00006838                VECTOR<CommandProcessor::CmdProcessorType>::push_back(CommandProcessor::CmdProcessorType const&)
 *fill*         0x0000689a        0x2 00
 .text          0x0000689c      0x1a8 ./L3_Utils/src/logger.o
                0x0000689c                LoggerBase::flush()
                0x000068b2                LoggerBase::log(char const*)
                0x00006900                CSVLogger::logCsvMessage(char const*, char const*, char const*, char const*, int)
                0x000069f0                CSVLogger::logInfo(char const*, char const*, char const*, int)
                0x00006a0c                CSVLogger::logWarning(char const*, char const*, char const*, int)
                0x00006a28                CSVLogger::logError(char const*, char const*, char const*, int)
 .text          0x00006a44      0xb7c ./L3_Utils/src/str.o
                0x00006a44                str::toInt(char const*)
                0x00006a48                str::~str()
                0x00006a48                str::~str()
                0x00006a58                str::getLen() const
                0x00006a5e                str::getCapacity() const
                0x00006a62                str::clear()
                0x00006a6a                str::toLower()
                0x00006a82                str::toUpper()
                0x00006a9a                str::compareTo(char const*) const
                0x00006ab0                str::compareToIgnoreCase(char const*) const
                0x00006ac2                str::getWordIndexIgnoreCase(char const*) const
                0x00006b40                str::containsIgnoreCase(char const*) const
                0x00006b4e                str::firstIndexOf(char const*) const
                0x00006b64                str::contains(char const*) const
                0x00006b72                str::lastIndexOf(char const*) const
                0x00006bac                str::countOf(char const*) const
                0x00006bd8                str::beginsWith(char const*) const
                0x00006c0a                str::beginsWithIgnoreCase(char const*) const
                0x00006c3c                str::beginsWithWholeWord(char const*, char) const
                0x00006c6c                str::beginsWithWholeWordIgnoreCase(char const*, char) const
                0x00006c9c                str::endsWith(char const*) const
                0x00006cce                str::endsWithIgnoreCase(char const*) const
                0x00006d00                str::eraseFirst(int)
                0x00006d32                str::eraseLast(int)
                0x00006d4a                str::eraseAllAfter(int)
                0x00006d64                str::eraseAfter(int, int)
                0x00006da2                str::eraseCharAt(int)
                0x00006da6                str::erase(char const*)
                0x00006dce                str::eraseAllSpecialChars()
                0x00006df6                str::trimStart(char const*)
                0x00006e3e                str::trimEnd(char const*)
                0x00006e7e                str::isAllAlpha() const
                0x00006ea0                str::isAlphaNumeric() const
                0x00006ec2                str::isUint() const
                0x00006ee6                str::isInt() const
                0x00006f16                str::getEncryptedStringLength() const
                0x00006f1a                str::checksum_Get()
                0x00006f38                str::checksum_Remove()
                0x00006f50                str::operator-=(char const*)
                0x00006f52                str::operator==(char const*) const
                0x00006f54                str::operator==(str const&) const
                0x00006f58                str::operator==(int) const
                0x00006f70                str::operator!=(char const*) const
                0x00006f7e                str::operator!=(int) const
                0x00006f90                str::operator<(char const*) const
                0x00006f9c                str::operator<(int) const
                0x00006fb0                str::operator>(char const*) const
                0x00006fc2                str::operator>(int) const
                0x00006fd6                str::operator<=(char const*) const
                0x00006fe8                str::operator<=(int) const
                0x00006ffc                str::operator>=(char const*) const
                0x0000700a                str::operator>=(int) const
                0x0000701e                str::operator()() const
                0x00007022                str::operator int() const
                0x00007028                str::operator[](int)
                0x0000703e                str::reAllocateMem(int)
                0x0000706a                str::ensureMemoryToInsertNChars(int)
                0x0000708a                str::insertAt(int, char const*)
                0x000070e0                str::replaceAll(char const*, char const*)
                0x0000711e                str::replaceLast(char const*, char const*)
                0x00007152                str::replaceFirst(char const*, char const*)
                0x00007186                str::insertAtBeg(char const*)
                0x0000718c                str::insertAtEnd(char const*)
                0x000071ac                str::append(char const*)
                0x000071ae                str::operator+=(char)
                0x000071c4                str::operator+=(char const*)
                0x000071c6                str::appendAsHex(unsigned int)
                0x000071e8                str::checksum_Append()
                0x00007208                str::append(int)
                0x00007228                str::str(int)
                0x00007228                str::str(int)
                0x00007240                str::str()
                0x00007240                str::str()
                0x0000725a                str::reserve(int)
                0x00007264                str::subString(int, int)
                0x000072ca                str::getToken(char const*, bool)
                0x00007312                str::subString(char, char)
                0x00007346                str::subString(char const*, int)
                0x0000735c                str::subString(char, int)
                0x00007372                str::subString(int)
                0x0000738a                str::subString(char const*)
                0x0000739c                str::subString(char)
                0x000073b2                str::printf(char const*, ...)
                0x000073f0                str::copyFrom(char const*)
                0x00007416                str::operator=(int)
                0x00007438                str::operator-=(int)
                0x00007456                str::operator--(int)
                0x0000745a                str::operator--()
                0x0000745e                str::operator+=(int)
                0x0000747c                str::operator++(int)
                0x00007480                str::operator++()
                0x00007484                str::operator=(char const*)
                0x00007486                str::operator=(str const&)
                0x00007498                str::str(str const&)
                0x00007498                str::str(str const&)
                0x000074c4                str::str(char const*)
                0x000074c4                str::str(char const*)
                0x000074f0                str::singleHexCharToInt(unsigned char)
                0x00007510                str::hexStrDigitsToInt(char*)
                0x0000752c                str::checksum_Verify()
                0x00007570                str::encrypt(char const*, int)
                0x000075a2                str::decrypt(char const*)
                0x000075a6                str::encrypt(char const*)
 .text          0x000075c0      0x130 ./L3_Utils/src/timer.o
                0x000075c0                FreeRTOSTimer::FreeRTOSTimer(void (*)(void*), unsigned long, TimerType)
                0x000075c0                FreeRTOSTimer::FreeRTOSTimer(void (*)(void*), unsigned long, TimerType)
                0x000075e4                FreeRTOSTimer::~FreeRTOSTimer()
                0x000075e4                FreeRTOSTimer::~FreeRTOSTimer()
                0x000075fa                FreeRTOSTimer::start()
                0x00007612                FreeRTOSTimer::stop()
                0x00007624                FreeRTOSTimer::reset()
                0x0000763c                FreeRTOSTimer::changePeriod(unsigned long)
                0x0000764e                FreeRTOSTimer::isRunning()
                0x0000765e                FreeRTOSTimer::startFromISR()
                0x00007686                FreeRTOSTimer::stopFromISR()
                0x000076a6                FreeRTOSTimer::resetFromISR()
                0x000076ce                FreeRTOSTimer::changePeriodFromISR(unsigned long)
 .text          0x000076f0       0x78 ./L2_Drivers/src/I2C2.o
                0x000076f0                I2C2::init(unsigned int)
                0x00007730                I2C2::I2C2()
                0x00007730                I2C2::I2C2()
                0x00007744                I2C2_IRQHandler
 .text          0x00007768      0x4bc ./L2_Drivers/src/i2c_base.o
                0x00007768                I2C_Base::I2C_Base(LPC_I2C_TypeDef*)
                0x00007768                I2C_Base::I2C_Base(LPC_I2C_TypeDef*)
                0x000077cc                I2C_Base::init(unsigned int, unsigned int)
                0x00007864                I2C_Base::i2cKickOffTransfer(I2C_Base::mI2cModeType, char, char, char*, int)
                0x00007892                I2C_Base::i2cStateMachine()
                0x00007a46                I2C_Base::writeReg(char, char, char)
                0x00007ae0                I2C_Base::readRegisters(char, char, char*, unsigned int)
                0x00007bc8                I2C_Base::isDevicePresent(char)
                0x00007bdc                I2C_Base::readReg(char, char)
                0x00007bf6                I2C_Base::handleInterrupt()
 .text          0x00007c24       0x7c ./L2_Drivers/src/rtc.o
                0x00007c24                rtc_initialize
                0x00007c40                rtc_gettime
                0x00007c54                rtc_settime
 .text          0x00007ca0     0x13e4 ./L2_Drivers/src/spi1.o
                0x00007ca0                spi1_SetMaxClockMhz
                0x00007cdc                spi1_Init
                0x00007d2c                spi1_Receive256Bytes
                0x0000880c                spi1_Send256Bytes
 .text          0x00009084       0x9c ./L2_Drivers/src/uart0.o
                0x00009084                UART0::init(unsigned int, int, int)
                0x000090c8                UART0::UART0()
                0x000090c8                UART0::UART0()
                0x000090dc                UART0::putcharIntrDriven(char)
                0x000090f2                UART0::getcharIntrDriven(char)
                0x00009110                UART0_IRQHandler
 .text._ZN17SingletonTemplateI5UART0E11getInstanceEv
                0x00009120       0x20 ./L2_Drivers/src/uart0.o
                0x00009120                SingletonTemplate<UART0>::getInstance()
 .text          0x00009140      0x1ac ./L2_Drivers/src/uart_base.o
                0x00009140                UART_Base::getChar(char*, unsigned int)
                0x00009152                UART_Base::putChar(char, unsigned int)
                0x00009198                UART_Base::handleInterrupt()
                0x00009210                UART_Base::UART_Base(unsigned int*)
                0x00009210                UART_Base::UART_Base(unsigned int*)
                0x00009218                UART_Base::init(unsigned int, unsigned int, int, int)
 .text          0x000092ec        0x0 ./L1_FreeRTOS/src/croutine.o
 .text          0x000092ec       0x86 ./L1_FreeRTOS/src/list.o
                0x000092ec                vListInitialise
                0x00009302                vListInitialiseItem
                0x00009308                vListInsertEnd
                0x00009322                vListInsert
                0x00009352                vListRemove
 *fill*         0x00009372        0x2 00
 .text          0x00009374      0x4f0 ./L1_FreeRTOS/src/queue.o
                0x0000945c                xQueueCreate
                0x000094c4                xQueueGenericSend
                0x000095a8                xQueueCreateMutex
                0x000095ee                xQueueGenericSendFromISR
                0x0000963e                xQueueGenericReceive
                0x00009752                xQueueReceiveFromISR
                0x0000979c                uxQueueMessagesWaiting
                0x000097ae                uxQueueMessagesWaitingFromISR
                0x000097b2                vQueueDelete
                0x000097e8                xQueueIsQueueEmptyFromISR
                0x000097f4                xQueueIsQueueFullFromISR
                0x00009806                vQueueAddToRegistry
                0x0000982c                vQueueWaitForMessageRestricted
 .text          0x00009864      0xcf8 ./L1_FreeRTOS/src/tasks.o
                0x00009a1c                xTaskGenericCreate
                0x00009ba4                uxTaskPriorityGet
                0x00009bc0                vTaskPrioritySet
                0x00009c54                xTaskIsTaskSuspended
                0x00009c7c                vTaskResume
                0x00009ce0                xTaskResumeFromISR
                0x00009d44                vTaskStartScheduler
                0x00009d98                vTaskEndScheduler
                0x00009db0                vTaskSuspendAll
                0x00009dc4                xTaskGetTickCount
                0x00009ddc                xTaskGetTickCountFromISR
                0x00009df8                uxTaskGetNumberOfTasks
                0x00009e04                vTaskStartTrace
                0x00009e34                ulTaskEndTrace
                0x00009e58                vTaskIncrementTick
                0x00009f1c                xTaskResumeAll
                0x00009fdc                vTaskGetRunTimeStats
                0x0000a05c                vTaskResetRunTimeStats
                0x0000a0c4                vTaskList
                0x0000a14c                vTaskDelay
                0x0000a180                vTaskDelayUntil
                0x0000a1dc                vTaskSwitchContext
                0x0000a2e0                vTaskSuspend
                0x0000a348                vTaskPlaceOnEventList
                0x0000a384                vTaskPlaceOnEventListRestricted
                0x0000a3ac                xTaskRemoveFromEventList
                0x0000a408                vTaskSetTimeOutState
                0x0000a41c                xTaskCheckForTimeOut
                0x0000a470                vTaskMissedYield
                0x0000a480                xTaskGetCurrentTaskHandle
                0x0000a48c                xTaskGetSchedulerState
                0x0000a4a8                vTaskPriorityInherit
                0x0000a510                vTaskPriorityDisinherit
 .text          0x0000a55c      0x2f0 ./L1_FreeRTOS/src/timers.o
                0x0000a5e4                xTimerCreateTimerTask
                0x0000a618                xTimerCreate
                0x0000a650                xTimerGenericCommand
                0x0000a830                xTimerIsTimerActive
                0x0000a848                pvTimerGetTimerID
 .text          0x0000a84c      0x180 ./L1_FreeRTOS/portable/port.o
                0x0000a84c                pxPortInitialiseStack
                0x0000a862                vPortSVCHandler
                0x0000a884                vPortStartFirstTask
                0x0000a894                xPortStartScheduler
                0x0000a8d0                vPortEndScheduler
                0x0000a8d2                vPortYieldFromISR
                0x0000a8e0                vPortEnterCritical
                0x0000a8f8                vPortExitCritical
                0x0000a910                xPortPendSVHandler
                0x0000a94c                xPortSysTickHandler
                0x0000a970                vConfigureTimerForRunTimeStats
                0x0000a9b4                uxGetTimerForRunTimeStats
                0x0000a9bc                resetRunTimeCounter
 .text          0x0000a9cc       0x34 ./L1_FreeRTOS/hooks/hooks.o
                0x0000a9cc                vApplicationIdleHook
                0x0000a9d0                vApplicationStackOverflowHook
                0x0000a9f0                vApplicationMallocFailedHook
 .text          0x0000aa00       0x38 ./L1_FreeRTOS/MemMang/heap_3.o
                0x0000aa00                pvPortMalloc
                0x0000aa1e                vPortFree
 .text          0x0000aa38       0x86 ./L0_LowLevel/source/core_cm3.o
                0x0000aa38                __get_PSP
                0x0000aa40                __set_PSP
                0x0000aa46                __get_MSP
                0x0000aa4e                __set_MSP
                0x0000aa54                __get_BASEPRI
                0x0000aa5a                __set_BASEPRI
                0x0000aa60                __get_PRIMASK
                0x0000aa66                __set_PRIMASK
                0x0000aa6c                __get_FAULTMASK
                0x0000aa72                __set_FAULTMASK
                0x0000aa78                __get_CONTROL
                0x0000aa7e                __set_CONTROL
                0x0000aa84                __REV
                0x0000aa88                __REV16
                0x0000aa8c                __REVSH
                0x0000aa90                __RBIT
                0x0000aa96                __LDREXB
                0x0000aa9e                __LDREXH
                0x0000aaa6                __LDREXW
                0x0000aaac                __STREXB
                0x0000aab2                __STREXH
                0x0000aab8                __STREXW
 *fill*         0x0000aabe        0x2 00
 .text          0x0000aac0       0x70 ./L0_LowLevel/source/cr_startup_lpc175x.o
                0x0000aac0                HardFault_HandlerC
                0x0000ab24                line()
 .text          0x0000ab30      0x374 ./L0_LowLevel/source/io_functions.o
                0x0000ab30                printMessageUponCriticalSystemError
                0x0000ab44                stdio_SetOutputCharFunction
                0x0000ab50                stdio_SetInputCharFunction
                0x0000ab5c                _read
                0x0000ab74                _write
                0x0000ae6c                printf
                0x0000ae86                sprintf
 .text          0x0000aea4       0x44 ./L0_LowLevel/source/memory.o
                0x0000aea4                operator new(unsigned int)
                0x0000aea8                operator new[](unsigned int)
                0x0000aeac                operator delete(void*)
                0x0000aeb0                operator delete[](void*)
                0x0000aeb4                getMemoryInfo
                0x0000aee0                __aeabi_atexit
                0x0000aee4                __gnu_cxx::__verbose_terminate_handler()
 .text          0x0000aee8      0x1f8 ./L0_LowLevel/source/sys_clock.o
                0x0000aefc                calculatePLLParameters(unsigned int, unsigned int, int*, int*, int*)
                0x0000af80                configureSystemClock()
                0x0000b040                getCpuClock
 .text          0x0000b0e0       0x2c ./L0_LowLevel/source/sys_hooks.o
                0x0000b0e0                _init
                0x0000b0e2                _exit
                0x0000b0e4                _getpid
                0x0000b0e6                _kill
                0x0000b0e8                _lseek
                0x0000b0ea                _isatty
                0x0000b0ec                _fstat
                0x0000b0ee                _close
                0x0000b0f0                _sbrk
 .text          0x0000b10c       0xd4 ./L0_LowLevel/source/system_initialization.o
                0x0000b10c                configureFlashAccelerator(unsigned int)
                0x0000b168                lowLevelInitialize()
 .text          0x0000b1e0       0x9c ./L0_LowLevel/source/uart0_min.o
                0x0000b1e0                uart0Init
                0x0000b23c                uart0Putchar
                0x0000b250                uart0Puts
                0x0000b26a                uart0Getchar
 .text          0x0000b27c        0x0 c:/users/trent smith/desktop/sjsu_dev/yagarto/bin/../lib/gcc/arm-none-eabi/4.6.2/../../../../arm-none-eabi/lib/thumb/v7m\libstdc++.a(guard.o)
 .text.__cxa_guard_acquire
                0x0000b27c       0x38 c:/users/trent smith/desktop/sjsu_dev/yagarto/bin/../lib/gcc/arm-none-eabi/4.6.2/../../../../arm-none-eabi/lib/thumb/v7m\libstdc++.a(guard.o)
                0x0000b27c                __cxa_guard_acquire
 .text.__cxa_guard_abort
                0x0000b2b4        0x8 c:/users/trent smith/desktop/sjsu_dev/yagarto/bin/../lib/gcc/arm-none-eabi/4.6.2/../../../../arm-none-eabi/lib/thumb/v7m\libstdc++.a(guard.o)
                0x0000b2b4                __cxa_guard_abort
 .text.__cxa_guard_release
                0x0000b2bc        0x8 c:/users/trent smith/desktop/sjsu_dev/yagarto/bin/../lib/gcc/arm-none-eabi/4.6.2/../../../../arm-none-eabi/lib/thumb/v7m\libstdc++.a(guard.o)
                0x0000b2bc                __cxa_guard_release
 .text          0x0000b2c4        0x0 c:/users/trent smith/desktop/sjsu_dev/yagarto/bin/../lib/gcc/arm-none-eabi/4.6.2/../../../../arm-none-eabi/lib/thumb/v7m\libstdc++.a(guard_error.o)
 .text._ZN9__gnu_cxx20recursive_init_errorD2Ev
                0x0000b2c4       0x14 c:/users/trent smith/desktop/sjsu_dev/yagarto/bin/../lib/gcc/arm-none-eabi/4.6.2/../../../../arm-none-eabi/lib/thumb/v7m\libstdc++.a(guard_error.o)
                0x0000b2c4                __gnu_cxx::recursive_init_error::~recursive_init_error()
                0x0000b2c4                __gnu_cxx::recursive_init_error::~recursive_init_error()
 .text._ZN9__gnu_cxx20recursive_init_errorD0Ev
                0x0000b2d8       0x1c c:/users/trent smith/desktop/sjsu_dev/yagarto/bin/../lib/gcc/arm-none-eabi/4.6.2/../../../../arm-none-eabi/lib/thumb/v7m\libstdc++.a(guard_error.o)
                0x0000b2d8                __gnu_cxx::recursive_init_error::~recursive_init_error()
 .text          0x0000b2f4        0x0 c:/users/trent smith/desktop/sjsu_dev/yagarto/bin/../lib/gcc/arm-none-eabi/4.6.2/../../../../arm-none-eabi/lib/thumb/v7m\libstdc++.a(pure.o)
 .text.__cxa_pure_virtual
                0x0000b2f4       0x18 c:/users/trent smith/desktop/sjsu_dev/yagarto/bin/../lib/gcc/arm-none-eabi/4.6.2/../../../../arm-none-eabi/lib/thumb/v7m\libstdc++.a(pure.o)
                0x0000b2f4                __cxa_pure_virtual
 .text          0x0000b30c        0x0 c:/users/trent smith/desktop/sjsu_dev/yagarto/bin/../lib/gcc/arm-none-eabi/4.6.2/../../../../arm-none-eabi/lib/thumb/v7m\libstdc++.a(si_class_type_info.o)
 .text._ZN10__cxxabiv120__si_class_type_infoD2Ev
                0x0000b30c       0x14 c:/users/trent smith/desktop/sjsu_dev/yagarto/bin/../lib/gcc/arm-none-eabi/4.6.2/../../../../arm-none-eabi/lib/thumb/v7m\libstdc++.a(si_class_type_info.o)
                0x0000b30c                __cxxabiv1::__si_class_type_info::~__si_class_type_info()
                0x0000b30c                __cxxabiv1::__si_class_type_info::~__si_class_type_info()
 .text._ZN10__cxxabiv120__si_class_type_infoD0Ev
                0x0000b320       0x1c c:/users/trent smith/desktop/sjsu_dev/yagarto/bin/../lib/gcc/arm-none-eabi/4.6.2/../../../../arm-none-eabi/lib/thumb/v7m\libstdc++.a(si_class_type_info.o)
                0x0000b320                __cxxabiv1::__si_class_type_info::~__si_class_type_info()
 .text._ZNK10__cxxabiv120__si_class_type_info11__do_upcastEPKNS_17__class_type_infoEPKvRNS1_15__upcast_resultE
                0x0000b33c       0x28 c:/users/trent smith/desktop/sjsu_dev/yagarto/bin/../lib/gcc/arm-none-eabi/4.6.2/../../../../arm-none-eabi/lib/thumb/v7m\libstdc++.a(si_class_type_info.o)
                0x0000b33c                __cxxabiv1::__si_class_type_info::__do_upcast(__cxxabiv1::__class_type_info const*, void const*, __cxxabiv1::__class_type_info::__upcast_result&) const
 .text._ZNK10__cxxabiv120__si_class_type_info12__do_dyncastEiNS_17__class_type_info10__sub_kindEPKS1_PKvS4_S6_RNS1_16__dyncast_resultE
                0x0000b364       0x88 c:/users/trent smith/desktop/sjsu_dev/yagarto/bin/../lib/gcc/arm-none-eabi/4.6.2/../../../../arm-none-eabi/lib/thumb/v7m\libstdc++.a(si_class_type_info.o)
                0x0000b364                __cxxabiv1::__si_class_type_info::__do_dyncast(int, __cxxabiv1::__class_type_info::__sub_kind, __cxxabiv1::__class_type_info const*, void const*, __cxxabiv1::__class_type_info const*, void const*, __cxxabiv1::__class_type_info::__dyncast_result&) const
 .text._ZNK10__cxxabiv120__si_class_type_info20__do_find_public_srcEiPKvPKNS_17__class_type_infoES2_
                0x0000b3ec       0x38 c:/users/trent smith/desktop/sjsu_dev/yagarto/bin/../lib/gcc/arm-none-eabi/4.6.2/../../../../arm-none-eabi/lib/thumb/v7m\libstdc++.a(si_class_type_info.o)
                0x0000b3ec                __cxxabiv1::__si_class_type_info::__do_find_public_src(int, void const*, __cxxabiv1::__class_type_info const*, void const*) const
 .text          0x0000b424        0x0 c:/users/trent smith/desktop/sjsu_dev/yagarto/bin/../lib/gcc/arm-none-eabi/4.6.2/../../../../arm-none-eabi/lib/thumb/v7m\libstdc++.a(tinfo.o)
 .text._ZNSt9type_infoD2Ev
                0x0000b424        0xc c:/users/trent smith/desktop/sjsu_dev/yagarto/bin/../lib/gcc/arm-none-eabi/4.6.2/../../../../arm-none-eabi/lib/thumb/v7m\libstdc++.a(tinfo.o)
                0x0000b424                std::type_info::~type_info()
                0x0000b424                std::type_info::~type_info()
 .text._ZNKSt9type_info14__is_pointer_pEv
                0x0000b430        0x4 c:/users/trent smith/desktop/sjsu_dev/yagarto/bin/../lib/gcc/arm-none-eabi/4.6.2/../../../../arm-none-eabi/lib/thumb/v7m\libstdc++.a(tinfo.o)
                0x0000b430                std::type_info::__is_pointer_p() const
 .text._ZNKSt9type_info15__is_function_pEv
                0x0000b434        0x4 c:/users/trent smith/desktop/sjsu_dev/yagarto/bin/../lib/gcc/arm-none-eabi/4.6.2/../../../../arm-none-eabi/lib/thumb/v7m\libstdc++.a(tinfo.o)
                0x0000b434                std::type_info::__is_function_p() const
 .text._ZNKSt9type_info11__do_upcastEPKN10__cxxabiv117__class_type_infoEPPv
                0x0000b438        0x4 c:/users/trent smith/desktop/sjsu_dev/yagarto/bin/../lib/gcc/arm-none-eabi/4.6.2/../../../../arm-none-eabi/lib/thumb/v7m\libstdc++.a(tinfo.o)
                0x0000b438                std::type_info::__do_upcast(__cxxabiv1::__class_type_info const*, void**) const
 .text._ZNSt9type_infoD0Ev
                0x0000b43c       0x14 c:/users/trent smith/desktop/sjsu_dev/yagarto/bin/../lib/gcc/arm-none-eabi/4.6.2/../../../../arm-none-eabi/lib/thumb/v7m\libstdc++.a(tinfo.o)
                0x0000b43c                std::type_info::~type_info()
 .text._ZNKSt9type_infoeqERKS_
                0x0000b450       0x38 c:/users/trent smith/desktop/sjsu_dev/yagarto/bin/../lib/gcc/arm-none-eabi/4.6.2/../../../../arm-none-eabi/lib/thumb/v7m\libstdc++.a(tinfo.o)
                0x0000b450                std::type_info::operator==(std::type_info const&) const
 .text._ZNKSt9type_info10__do_catchEPKS_PPvj
                0x0000b488        0x4 c:/users/trent smith/desktop/sjsu_dev/yagarto/bin/../lib/gcc/arm-none-eabi/4.6.2/../../../../arm-none-eabi/lib/thumb/v7m\libstdc++.a(tinfo.o)
                0x0000b488                std::type_info::__do_catch(std::type_info const*, void**, unsigned int) const
 .text          0x0000b48c        0x0 c:/users/trent smith/desktop/sjsu_dev/yagarto/bin/../lib/gcc/arm-none-eabi/4.6.2/../../../../arm-none-eabi/lib/thumb/v7m\libstdc++.a(class_type_info.o)
 .text._ZNK10__cxxabiv117__class_type_info11__do_upcastEPKS0_PPv
                0x0000b48c       0x38 c:/users/trent smith/desktop/sjsu_dev/yagarto/bin/../lib/gcc/arm-none-eabi/4.6.2/../../../../arm-none-eabi/lib/thumb/v7m\libstdc++.a(class_type_info.o)
                0x0000b48c                __cxxabiv1::__class_type_info::__do_upcast(__cxxabiv1::__class_type_info const*, void**) const
 .text._ZNK10__cxxabiv117__class_type_info20__do_find_public_srcEiPKvPKS0_S2_
                0x0000b4c4        0xc c:/users/trent smith/desktop/sjsu_dev/yagarto/bin/../lib/gcc/arm-none-eabi/4.6.2/../../../../arm-none-eabi/lib/thumb/v7m\libstdc++.a(class_type_info.o)
                0x0000b4c4                __cxxabiv1::__class_type_info::__do_find_public_src(int, void const*, __cxxabiv1::__class_type_info const*, void const*) const
 .text._ZNK10__cxxabiv117__class_type_info11__do_upcastEPKS0_PKvRNS0_15__upcast_resultE
                0x0000b4d0       0x1c c:/users/trent smith/desktop/sjsu_dev/yagarto/bin/../lib/gcc/arm-none-eabi/4.6.2/../../../../arm-none-eabi/lib/thumb/v7m\libstdc++.a(class_type_info.o)
                0x0000b4d0                __cxxabiv1::__class_type_info::__do_upcast(__cxxabiv1::__class_type_info const*, void const*, __cxxabiv1::__class_type_info::__upcast_result&) const
 .text._ZN10__cxxabiv117__class_type_infoD2Ev
                0x0000b4ec       0x14 c:/users/trent smith/desktop/sjsu_dev/yagarto/bin/../lib/gcc/arm-none-eabi/4.6.2/../../../../arm-none-eabi/lib/thumb/v7m\libstdc++.a(class_type_info.o)
                0x0000b4ec                __cxxabiv1::__class_type_info::~__class_type_info()
                0x0000b4ec                __cxxabiv1::__class_type_info::~__class_type_info()
 .text._ZN10__cxxabiv117__class_type_infoD0Ev
                0x0000b500       0x1c c:/users/trent smith/desktop/sjsu_dev/yagarto/bin/../lib/gcc/arm-none-eabi/4.6.2/../../../../arm-none-eabi/lib/thumb/v7m\libstdc++.a(class_type_info.o)
                0x0000b500                __cxxabiv1::__class_type_info::~__class_type_info()
 .text._ZNK10__cxxabiv117__class_type_info12__do_dyncastEiNS0_10__sub_kindEPKS0_PKvS3_S5_RNS0_16__dyncast_resultE
                0x0000b51c       0x3c c:/users/trent smith/desktop/sjsu_dev/yagarto/bin/../lib/gcc/arm-none-eabi/4.6.2/../../../../arm-none-eabi/lib/thumb/v7m\libstdc++.a(class_type_info.o)
                0x0000b51c                __cxxabiv1::__class_type_info::__do_dyncast(int, __cxxabiv1::__class_type_info::__sub_kind, __cxxabiv1::__class_type_info const*, void const*, __cxxabiv1::__class_type_info const*, void const*, __cxxabiv1::__class_type_info::__dyncast_result&) const
 .text._ZNK10__cxxabiv117__class_type_info10__do_catchEPKSt9type_infoPPvj
                0x0000b558       0x28 c:/users/trent smith/desktop/sjsu_dev/yagarto/bin/../lib/gcc/arm-none-eabi/4.6.2/../../../../arm-none-eabi/lib/thumb/v7m\libstdc++.a(class_type_info.o)
                0x0000b558                __cxxabiv1::__class_type_info::__do_catch(std::type_info const*, void**, unsigned int) const
 .text          0x0000b580        0x0 c:/users/trent smith/desktop/sjsu_dev/yagarto/bin/../lib/gcc/arm-none-eabi/4.6.2/../../../../arm-none-eabi/lib/thumb/v7m\libstdc++.a(eh_alloc.o)
 .text.__cxa_allocate_exception
                0x0000b580       0x64 c:/users/trent smith/desktop/sjsu_dev/yagarto/bin/../lib/gcc/arm-none-eabi/4.6.2/../../../../arm-none-eabi/lib/thumb/v7m\libstdc++.a(eh_alloc.o)
                0x0000b580                __cxa_allocate_exception
 .text.__cxa_free_exception
                0x0000b5e4       0x34 c:/users/trent smith/desktop/sjsu_dev/yagarto/bin/../lib/gcc/arm-none-eabi/4.6.2/../../../../arm-none-eabi/lib/thumb/v7m\libstdc++.a(eh_alloc.o)
                0x0000b5e4                __cxa_free_exception
 .text.__cxa_allocate_dependent_exception
                0x0000b618       0x58 c:/users/trent smith/desktop/sjsu_dev/yagarto/bin/../lib/gcc/arm-none-eabi/4.6.2/../../../../arm-none-eabi/lib/thumb/v7m\libstdc++.a(eh_alloc.o)
                0x0000b618                __cxa_allocate_dependent_exception
 .text.__cxa_free_dependent_exception
                0x0000b670       0x44 c:/users/trent smith/desktop/sjsu_dev/yagarto/bin/../lib/gcc/arm-none-eabi/4.6.2/../../../../arm-none-eabi/lib/thumb/v7m\libstdc++.a(eh_alloc.o)
                0x0000b670                __cxa_free_dependent_exception
 .text          0x0000b6b4        0x0 c:/users/trent smith/desktop/sjsu_dev/yagarto/bin/../lib/gcc/arm-none-eabi/4.6.2/../../../../arm-none-eabi/lib/thumb/v7m\libstdc++.a(eh_exception.o)
 .text._ZNSt9exceptionD2Ev
                0x0000b6b4        0xc c:/users/trent smith/desktop/sjsu_dev/yagarto/bin/../lib/gcc/arm-none-eabi/4.6.2/../../../../arm-none-eabi/lib/thumb/v7m\libstdc++.a(eh_exception.o)
                0x0000b6b4                std::exception::~exception()
                0x0000b6b4                std::exception::~exception()
 .text._ZNSt13bad_exceptionD2Ev
                0x0000b6c0        0xc c:/users/trent smith/desktop/sjsu_dev/yagarto/bin/../lib/gcc/arm-none-eabi/4.6.2/../../../../arm-none-eabi/lib/thumb/v7m\libstdc++.a(eh_exception.o)
                0x0000b6c0                std::bad_exception::~bad_exception()
                0x0000b6c0                std::bad_exception::~bad_exception()
 .text._ZN10__cxxabiv115__forced_unwindD2Ev
                0x0000b6cc        0xc c:/users/trent smith/desktop/sjsu_dev/yagarto/bin/../lib/gcc/arm-none-eabi/4.6.2/../../../../arm-none-eabi/lib/thumb/v7m\libstdc++.a(eh_exception.o)
                0x0000b6cc                __cxxabiv1::__forced_unwind::~__forced_unwind()
                0x0000b6cc                __cxxabiv1::__forced_unwind::~__forced_unwind()
 .text._ZN10__cxxabiv119__foreign_exceptionD2Ev
                0x0000b6d8        0xc c:/users/trent smith/desktop/sjsu_dev/yagarto/bin/../lib/gcc/arm-none-eabi/4.6.2/../../../../arm-none-eabi/lib/thumb/v7m\libstdc++.a(eh_exception.o)
                0x0000b6d8                __cxxabiv1::__foreign_exception::~__foreign_exception()
                0x0000b6d8                __cxxabiv1::__foreign_exception::~__foreign_exception()
 .text._ZNKSt9exception4whatEv
                0x0000b6e4        0xc c:/users/trent smith/desktop/sjsu_dev/yagarto/bin/../lib/gcc/arm-none-eabi/4.6.2/../../../../arm-none-eabi/lib/thumb/v7m\libstdc++.a(eh_exception.o)
                0x0000b6e4                std::exception::what() const
 .text._ZNKSt13bad_exception4whatEv
                0x0000b6f0        0xc c:/users/trent smith/desktop/sjsu_dev/yagarto/bin/../lib/gcc/arm-none-eabi/4.6.2/../../../../arm-none-eabi/lib/thumb/v7m\libstdc++.a(eh_exception.o)
                0x0000b6f0                std::bad_exception::what() const
 .text._ZN10__cxxabiv119__foreign_exceptionD0Ev
                0x0000b6fc       0x14 c:/users/trent smith/desktop/sjsu_dev/yagarto/bin/../lib/gcc/arm-none-eabi/4.6.2/../../../../arm-none-eabi/lib/thumb/v7m\libstdc++.a(eh_exception.o)
                0x0000b6fc                __cxxabiv1::__foreign_exception::~__foreign_exception()
 .text._ZN10__cxxabiv115__forced_unwindD0Ev
                0x0000b710       0x14 c:/users/trent smith/desktop/sjsu_dev/yagarto/bin/../lib/gcc/arm-none-eabi/4.6.2/../../../../arm-none-eabi/lib/thumb/v7m\libstdc++.a(eh_exception.o)
                0x0000b710                __cxxabiv1::__forced_unwind::~__forced_unwind()
 .text._ZNSt13bad_exceptionD0Ev
                0x0000b724       0x14 c:/users/trent smith/desktop/sjsu_dev/yagarto/bin/../lib/gcc/arm-none-eabi/4.6.2/../../../../arm-none-eabi/lib/thumb/v7m\libstdc++.a(eh_exception.o)
                0x0000b724                std::bad_exception::~bad_exception()
 .text._ZNSt9exceptionD0Ev
                0x0000b738       0x14 c:/users/trent smith/desktop/sjsu_dev/yagarto/bin/../lib/gcc/arm-none-eabi/4.6.2/../../../../arm-none-eabi/lib/thumb/v7m\libstdc++.a(eh_exception.o)
                0x0000b738                std::exception::~exception()
 .text          0x0000b74c        0x0 c:/users/trent smith/desktop/sjsu_dev/yagarto/bin/../lib/gcc/arm-none-eabi/4.6.2/../../../../arm-none-eabi/lib/thumb/v7m\libstdc++.a(eh_globals.o)
 .text.__cxa_get_globals_fast
                0x0000b74c        0xc c:/users/trent smith/desktop/sjsu_dev/yagarto/bin/../lib/gcc/arm-none-eabi/4.6.2/../../../../arm-none-eabi/lib/thumb/v7m\libstdc++.a(eh_globals.o)
                0x0000b74c                __cxa_get_globals_fast
 .text.__cxa_get_globals
                0x0000b758        0xc c:/users/trent smith/desktop/sjsu_dev/yagarto/bin/../lib/gcc/arm-none-eabi/4.6.2/../../../../arm-none-eabi/lib/thumb/v7m\libstdc++.a(eh_globals.o)
                0x0000b758                __cxa_get_globals
 .text          0x0000b764        0x0 c:/users/trent smith/desktop/sjsu_dev/yagarto/bin/../lib/gcc/arm-none-eabi/4.6.2/../../../../arm-none-eabi/lib/thumb/v7m\libstdc++.a(eh_terminate.o)
 .text._ZN10__cxxabiv111__terminateEPFvvE
                0x0000b764       0x28 c:/users/trent smith/desktop/sjsu_dev/yagarto/bin/../lib/gcc/arm-none-eabi/4.6.2/../../../../arm-none-eabi/lib/thumb/v7m\libstdc++.a(eh_terminate.o)
                0x0000b764                __cxxabiv1::__terminate(void (*)())
 .text._ZSt9terminatev
                0x0000b78c       0x10 c:/users/trent smith/desktop/sjsu_dev/yagarto/bin/../lib/gcc/arm-none-eabi/4.6.2/../../../../arm-none-eabi/lib/thumb/v7m\libstdc++.a(eh_terminate.o)
                0x0000b78c                std::terminate()
 .text._ZN10__cxxabiv112__unexpectedEPFvvE
                0x0000b79c        0x8 c:/users/trent smith/desktop/sjsu_dev/yagarto/bin/../lib/gcc/arm-none-eabi/4.6.2/../../../../arm-none-eabi/lib/thumb/v7m\libstdc++.a(eh_terminate.o)
                0x0000b79c                __cxxabiv1::__unexpected(void (*)())
 .text._ZSt10unexpectedv
                0x0000b7a4       0x14 c:/users/trent smith/desktop/sjsu_dev/yagarto/bin/../lib/gcc/arm-none-eabi/4.6.2/../../../../arm-none-eabi/lib/thumb/v7m\libstdc++.a(eh_terminate.o)
                0x0000b7a4                std::unexpected()
 .text._ZSt13set_terminatePFvvE
                0x0000b7b8       0x10 c:/users/trent smith/desktop/sjsu_dev/yagarto/bin/../lib/gcc/arm-none-eabi/4.6.2/../../../../arm-none-eabi/lib/thumb/v7m\libstdc++.a(eh_terminate.o)
                0x0000b7b8                std::set_terminate(void (*)())
 .text._ZSt14set_unexpectedPFvvE
                0x0000b7c8       0x10 c:/users/trent smith/desktop/sjsu_dev/yagarto/bin/../lib/gcc/arm-none-eabi/4.6.2/../../../../arm-none-eabi/lib/thumb/v7m\libstdc++.a(eh_terminate.o)
                0x0000b7c8                std::set_unexpected(void (*)())
 .text          0x0000b7d8        0x0 c:/users/trent smith/desktop/sjsu_dev/yagarto/bin/../lib/gcc/arm-none-eabi/4.6.2/../../../../arm-none-eabi/lib/thumb/v7m\libstdc++.a(eh_term_handler.o)
 .text          0x0000b7d8        0x0 c:/users/trent smith/desktop/sjsu_dev/yagarto/bin/../lib/gcc/arm-none-eabi/4.6.2/../../../../arm-none-eabi/lib/thumb/v7m\libstdc++.a(eh_throw.o)
 .text._ZL23__gxx_exception_cleanup19_Unwind_Reason_CodeP21_Unwind_Control_Block
                0x0000b7d8       0x4c c:/users/trent smith/desktop/sjsu_dev/yagarto/bin/../lib/gcc/arm-none-eabi/4.6.2/../../../../arm-none-eabi/lib/thumb/v7m\libstdc++.a(eh_throw.o)
 .text.__cxa_throw
                0x0000b824       0x78 c:/users/trent smith/desktop/sjsu_dev/yagarto/bin/../lib/gcc/arm-none-eabi/4.6.2/../../../../arm-none-eabi/lib/thumb/v7m\libstdc++.a(eh_throw.o)
                0x0000b824                __cxa_throw
 .text.__cxa_rethrow
                0x0000b89c       0x70 c:/users/trent smith/desktop/sjsu_dev/yagarto/bin/../lib/gcc/arm-none-eabi/4.6.2/../../../../arm-none-eabi/lib/thumb/v7m\libstdc++.a(eh_throw.o)
                0x0000b89c                __cxa_rethrow
 .text          0x0000b90c        0x0 c:/users/trent smith/desktop/sjsu_dev/yagarto/bin/../lib/gcc/arm-none-eabi/4.6.2/../../../../arm-none-eabi/lib/thumb/v7m\libstdc++.a(eh_unex_handler.o)
 .text          0x0000b90c        0x0 c:/users/trent smith/desktop/sjsu_dev/yagarto/bin/../lib/gcc/arm-none-eabi/4.6.2/../../../../arm-none-eabi/lib/thumb/v7m\libstdc++.a(eh_arm.o)
 .text.__cxa_end_cleanup
                0x0000b90c        0xc c:/users/trent smith/desktop/sjsu_dev/yagarto/bin/../lib/gcc/arm-none-eabi/4.6.2/../../../../arm-none-eabi/lib/thumb/v7m\libstdc++.a(eh_arm.o)
                0x0000b90c                __cxa_end_cleanup
 .text.__cxa_type_match
                0x0000b918       0xe4 c:/users/trent smith/desktop/sjsu_dev/yagarto/bin/../lib/gcc/arm-none-eabi/4.6.2/../../../../arm-none-eabi/lib/thumb/v7m\libstdc++.a(eh_arm.o)
                0x0000b918                __cxa_type_match
 .text.__cxa_begin_cleanup
                0x0000b9fc       0x68 c:/users/trent smith/desktop/sjsu_dev/yagarto/bin/../lib/gcc/arm-none-eabi/4.6.2/../../../../arm-none-eabi/lib/thumb/v7m\libstdc++.a(eh_arm.o)
                0x0000b9fc                __cxa_begin_cleanup
 .text.__gnu_end_cleanup
                0x0000ba64       0x74 c:/users/trent smith/desktop/sjsu_dev/yagarto/bin/../lib/gcc/arm-none-eabi/4.6.2/../../../../arm-none-eabi/lib/thumb/v7m\libstdc++.a(eh_arm.o)
                0x0000ba64                __gnu_end_cleanup
 .text          0x0000bad8        0x0 c:/users/trent smith/desktop/sjsu_dev/yagarto/bin/../lib/gcc/arm-none-eabi/4.6.2/../../../../arm-none-eabi/lib/thumb/v7m\libstdc++.a(eh_aux_runtime.o)
 .text.__cxa_bad_cast
                0x0000bad8       0x24 c:/users/trent smith/desktop/sjsu_dev/yagarto/bin/../lib/gcc/arm-none-eabi/4.6.2/../../../../arm-none-eabi/lib/thumb/v7m\libstdc++.a(eh_aux_runtime.o)
                0x0000bad8                __cxa_bad_cast
 .text.__cxa_bad_typeid
                0x0000bafc       0x24 c:/users/trent smith/desktop/sjsu_dev/yagarto/bin/../lib/gcc/arm-none-eabi/4.6.2/../../../../arm-none-eabi/lib/thumb/v7m\libstdc++.a(eh_aux_runtime.o)
                0x0000bafc                __cxa_bad_typeid
 .text          0x0000bb20        0x0 c:/users/trent smith/desktop/sjsu_dev/yagarto/bin/../lib/gcc/arm-none-eabi/4.6.2/../../../../arm-none-eabi/lib/thumb/v7m\libstdc++.a(eh_call.o)
 .text.__cxa_call_terminate
                0x0000bb20       0x48 c:/users/trent smith/desktop/sjsu_dev/yagarto/bin/../lib/gcc/arm-none-eabi/4.6.2/../../../../arm-none-eabi/lib/thumb/v7m\libstdc++.a(eh_call.o)
                0x0000bb20                __cxa_call_terminate
 .text.__cxa_call_unexpected
                0x0000bb68      0x11c c:/users/trent smith/desktop/sjsu_dev/yagarto/bin/../lib/gcc/arm-none-eabi/4.6.2/../../../../arm-none-eabi/lib/thumb/v7m\libstdc++.a(eh_call.o)
                0x0000bb68                __cxa_call_unexpected
 .text          0x0000bc84        0x0 c:/users/trent smith/desktop/sjsu_dev/yagarto/bin/../lib/gcc/arm-none-eabi/4.6.2/../../../../arm-none-eabi/lib/thumb/v7m\libstdc++.a(eh_catch.o)
 .text.__cxa_get_exception_ptr
                0x0000bc84        0x4 c:/users/trent smith/desktop/sjsu_dev/yagarto/bin/../lib/gcc/arm-none-eabi/4.6.2/../../../../arm-none-eabi/lib/thumb/v7m\libstdc++.a(eh_catch.o)
                0x0000bc84                __cxa_get_exception_ptr
 .text.__cxa_begin_catch
                0x0000bc88       0x88 c:/users/trent smith/desktop/sjsu_dev/yagarto/bin/../lib/gcc/arm-none-eabi/4.6.2/../../../../arm-none-eabi/lib/thumb/v7m\libstdc++.a(eh_catch.o)
                0x0000bc88                __cxa_begin_catch
 .text.__cxa_end_catch
                0x0000bd10       0x90 c:/users/trent smith/desktop/sjsu_dev/yagarto/bin/../lib/gcc/arm-none-eabi/4.6.2/../../../../arm-none-eabi/lib/thumb/v7m\libstdc++.a(eh_catch.o)
                0x0000bd10                __cxa_end_catch
 .text._ZSt18uncaught_exceptionv
                0x0000bda0       0x10 c:/users/trent smith/desktop/sjsu_dev/yagarto/bin/../lib/gcc/arm-none-eabi/4.6.2/../../../../arm-none-eabi/lib/thumb/v7m\libstdc++.a(eh_catch.o)
                0x0000bda0                std::uncaught_exception()
 .text          0x0000bdb0        0x0 c:/users/trent smith/desktop/sjsu_dev/yagarto/bin/../lib/gcc/arm-none-eabi/4.6.2/../../../../arm-none-eabi/lib/thumb/v7m\libstdc++.a(eh_personality.o)
 .text._ZL12read_sleb128PKhPl
                0x0000bdb0       0x3c c:/users/trent smith/desktop/sjsu_dev/yagarto/bin/../lib/gcc/arm-none-eabi/4.6.2/../../../../arm-none-eabi/lib/thumb/v7m\libstdc++.a(eh_personality.o)
 .text._ZL28read_encoded_value_with_basehjPKhPj
                0x0000bdec       0xc0 c:/users/trent smith/desktop/sjsu_dev/yagarto/bin/../lib/gcc/arm-none-eabi/4.6.2/../../../../arm-none-eabi/lib/thumb/v7m\libstdc++.a(eh_personality.o)
 .text._ZL21base_of_encoded_valuehP15_Unwind_Context
                0x0000beac       0x4c c:/users/trent smith/desktop/sjsu_dev/yagarto/bin/../lib/gcc/arm-none-eabi/4.6.2/../../../../arm-none-eabi/lib/thumb/v7m\libstdc++.a(eh_personality.o)
 .text._ZL17parse_lsda_headerP15_Unwind_ContextPKhP16lsda_header_info.constprop.1
                0x0000bef8       0x8c c:/users/trent smith/desktop/sjsu_dev/yagarto/bin/../lib/gcc/arm-none-eabi/4.6.2/../../../../arm-none-eabi/lib/thumb/v7m\libstdc++.a(eh_personality.o)
 .text.__gxx_personality_v0
                0x0000bf84      0x3a8 c:/users/trent smith/desktop/sjsu_dev/yagarto/bin/../lib/gcc/arm-none-eabi/4.6.2/../../../../arm-none-eabi/lib/thumb/v7m\libstdc++.a(eh_personality.o)
                0x0000bf84                __gxx_personality_v0
 .text          0x0000c32c        0x0 c:/users/trent smith/desktop/sjsu_dev/yagarto/bin/../lib/gcc/arm-none-eabi/4.6.2/../../../../arm-none-eabi/lib/thumb/v7m\libstdc++.a(fundamental_type_info.o)
 .text._ZN10__cxxabiv123__fundamental_type_infoD2Ev
                0x0000c32c       0x14 c:/users/trent smith/desktop/sjsu_dev/yagarto/bin/../lib/gcc/arm-none-eabi/4.6.2/../../../../arm-none-eabi/lib/thumb/v7m\libstdc++.a(fundamental_type_info.o)
                0x0000c32c                __cxxabiv1::__fundamental_type_info::~__fundamental_type_info()
                0x0000c32c                __cxxabiv1::__fundamental_type_info::~__fundamental_type_info()
 .text._ZN10__cxxabiv123__fundamental_type_infoD0Ev
                0x0000c340       0x1c c:/users/trent smith/desktop/sjsu_dev/yagarto/bin/../lib/gcc/arm-none-eabi/4.6.2/../../../../arm-none-eabi/lib/thumb/v7m\libstdc++.a(fundamental_type_info.o)
                0x0000c340                __cxxabiv1::__fundamental_type_info::~__fundamental_type_info()
 .text          0x0000c35c        0x0 c:/users/trent smith/desktop/sjsu_dev/yagarto/bin/../lib/gcc/arm-none-eabi/4.6.2/../../../../arm-none-eabi/lib/thumb/v7m\libstdc++.a(pointer_type_info.o)
 .text._ZNK10__cxxabiv119__pointer_type_info14__is_pointer_pEv
                0x0000c35c        0x4 c:/users/trent smith/desktop/sjsu_dev/yagarto/bin/../lib/gcc/arm-none-eabi/4.6.2/../../../../arm-none-eabi/lib/thumb/v7m\libstdc++.a(pointer_type_info.o)
                0x0000c35c                __cxxabiv1::__pointer_type_info::__is_pointer_p() const
 .text._ZN10__cxxabiv119__pointer_type_infoD2Ev
                0x0000c360       0x14 c:/users/trent smith/desktop/sjsu_dev/yagarto/bin/../lib/gcc/arm-none-eabi/4.6.2/../../../../arm-none-eabi/lib/thumb/v7m\libstdc++.a(pointer_type_info.o)
                0x0000c360                __cxxabiv1::__pointer_type_info::~__pointer_type_info()
                0x0000c360                __cxxabiv1::__pointer_type_info::~__pointer_type_info()
 .text._ZN10__cxxabiv119__pointer_type_infoD0Ev
                0x0000c374       0x1c c:/users/trent smith/desktop/sjsu_dev/yagarto/bin/../lib/gcc/arm-none-eabi/4.6.2/../../../../arm-none-eabi/lib/thumb/v7m\libstdc++.a(pointer_type_info.o)
                0x0000c374                __cxxabiv1::__pointer_type_info::~__pointer_type_info()
 .text._ZNK10__cxxabiv119__pointer_type_info15__pointer_catchEPKNS_17__pbase_type_infoEPPvj
                0x0000c390       0x48 c:/users/trent smith/desktop/sjsu_dev/yagarto/bin/../lib/gcc/arm-none-eabi/4.6.2/../../../../arm-none-eabi/lib/thumb/v7m\libstdc++.a(pointer_type_info.o)
                0x0000c390                __cxxabiv1::__pointer_type_info::__pointer_catch(__cxxabiv1::__pbase_type_info const*, void**, unsigned int) const
 .text          0x0000c3d8        0x0 c:/users/trent smith/desktop/sjsu_dev/yagarto/bin/../lib/gcc/arm-none-eabi/4.6.2/../../../../arm-none-eabi/lib/thumb/v7m\libstdc++.a(bad_cast.o)
 .text._ZNKSt8bad_cast4whatEv
                0x0000c3d8        0xc c:/users/trent smith/desktop/sjsu_dev/yagarto/bin/../lib/gcc/arm-none-eabi/4.6.2/../../../../arm-none-eabi/lib/thumb/v7m\libstdc++.a(bad_cast.o)
                0x0000c3d8                std::bad_cast::what() const
 .text._ZNSt8bad_castD2Ev
                0x0000c3e4       0x14 c:/users/trent smith/desktop/sjsu_dev/yagarto/bin/../lib/gcc/arm-none-eabi/4.6.2/../../../../arm-none-eabi/lib/thumb/v7m\libstdc++.a(bad_cast.o)
                0x0000c3e4                std::bad_cast::~bad_cast()
                0x0000c3e4                std::bad_cast::~bad_cast()
 .text._ZNSt8bad_castD0Ev
                0x0000c3f8       0x1c c:/users/trent smith/desktop/sjsu_dev/yagarto/bin/../lib/gcc/arm-none-eabi/4.6.2/../../../../arm-none-eabi/lib/thumb/v7m\libstdc++.a(bad_cast.o)
                0x0000c3f8                std::bad_cast::~bad_cast()
 .text          0x0000c414        0x0 c:/users/trent smith/desktop/sjsu_dev/yagarto/bin/../lib/gcc/arm-none-eabi/4.6.2/../../../../arm-none-eabi/lib/thumb/v7m\libstdc++.a(bad_typeid.o)
 .text._ZNKSt10bad_typeid4whatEv
                0x0000c414        0xc c:/users/trent smith/desktop/sjsu_dev/yagarto/bin/../lib/gcc/arm-none-eabi/4.6.2/../../../../arm-none-eabi/lib/thumb/v7m\libstdc++.a(bad_typeid.o)
                0x0000c414                std::bad_typeid::what() const
 .text._ZNSt10bad_typeidD2Ev
                0x0000c420       0x14 c:/users/trent smith/desktop/sjsu_dev/yagarto/bin/../lib/gcc/arm-none-eabi/4.6.2/../../../../arm-none-eabi/lib/thumb/v7m\libstdc++.a(bad_typeid.o)
                0x0000c420                std::bad_typeid::~bad_typeid()
                0x0000c420                std::bad_typeid::~bad_typeid()
 .text._ZNSt10bad_typeidD0Ev
                0x0000c434       0x1c c:/users/trent smith/desktop/sjsu_dev/yagarto/bin/../lib/gcc/arm-none-eabi/4.6.2/../../../../arm-none-eabi/lib/thumb/v7m\libstdc++.a(bad_typeid.o)
                0x0000c434                std::bad_typeid::~bad_typeid()
 .text          0x0000c450        0x0 c:/users/trent smith/desktop/sjsu_dev/yagarto/bin/../lib/gcc/arm-none-eabi/4.6.2/../../../../arm-none-eabi/lib/thumb/v7m\libstdc++.a(pbase_type_info.o)
 .text._ZNK10__cxxabiv117__pbase_type_info15__pointer_catchEPKS0_PPvj
                0x0000c450       0x14 c:/users/trent smith/desktop/sjsu_dev/yagarto/bin/../lib/gcc/arm-none-eabi/4.6.2/../../../../arm-none-eabi/lib/thumb/v7m\libstdc++.a(pbase_type_info.o)
                0x0000c450                __cxxabiv1::__pbase_type_info::__pointer_catch(__cxxabiv1::__pbase_type_info const*, void**, unsigned int) const
 .text._ZN10__cxxabiv117__pbase_type_infoD2Ev
                0x0000c464       0x14 c:/users/trent smith/desktop/sjsu_dev/yagarto/bin/../lib/gcc/arm-none-eabi/4.6.2/../../../../arm-none-eabi/lib/thumb/v7m\libstdc++.a(pbase_type_info.o)
                0x0000c464                __cxxabiv1::__pbase_type_info::~__pbase_type_info()
                0x0000c464                __cxxabiv1::__pbase_type_info::~__pbase_type_info()
 .text._ZN10__cxxabiv117__pbase_type_infoD0Ev
                0x0000c478       0x1c c:/users/trent smith/desktop/sjsu_dev/yagarto/bin/../lib/gcc/arm-none-eabi/4.6.2/../../../../arm-none-eabi/lib/thumb/v7m\libstdc++.a(pbase_type_info.o)
                0x0000c478                __cxxabiv1::__pbase_type_info::~__pbase_type_info()
 .text._ZNK10__cxxabiv117__pbase_type_info10__do_catchEPKSt9type_infoPPvj
                0x0000c494       0x6c c:/users/trent smith/desktop/sjsu_dev/yagarto/bin/../lib/gcc/arm-none-eabi/4.6.2/../../../../arm-none-eabi/lib/thumb/v7m\libstdc++.a(pbase_type_info.o)
                0x0000c494                __cxxabiv1::__pbase_type_info::__do_catch(std::type_info const*, void**, unsigned int) const
 .text          0x0000c500      0x370 c:/users/trent smith/desktop/sjsu_dev/yagarto/bin/../lib/gcc/arm-none-eabi/4.6.2/thumb/v7m\libgcc.a(_arm_addsubdf3.o)
                0x0000c500                __aeabi_drsub
                0x0000c508                __aeabi_dsub
                0x0000c508                __subdf3
                0x0000c50c                __aeabi_dadd
                0x0000c50c                __adddf3
                0x0000c784                __floatunsidf
                0x0000c784                __aeabi_ui2d
                0x0000c7a4                __floatsidf
                0x0000c7a4                __aeabi_i2d
                0x0000c7c8                __aeabi_f2d
                0x0000c7c8                __extendsfdf2
                0x0000c804                __floatundidf
                0x0000c804                __aeabi_ul2d
                0x0000c814                __floatdidf
                0x0000c814                __aeabi_l2d
 .text          0x0000c870       0x50 c:/users/trent smith/desktop/sjsu_dev/yagarto/bin/../lib/gcc/arm-none-eabi/4.6.2/thumb/v7m\libgcc.a(_arm_fixdfsi.o)
                0x0000c870                __aeabi_d2iz
                0x0000c870                __fixdfsi
 .text          0x0000c8c0       0x40 c:/users/trent smith/desktop/sjsu_dev/yagarto/bin/../lib/gcc/arm-none-eabi/4.6.2/thumb/v7m\libgcc.a(_arm_fixunsdfsi.o)
                0x0000c8c0                __aeabi_d2uiz
                0x0000c8c0                __fixunsdfsi
 .text          0x0000c900      0x21c c:/users/trent smith/desktop/sjsu_dev/yagarto/bin/../lib/gcc/arm-none-eabi/4.6.2/thumb/v7m\libgcc.a(_arm_addsubsf3.o)
                0x0000c900                __aeabi_frsub
                0x0000c908                __subsf3
                0x0000c908                __aeabi_fsub
                0x0000c90c                __aeabi_fadd
                0x0000c90c                __addsf3
                0x0000ca6c                __aeabi_ui2f
                0x0000ca6c                __floatunsisf
                0x0000ca74                __aeabi_i2f
                0x0000ca74                __floatsisf
                0x0000ca90                __aeabi_ul2f
                0x0000ca90                __floatundisf
                0x0000caa0                __aeabi_l2f
                0x0000caa0                __floatdisf
 .text          0x0000cb1c      0x2a0 c:/users/trent smith/desktop/sjsu_dev/yagarto/bin/../lib/gcc/arm-none-eabi/4.6.2/thumb/v7m\libgcc.a(_arm_muldivsf3.o)
                0x0000cb1c                __mulsf3
                0x0000cb1c                __aeabi_fmul
                0x0000cc84                __aeabi_fdiv
                0x0000cc84                __divsf3
 .text          0x0000cdbc       0x4c c:/users/trent smith/desktop/sjsu_dev/yagarto/bin/../lib/gcc/arm-none-eabi/4.6.2/thumb/v7m\libgcc.a(_arm_fixsfsi.o)
                0x0000cdbc                __aeabi_f2iz
                0x0000cdbc                __fixsfsi
 .text          0x0000ce08       0x40 c:/users/trent smith/desktop/sjsu_dev/yagarto/bin/../lib/gcc/arm-none-eabi/4.6.2/thumb/v7m\libgcc.a(_arm_fixunssfsi.o)
                0x0000ce08                __fixunssfsi
                0x0000ce08                __aeabi_f2uiz
 .text          0x0000ce48      0xa10 c:/users/trent smith/desktop/sjsu_dev/yagarto/bin/../lib/gcc/arm-none-eabi/4.6.2/thumb/v7m\libgcc.a(unwind-arm.o)
                0x0000d104                _Unwind_VRS_Get
                0x0000d150                _Unwind_VRS_Set
                0x0000d464                __aeabi_unwind_cpp_pr2
                0x0000d468                __aeabi_unwind_cpp_pr1
                0x0000d46c                __aeabi_unwind_cpp_pr0
                0x0000d470                _Unwind_VRS_Pop
                0x0000d700                _Unwind_GetCFA
                0x0000d704                __gnu_Unwind_RaiseException
                0x0000d764                __gnu_Unwind_ForcedUnwind
                0x0000d778                __gnu_Unwind_Resume
                0x0000d7b4                __gnu_Unwind_Resume_or_Rethrow
                0x0000d7c4                _Unwind_Complete
                0x0000d7c8                _Unwind_DeleteException
                0x0000d7d8                __gnu_Unwind_Backtrace
 .text          0x0000d858      0x1ac c:/users/trent smith/desktop/sjsu_dev/yagarto/bin/../lib/gcc/arm-none-eabi/4.6.2/thumb/v7m\libgcc.a(libunwind.o)
                0x0000d858                __restore_core_regs
                0x0000d858                restore_core_regs
                0x0000d870                __gnu_Unwind_Restore_VFP
                0x0000d878                __gnu_Unwind_Save_VFP
                0x0000d880                __gnu_Unwind_Restore_VFP_D
                0x0000d888                __gnu_Unwind_Save_VFP_D
                0x0000d890                __gnu_Unwind_Restore_VFP_D_16_to_31
                0x0000d898                __gnu_Unwind_Save_VFP_D_16_to_31
                0x0000d8a0                __gnu_Unwind_Restore_WMMXD
                0x0000d8e4                __gnu_Unwind_Save_WMMXD
                0x0000d928                __gnu_Unwind_Restore_WMMXC
                0x0000d93c                __gnu_Unwind_Save_WMMXC
                0x0000d950                ___Unwind_RaiseException
                0x0000d950                _Unwind_RaiseException
                0x0000d974                _Unwind_Resume
                0x0000d974                ___Unwind_Resume
                0x0000d998                _Unwind_Resume_or_Rethrow
                0x0000d998                ___Unwind_Resume_or_Rethrow
                0x0000d9bc                _Unwind_ForcedUnwind
                0x0000d9bc                ___Unwind_ForcedUnwind
                0x0000d9e0                ___Unwind_Backtrace
                0x0000d9e0                _Unwind_Backtrace
 .text          0x0000da04      0x3d4 c:/users/trent smith/desktop/sjsu_dev/yagarto/bin/../lib/gcc/arm-none-eabi/4.6.2/thumb/v7m\libgcc.a(pr-support.o)
                0x0000da58                __gnu_unwind_execute
                0x0000dd7c                __gnu_unwind_frame
                0x0000dda8                _Unwind_GetRegionStart
                0x0000ddb4                _Unwind_GetLanguageSpecificData
                0x0000ddc8                _Unwind_GetDataRelBase
                0x0000ddd0                _Unwind_GetTextRelBase
 .text          0x0000ddd8       0x10 c:/users/trent smith/desktop/sjsu_dev/yagarto/bin/../lib/gcc/arm-none-eabi/4.6.2/../../../../arm-none-eabi/lib/thumb/v7m\libc.a(lib_a-abort.o)
                0x0000ddd8                abort
 .text          0x0000dde8       0x10 c:/users/trent smith/desktop/sjsu_dev/yagarto/bin/../lib/gcc/arm-none-eabi/4.6.2/../../../../arm-none-eabi/lib/thumb/v7m\libc.a(lib_a-atoi.o)
                0x0000dde8                atoi
                0x0000ddf0                _atoi_r
 .text          0x0000ddf8        0x0 c:/users/trent smith/desktop/sjsu_dev/yagarto/bin/../lib/gcc/arm-none-eabi/4.6.2/../../../../arm-none-eabi/lib/thumb/v7m\libc.a(lib_a-impure.o)
 .text          0x0000ddf8       0x48 c:/users/trent smith/desktop/sjsu_dev/yagarto/bin/../lib/gcc/arm-none-eabi/4.6.2/../../../../arm-none-eabi/lib/thumb/v7m\libc.a(lib_a-init.o)
                0x0000ddf8                __libc_init_array
 .text          0x0000de40       0x14 c:/users/trent smith/desktop/sjsu_dev/yagarto/bin/../lib/gcc/arm-none-eabi/4.6.2/../../../../arm-none-eabi/lib/thumb/v7m\libc.a(lib_a-isalnum.o)
                0x0000de40                isalnum
 .text          0x0000de54       0x14 c:/users/trent smith/desktop/sjsu_dev/yagarto/bin/../lib/gcc/arm-none-eabi/4.6.2/../../../../arm-none-eabi/lib/thumb/v7m\libc.a(lib_a-isalpha.o)
                0x0000de54                isalpha
 .text          0x0000de68       0x20 c:/users/trent smith/desktop/sjsu_dev/yagarto/bin/../lib/gcc/arm-none-eabi/4.6.2/../../../../arm-none-eabi/lib/thumb/v7m\libc.a(lib_a-malloc.o)
                0x0000de68                malloc
                0x0000de78                free
 .text          0x0000de88      0x564 c:/users/trent smith/desktop/sjsu_dev/yagarto/bin/../lib/gcc/arm-none-eabi/4.6.2/../../../../arm-none-eabi/lib/thumb/v7m\libc.a(lib_a-mallocr.o)
                0x0000de88                _malloc_r
 .text          0x0000e3ec       0x60 c:/users/trent smith/desktop/sjsu_dev/yagarto/bin/../lib/gcc/arm-none-eabi/4.6.2/../../../../arm-none-eabi/lib/thumb/v7m\libc.a(lib_a-memcmp.o)
                0x0000e3ec                memcmp
 .text          0x0000e44c       0x84 c:/users/trent smith/desktop/sjsu_dev/yagarto/bin/../lib/gcc/arm-none-eabi/4.6.2/../../../../arm-none-eabi/lib/thumb/v7m\libc.a(lib_a-memcpy.o)
                0x0000e44c                memcpy
 .text          0x0000e4d0       0xc8 c:/users/trent smith/desktop/sjsu_dev/yagarto/bin/../lib/gcc/arm-none-eabi/4.6.2/../../../../arm-none-eabi/lib/thumb/v7m\libc.a(lib_a-memmove.o)
                0x0000e4d0                memmove
 .text          0x0000e598       0x94 c:/users/trent smith/desktop/sjsu_dev/yagarto/bin/../lib/gcc/arm-none-eabi/4.6.2/../../../../arm-none-eabi/lib/thumb/v7m\libc.a(lib_a-memset.o)
                0x0000e598                memset
 .text          0x0000e62c        0x8 c:/users/trent smith/desktop/sjsu_dev/yagarto/bin/../lib/gcc/arm-none-eabi/4.6.2/../../../../arm-none-eabi/lib/thumb/v7m\libc.a(lib_a-mlock.o)
                0x0000e62c                __malloc_lock
                0x0000e630                __malloc_unlock
 .text          0x0000e634       0x6c c:/users/trent smith/desktop/sjsu_dev/yagarto/bin/../lib/gcc/arm-none-eabi/4.6.2/../../../../arm-none-eabi/lib/thumb/v7m\libc.a(lib_a-mstats.o)
                0x0000e634                mallinfo
                0x0000e64c                malloc_stats
                0x0000e65c                mallopt
                0x0000e670                _mstats_r
                0x0000e690                mstats
 .text          0x0000e6a0       0x1c c:/users/trent smith/desktop/sjsu_dev/yagarto/bin/../lib/gcc/arm-none-eabi/4.6.2/../../../../arm-none-eabi/lib/thumb/v7m\libc.a(lib_a-putchar.o)
                0x0000e6a0                _putchar_r
                0x0000e6a8                putchar
 .text          0x0000e6bc       0x74 c:/users/trent smith/desktop/sjsu_dev/yagarto/bin/../lib/gcc/arm-none-eabi/4.6.2/../../../../arm-none-eabi/lib/thumb/v7m\libc.a(lib_a-puts.o)
                0x0000e6bc                _puts_r
                0x0000e720                puts
 .text          0x0000e730       0x14 c:/users/trent smith/desktop/sjsu_dev/yagarto/bin/../lib/gcc/arm-none-eabi/4.6.2/../../../../arm-none-eabi/lib/thumb/v7m\libc.a(lib_a-realloc.o)
                0x0000e730                realloc
 .text          0x0000e744      0x410 c:/users/trent smith/desktop/sjsu_dev/yagarto/bin/../lib/gcc/arm-none-eabi/4.6.2/../../../../arm-none-eabi/lib/thumb/v7m\libc.a(lib_a-reallocr.o)
                0x0000e744                _realloc_r
 .text          0x0000eb54       0x44 c:/users/trent smith/desktop/sjsu_dev/yagarto/bin/../lib/gcc/arm-none-eabi/4.6.2/../../../../arm-none-eabi/lib/thumb/v7m\libc.a(lib_a-rget.o)
                0x0000eb54                __srget_r
                0x0000eb88                __srget
 .text          0x0000eb98       0x24 c:/users/trent smith/desktop/sjsu_dev/yagarto/bin/../lib/gcc/arm-none-eabi/4.6.2/../../../../arm-none-eabi/lib/thumb/v7m\libc.a(lib_a-sbrkr.o)
                0x0000eb98                _sbrk_r
 .text          0x0000ebbc      0x114 c:/users/trent smith/desktop/sjsu_dev/yagarto/bin/../lib/gcc/arm-none-eabi/4.6.2/../../../../arm-none-eabi/lib/thumb/v7m\libc.a(lib_a-setvbuf.o)
                0x0000ebbc                setvbuf
 .text          0x0000ecd0      0x158 c:/users/trent smith/desktop/sjsu_dev/yagarto/bin/../lib/gcc/arm-none-eabi/4.6.2/../../../../arm-none-eabi/lib/thumb/v7m\libc.a(lib_a-signal.o)
                0x0000ecd0                _init_signal_r
                0x0000ed04                _signal_r
                0x0000ed44                _raise_r
                0x0000ed9c                __sigtramp_r
                0x0000edec                raise
                0x0000edfc                signal
                0x0000ee0c                _init_signal
                0x0000ee18                __sigtramp
 .text          0x0000ee28       0x2c c:/users/trent smith/desktop/sjsu_dev/yagarto/bin/../lib/gcc/arm-none-eabi/4.6.2/../../../../arm-none-eabi/lib/thumb/v7m\libc.a(lib_a-signalr.o)
                0x0000ee28                _kill_r
                0x0000ee50                _getpid_r
 .text          0x0000ee54       0x48 c:/users/trent smith/desktop/sjsu_dev/yagarto/bin/../lib/gcc/arm-none-eabi/4.6.2/../../../../arm-none-eabi/lib/thumb/v7m\libc.a(lib_a-strcasecmp.o)
                0x0000ee54                strcasecmp
 .text          0x0000ee9c       0x50 c:/users/trent smith/desktop/sjsu_dev/yagarto/bin/../lib/gcc/arm-none-eabi/4.6.2/../../../../arm-none-eabi/lib/thumb/v7m\libc.a(lib_a-strcat.o)
                0x0000ee9c                strcat
 .text          0x0000eeec       0xf4 c:/users/trent smith/desktop/sjsu_dev/yagarto/bin/../lib/gcc/arm-none-eabi/4.6.2/../../../../arm-none-eabi/lib/thumb/v7m\libc.a(lib_a-strchr.o)
                0x0000eeec                strchr
 .text          0x0000efe0      0x1dc c:/users/trent smith/desktop/sjsu_dev/yagarto/bin/../lib/gcc/arm-none-eabi/4.6.2/../../../../arm-none-eabi/lib/thumb/v7m\libc.a(lib_a-strcmp.o)
                0x0000efe0                strcmp
 .text          0x0000f1bc       0xbc c:/users/trent smith/desktop/sjsu_dev/yagarto/bin/../lib/gcc/arm-none-eabi/4.6.2/../../../../arm-none-eabi/lib/thumb/v7m\libc.a(lib_a-strcpy.o)
                0x0000f1bc                strcpy
 .text          0x0000f278       0x60 c:/users/trent smith/desktop/sjsu_dev/yagarto/bin/../lib/gcc/arm-none-eabi/4.6.2/../../../../arm-none-eabi/lib/thumb/v7m\libc.a(lib_a-strlen.o)
                0x0000f278                strlen
 .text          0x0000f2d8       0x54 c:/users/trent smith/desktop/sjsu_dev/yagarto/bin/../lib/gcc/arm-none-eabi/4.6.2/../../../../arm-none-eabi/lib/thumb/v7m\libc.a(lib_a-strncasecmp.o)
                0x0000f2d8                strncasecmp
 .text          0x0000f32c       0xa8 c:/users/trent smith/desktop/sjsu_dev/yagarto/bin/../lib/gcc/arm-none-eabi/4.6.2/../../../../arm-none-eabi/lib/thumb/v7m\libc.a(lib_a-strncmp.o)
                0x0000f32c                strncmp
 .text          0x0000f3d4       0x70 c:/users/trent smith/desktop/sjsu_dev/yagarto/bin/../lib/gcc/arm-none-eabi/4.6.2/../../../../arm-none-eabi/lib/thumb/v7m\libc.a(lib_a-strncpy.o)
                0x0000f3d4                strncpy
 .text          0x0000f444       0x54 c:/users/trent smith/desktop/sjsu_dev/yagarto/bin/../lib/gcc/arm-none-eabi/4.6.2/../../../../arm-none-eabi/lib/thumb/v7m\libc.a(lib_a-strpbrk.o)
                0x0000f444                strpbrk
 .text          0x0000f498       0x28 c:/users/trent smith/desktop/sjsu_dev/yagarto/bin/../lib/gcc/arm-none-eabi/4.6.2/../../../../arm-none-eabi/lib/thumb/v7m\libc.a(lib_a-strrchr.o)
                0x0000f498                strrchr
 .text          0x0000f4c0      0x4cc c:/users/trent smith/desktop/sjsu_dev/yagarto/bin/../lib/gcc/arm-none-eabi/4.6.2/../../../../arm-none-eabi/lib/thumb/v7m\libc.a(lib_a-strstr.o)
                0x0000f774                strstr
 .text          0x0000f98c      0x178 c:/users/trent smith/desktop/sjsu_dev/yagarto/bin/../lib/gcc/arm-none-eabi/4.6.2/../../../../arm-none-eabi/lib/thumb/v7m\libc.a(lib_a-strtol.o)
                0x0000f98c                _strtol_r
                0x0000faec                strtol
 .text          0x0000fb04       0x1c c:/users/trent smith/desktop/sjsu_dev/yagarto/bin/../lib/gcc/arm-none-eabi/4.6.2/../../../../arm-none-eabi/lib/thumb/v7m\libc.a(lib_a-syswrite.o)
                0x0000fb04                write
 .text          0x0000fb20       0x18 c:/users/trent smith/desktop/sjsu_dev/yagarto/bin/../lib/gcc/arm-none-eabi/4.6.2/../../../../arm-none-eabi/lib/thumb/v7m\libc.a(lib_a-tolower.o)
                0x0000fb20                tolower
 .text          0x0000fb38       0x18 c:/users/trent smith/desktop/sjsu_dev/yagarto/bin/../lib/gcc/arm-none-eabi/4.6.2/../../../../arm-none-eabi/lib/thumb/v7m\libc.a(lib_a-toupper.o)
                0x0000fb38                toupper
 .text          0x0000fb50       0x7c c:/users/trent smith/desktop/sjsu_dev/yagarto/bin/../lib/gcc/arm-none-eabi/4.6.2/../../../../arm-none-eabi/lib/thumb/v7m\libc.a(lib_a-vsniprintf.o)
                0x0000fb50                _vsniprintf_r
                0x0000fba4                vsniprintf
 .text          0x0000fbcc       0xc8 c:/users/trent smith/desktop/sjsu_dev/yagarto/bin/../lib/gcc/arm-none-eabi/4.6.2/../../../../arm-none-eabi/lib/thumb/v7m\libc.a(lib_a-wbuf.o)
                0x0000fbcc                __swbuf_r
                0x0000fc84                __swbuf
 .text          0x0000fc94       0x2c c:/users/trent smith/desktop/sjsu_dev/yagarto/bin/../lib/gcc/arm-none-eabi/4.6.2/../../../../arm-none-eabi/lib/thumb/v7m\libc.a(lib_a-writer.o)
                0x0000fc94                _write_r
 .text          0x0000fcc0       0xb8 c:/users/trent smith/desktop/sjsu_dev/yagarto/bin/../lib/gcc/arm-none-eabi/4.6.2/../../../../arm-none-eabi/lib/thumb/v7m\libc.a(lib_a-wsetup.o)
                0x0000fcc0                __swsetup_r
 .text          0x0000fd78        0x0 c:/users/trent smith/desktop/sjsu_dev/yagarto/bin/../lib/gcc/arm-none-eabi/4.6.2/../../../../arm-none-eabi/lib/thumb/v7m\libc.a(lib_a-ctype_.o)
 .text          0x0000fd78      0x1a4 c:/users/trent smith/desktop/sjsu_dev/yagarto/bin/../lib/gcc/arm-none-eabi/4.6.2/../../../../arm-none-eabi/lib/thumb/v7m\libc.a(lib_a-fflush.o)
                0x0000fd78                _fflush_r
                0x0000fefc                fflush
 .text          0x0000ff1c      0x1c4 c:/users/trent smith/desktop/sjsu_dev/yagarto/bin/../lib/gcc/arm-none-eabi/4.6.2/../../../../arm-none-eabi/lib/thumb/v7m\libc.a(lib_a-findfp.o)
                0x0000ff24                _cleanup_r
                0x0000ff84                __sfmoreglue
                0x0000ffb0                _cleanup
                0x0000ffbc                __sinit
                0x00010004                __sfp
                0x000100a0                __sfp_lock_acquire
                0x000100a4                __sfp_lock_release
                0x000100a8                __sinit_lock_acquire
                0x000100ac                __sinit_lock_release
                0x000100b0                __fp_lock_all
                0x000100c8                __fp_unlock_all
 .text          0x000100e0       0x4c c:/users/trent smith/desktop/sjsu_dev/yagarto/bin/../lib/gcc/arm-none-eabi/4.6.2/../../../../arm-none-eabi/lib/thumb/v7m\libc.a(lib_a-fiprintf.o)
                0x000100e0                _fiprintf_r
                0x00010100                fiprintf
 .text          0x0001012c      0x224 c:/users/trent smith/desktop/sjsu_dev/yagarto/bin/../lib/gcc/arm-none-eabi/4.6.2/../../../../arm-none-eabi/lib/thumb/v7m\libc.a(lib_a-freer.o)
                0x0001012c                _malloc_trim_r
                0x000101cc                _free_r
 .text          0x00010350      0x334 c:/users/trent smith/desktop/sjsu_dev/yagarto/bin/../lib/gcc/arm-none-eabi/4.6.2/../../../../arm-none-eabi/lib/thumb/v7m\libc.a(lib_a-fvwrite.o)
                0x00010350                __sfvwrite_r
 .text          0x00010684       0xa0 c:/users/trent smith/desktop/sjsu_dev/yagarto/bin/../lib/gcc/arm-none-eabi/4.6.2/../../../../arm-none-eabi/lib/thumb/v7m\libc.a(lib_a-fwalk.o)
                0x00010684                _fwalk
                0x000106d0                _fwalk_reent
 .text          0x00010724       0xe4 c:/users/trent smith/desktop/sjsu_dev/yagarto/bin/../lib/gcc/arm-none-eabi/4.6.2/../../../../arm-none-eabi/lib/thumb/v7m\libc.a(lib_a-makebuf.o)
                0x00010724                __smakebuf_r
 .text          0x00010808       0x88 c:/users/trent smith/desktop/sjsu_dev/yagarto/bin/../lib/gcc/arm-none-eabi/4.6.2/../../../../arm-none-eabi/lib/thumb/v7m\libc.a(lib_a-mallinfor.o)
                0x00010808                __malloc_update_mallinfo
                0x0001085c                _mallinfo_r
 .text          0x00010890       0x5c c:/users/trent smith/desktop/sjsu_dev/yagarto/bin/../lib/gcc/arm-none-eabi/4.6.2/../../../../arm-none-eabi/lib/thumb/v7m\libc.a(lib_a-malloptr.o)
                0x00010890                _mallopt_r
 .text          0x000108ec       0x60 c:/users/trent smith/desktop/sjsu_dev/yagarto/bin/../lib/gcc/arm-none-eabi/4.6.2/../../../../arm-none-eabi/lib/thumb/v7m\libc.a(lib_a-mallstatsr.o)
                0x000108ec                _malloc_stats_r
 .text          0x0001094c       0x88 c:/users/trent smith/desktop/sjsu_dev/yagarto/bin/../lib/gcc/arm-none-eabi/4.6.2/../../../../arm-none-eabi/lib/thumb/v7m\libc.a(lib_a-memchr.o)
                0x0001094c                memchr
 .text          0x000109d4       0xc8 c:/users/trent smith/desktop/sjsu_dev/yagarto/bin/../lib/gcc/arm-none-eabi/4.6.2/../../../../arm-none-eabi/lib/thumb/v7m\libc.a(lib_a-putc.o)
                0x000109d4                _putc_r
                0x00010a34                putc
 .text          0x00010a9c       0xe8 c:/users/trent smith/desktop/sjsu_dev/yagarto/bin/../lib/gcc/arm-none-eabi/4.6.2/../../../../arm-none-eabi/lib/thumb/v7m\libc.a(lib_a-reent.o)
                0x00010a9c                cleanup_glue
                0x00010ab8                _reclaim_reent
                0x00010b44                _wrapup_reent
 .text          0x00010b84      0x110 c:/users/trent smith/desktop/sjsu_dev/yagarto/bin/../lib/gcc/arm-none-eabi/4.6.2/../../../../arm-none-eabi/lib/thumb/v7m\libc.a(lib_a-refill.o)
                0x00010b98                __srefill_r
 .text          0x00010c94       0x8c c:/users/trent smith/desktop/sjsu_dev/yagarto/bin/../lib/gcc/arm-none-eabi/4.6.2/../../../../arm-none-eabi/lib/thumb/v7m\libc.a(lib_a-stdio.o)
                0x00010c94                __sread
                0x00010cb8                __seofread
                0x00010cbc                __swrite
                0x00010cf4                __sseek
                0x00010d18                __sclose
 .text          0x00010d20      0xa00 c:/users/trent smith/desktop/sjsu_dev/yagarto/bin/../lib/gcc/arm-none-eabi/4.6.2/../../../../arm-none-eabi/lib/thumb/v7m\libc.a(lib_a-svfiprintf.o)
                0x00010d20                __ssprint_r
                0x00010e38                _svfiprintf_r
 .text          0x00011720      0xb54 c:/users/trent smith/desktop/sjsu_dev/yagarto/bin/../lib/gcc/arm-none-eabi/4.6.2/../../../../arm-none-eabi/lib/thumb/v7m\libc.a(lib_a-vfiprintf.o)
                0x00011720                __sprint_r
                0x000117a0                _vfiprintf_r
                0x00012258                vfiprintf
 .text          0x00012274       0x24 c:/users/trent smith/desktop/sjsu_dev/yagarto/bin/../lib/gcc/arm-none-eabi/4.6.2/../../../../arm-none-eabi/lib/thumb/v7m\libc.a(lib_a-closer.o)
                0x00012274                _close_r
 .text          0x00012298       0x9c c:/users/trent smith/desktop/sjsu_dev/yagarto/bin/../lib/gcc/arm-none-eabi/4.6.2/../../../../arm-none-eabi/lib/thumb/v7m\libc.a(lib_a-fclose.o)
                0x00012298                _fclose_r
                0x00012324                fclose
 .text          0x00012334      0x104 c:/users/trent smith/desktop/sjsu_dev/yagarto/bin/../lib/gcc/arm-none-eabi/4.6.2/../../../../arm-none-eabi/lib/thumb/v7m\libc.a(lib_a-fputwc.o)
                0x00012334                _fputwc_r
                0x00012414                fputwc
 .text          0x00012438       0x28 c:/users/trent smith/desktop/sjsu_dev/yagarto/bin/../lib/gcc/arm-none-eabi/4.6.2/../../../../arm-none-eabi/lib/thumb/v7m\libc.a(lib_a-fstatr.o)
                0x00012438                _fstat_r
 .text          0x00012460       0x24 c:/users/trent smith/desktop/sjsu_dev/yagarto/bin/../lib/gcc/arm-none-eabi/4.6.2/../../../../arm-none-eabi/lib/thumb/v7m\libc.a(lib_a-isattyr.o)
                0x00012460                _isatty_r
 .text          0x00012484       0x88 c:/users/trent smith/desktop/sjsu_dev/yagarto/bin/../lib/gcc/arm-none-eabi/4.6.2/../../../../arm-none-eabi/lib/thumb/v7m\libc.a(lib_a-locale.o)
                0x00012484                _setlocale_r
                0x000124c8                __locale_charset
                0x000124d4                __locale_mb_cur_max
                0x000124e0                __locale_msgcharset
                0x000124e8                __locale_cjk_lang
                0x000124ec                _localeconv_r
                0x000124f4                setlocale
                0x00012504                localeconv
 .text          0x0001250c       0x2c c:/users/trent smith/desktop/sjsu_dev/yagarto/bin/../lib/gcc/arm-none-eabi/4.6.2/../../../../arm-none-eabi/lib/thumb/v7m\libc.a(lib_a-lseekr.o)
                0x0001250c                _lseek_r
 .text          0x00012538       0x2c c:/users/trent smith/desktop/sjsu_dev/yagarto/bin/../lib/gcc/arm-none-eabi/4.6.2/../../../../arm-none-eabi/lib/thumb/v7m\libc.a(lib_a-readr.o)
                0x00012538                _read_r
 .text          0x00012564       0xac c:/users/trent smith/desktop/sjsu_dev/yagarto/bin/../lib/gcc/arm-none-eabi/4.6.2/../../../../arm-none-eabi/lib/thumb/v7m\libc.a(lib_a-wcrtomb.o)
                0x00012564                _wcrtomb_r
                0x000125b0                wcrtomb
 .text          0x00012610       0x4c c:/users/trent smith/desktop/sjsu_dev/yagarto/bin/../lib/gcc/arm-none-eabi/4.6.2/../../../../arm-none-eabi/lib/thumb/v7m\libc.a(lib_a-wctomb_r.o)
                0x00012610                __ascii_wctomb
                0x0001262c                _wctomb_r
 *fill*         0x0001265c        0x4 00
 .text          0x00012660      0x278 c:/users/trent smith/desktop/sjsu_dev/yagarto/bin/../lib/gcc/arm-none-eabi/4.6.2/thumb/v7m\libgcc.a(_udivsi3.o)
                0x00012660                __aeabi_uidiv
                0x00012660                __udivsi3
                0x000128bc                __aeabi_uidivmod
 .text          0x000128d8        0x4 c:/users/trent smith/desktop/sjsu_dev/yagarto/bin/../lib/gcc/arm-none-eabi/4.6.2/thumb/v7m\libgcc.a(_dvmd_tls.o)
                0x000128d8                __aeabi_idiv0
                0x000128d8                __aeabi_ldiv0
 *(.rodata .rodata.*)
 *fill*         0x000128dc        0x4 00
 .rodata._ZTV10LoggerBase
                0x000128e0       0x18 ./L5_Application/source/handlers.o
                0x000128e0                vtable for LoggerBase
 .rodata._ZTV9CSVLogger
                0x000128f8       0x20 ./L5_Application/source/handlers.o
                0x000128f8                vtable for CSVLogger
 .rodata._ZTV10FileLogger
                0x00012918       0x20 ./L5_Application/source/handlers.o
                0x00012918                vtable for FileLogger
 .rodata        0x00012938        0xb ./L5_Application/source/handlers.o
 .rodata.str1.1
                0x00012943      0x2ff ./L5_Application/source/handlers.o
                                0x306 (size before relaxing)
 *fill*         0x00012c42        0x6 00
 .rodata._ZTV9IO_Device
                0x00012c48       0x18 ./L5_Application/source/highLevelInitialize.o
                0x00012c48                vtable for IO_Device
 .rodata.str1.1
                0x00012c60      0x174 ./L5_Application/source/highLevelInitialize.o
                                0x18c (size before relaxing)
 .rodata.str1.1
                0x00012dd4      0x20d ./L5_Application/source/tasks.o
                                0x237 (size before relaxing)
 .rodata.str1.1
                0x00012fe1       0x65 ./L5_Application/source/utilities.o
 .rodata.str1.1
                0x00013046       0x1c ./L5_Application/main.o
                                 0x46 (size before relaxing)
 *fill*         0x00013062        0x6 00
 .rodata        0x00013068      0x1d8 ./L4_IO/src/io_source.o
                0x00013068                vtable for Acceleration_Sensor
                0x00013080                vtable for IR_Sensor
                0x00013098                vtable for LED_Display
                0x000130b0                vtable for LED
                0x000130c8                vtable for Light_Sensor
                0x000130e0                vtable for Switches
                0x000130f8                vtable for TemperatureSensor
                0x00013110                vtable for Keypad
                0x00013128                vtable for LCD
 .rodata.str1.1
                0x00013240       0x52 ./L4_IO/src/io_source.o
                                 0x74 (size before relaxing)
 .rodata        0x00013292      0x4c0 ./L4_IO/fat/option/ccsbcs.o
 .rodata.str1.1
                0x00013752       0x48 ./L4_IO/fat/disk/spi_flash.o
 .rodata        0x0001379a       0xba ./L4_IO/fat/ff.o
 .rodata.str1.1
                0x00013854       0x44 ./L4_IO/fat/ff.o
 .rodata.str1.1
                0x00013898       0x6d ./L3_Utils/src/CommandHandler.o
 .rodata.str1.1
                0x00013905        0xd ./L3_Utils/src/logger.o
                                 0x16 (size before relaxing)
 .rodata.str1.1
                0x00013912        0x5 ./L3_Utils/src/str.o
                                  0xa (size before relaxing)
 .rodata        0x00013917       0x14 ./L1_FreeRTOS/src/tasks.o
 .rodata.str1.1
                0x0001392b       0x5f ./L1_FreeRTOS/src/tasks.o
 .rodata.str1.1
                0x0001398a        0x8 ./L1_FreeRTOS/src/timers.o
 *fill*         0x00013992        0x2 00
 .rodata        0x00013994        0x4 ./L1_FreeRTOS/portable/port.o
                0x00013994                ulKernelPriority
 .rodata.str1.1
                0x00013998       0x8b ./L1_FreeRTOS/hooks/hooks.o
 .rodata.str1.1
                0x00013a23      0x101 ./L0_LowLevel/source/cr_startup_lpc175x.o
                                0x127 (size before relaxing)
 .rodata.str1.1
                0x00013b24        0x7 ./L0_LowLevel/source/io_functions.o
 .rodata.str1.1
                0x00013b2b       0x3f ./L0_LowLevel/source/system_initialization.o
 *fill*         0x00013b6a        0x2 00
 .rodata._ZTIN9__gnu_cxx20recursive_init_errorE
                0x00013b6c        0xc c:/users/trent smith/desktop/sjsu_dev/yagarto/bin/../lib/gcc/arm-none-eabi/4.6.2/../../../../arm-none-eabi/lib/thumb/v7m\libstdc++.a(guard_error.o)
                0x00013b6c                typeinfo for __gnu_cxx::recursive_init_error
 .rodata._ZTSN9__gnu_cxx20recursive_init_errorE
                0x00013b78       0x24 c:/users/trent smith/desktop/sjsu_dev/yagarto/bin/../lib/gcc/arm-none-eabi/4.6.2/../../../../arm-none-eabi/lib/thumb/v7m\libstdc++.a(guard_error.o)
                0x00013b78                typeinfo name for __gnu_cxx::recursive_init_error
 *fill*         0x00013b9c        0x4 00
 .rodata._ZTVN9__gnu_cxx20recursive_init_errorE
                0x00013ba0       0x18 c:/users/trent smith/desktop/sjsu_dev/yagarto/bin/../lib/gcc/arm-none-eabi/4.6.2/../../../../arm-none-eabi/lib/thumb/v7m\libstdc++.a(guard_error.o)
                0x00013ba0                vtable for __gnu_cxx::recursive_init_error
 .rodata.str1.4
                0x00013bb8       0x1c c:/users/trent smith/desktop/sjsu_dev/yagarto/bin/../lib/gcc/arm-none-eabi/4.6.2/../../../../arm-none-eabi/lib/thumb/v7m\libstdc++.a(pure.o)
 *fill*         0x00013bd4        0x4 00
 .rodata._ZTVN10__cxxabiv120__si_class_type_infoE
                0x00013bd8       0x30 c:/users/trent smith/desktop/sjsu_dev/yagarto/bin/../lib/gcc/arm-none-eabi/4.6.2/../../../../arm-none-eabi/lib/thumb/v7m\libstdc++.a(si_class_type_info.o)
                0x00013bd8                vtable for __cxxabiv1::__si_class_type_info
 .rodata._ZTIN10__cxxabiv120__si_class_type_infoE
                0x00013c08        0xc c:/users/trent smith/desktop/sjsu_dev/yagarto/bin/../lib/gcc/arm-none-eabi/4.6.2/../../../../arm-none-eabi/lib/thumb/v7m\libstdc++.a(si_class_type_info.o)
                0x00013c08                typeinfo for __cxxabiv1::__si_class_type_info
 .rodata._ZTSN10__cxxabiv120__si_class_type_infoE
                0x00013c14       0x28 c:/users/trent smith/desktop/sjsu_dev/yagarto/bin/../lib/gcc/arm-none-eabi/4.6.2/../../../../arm-none-eabi/lib/thumb/v7m\libstdc++.a(si_class_type_info.o)
                0x00013c14                typeinfo name for __cxxabiv1::__si_class_type_info
 .rodata._ZTISt9type_info
                0x00013c3c        0x8 c:/users/trent smith/desktop/sjsu_dev/yagarto/bin/../lib/gcc/arm-none-eabi/4.6.2/../../../../arm-none-eabi/lib/thumb/v7m\libstdc++.a(tinfo.o)
                0x00013c3c                typeinfo for std::type_info
 .rodata._ZTSSt9type_info
                0x00013c44       0x10 c:/users/trent smith/desktop/sjsu_dev/yagarto/bin/../lib/gcc/arm-none-eabi/4.6.2/../../../../arm-none-eabi/lib/thumb/v7m\libstdc++.a(tinfo.o)
                0x00013c44                typeinfo name for std::type_info
 *fill*         0x00013c54        0x4 00
 .rodata._ZTVSt9type_info
                0x00013c58       0x20 c:/users/trent smith/desktop/sjsu_dev/yagarto/bin/../lib/gcc/arm-none-eabi/4.6.2/../../../../arm-none-eabi/lib/thumb/v7m\libstdc++.a(tinfo.o)
                0x00013c58                vtable for std::type_info
 .rodata._ZTVN10__cxxabiv117__class_type_infoE
                0x00013c78       0x30 c:/users/trent smith/desktop/sjsu_dev/yagarto/bin/../lib/gcc/arm-none-eabi/4.6.2/../../../../arm-none-eabi/lib/thumb/v7m\libstdc++.a(class_type_info.o)
                0x00013c78                vtable for __cxxabiv1::__class_type_info
 .rodata._ZTIN10__cxxabiv117__class_type_infoE
                0x00013ca8        0xc c:/users/trent smith/desktop/sjsu_dev/yagarto/bin/../lib/gcc/arm-none-eabi/4.6.2/../../../../arm-none-eabi/lib/thumb/v7m\libstdc++.a(class_type_info.o)
                0x00013ca8                typeinfo for __cxxabiv1::__class_type_info
 .rodata._ZTSN10__cxxabiv117__class_type_infoE
                0x00013cb4       0x24 c:/users/trent smith/desktop/sjsu_dev/yagarto/bin/../lib/gcc/arm-none-eabi/4.6.2/../../../../arm-none-eabi/lib/thumb/v7m\libstdc++.a(class_type_info.o)
                0x00013cb4                typeinfo name for __cxxabiv1::__class_type_info
 .rodata._ZTVN10__cxxabiv115__forced_unwindE
                0x00013cd8       0x18 c:/users/trent smith/desktop/sjsu_dev/yagarto/bin/../lib/gcc/arm-none-eabi/4.6.2/../../../../arm-none-eabi/lib/thumb/v7m\libstdc++.a(eh_exception.o)
                0x00013cd8                vtable for __cxxabiv1::__forced_unwind
 .rodata._ZTVSt9exception
                0x00013cf0       0x18 c:/users/trent smith/desktop/sjsu_dev/yagarto/bin/../lib/gcc/arm-none-eabi/4.6.2/../../../../arm-none-eabi/lib/thumb/v7m\libstdc++.a(eh_exception.o)
                0x00013cf0                vtable for std::exception
 .rodata._ZTIN10__cxxabiv115__forced_unwindE
                0x00013d08        0x8 c:/users/trent smith/desktop/sjsu_dev/yagarto/bin/../lib/gcc/arm-none-eabi/4.6.2/../../../../arm-none-eabi/lib/thumb/v7m\libstdc++.a(eh_exception.o)
                0x00013d08                typeinfo for __cxxabiv1::__forced_unwind
 .rodata._ZTISt9exception
                0x00013d10        0x8 c:/users/trent smith/desktop/sjsu_dev/yagarto/bin/../lib/gcc/arm-none-eabi/4.6.2/../../../../arm-none-eabi/lib/thumb/v7m\libstdc++.a(eh_exception.o)
                0x00013d10                typeinfo for std::exception
 .rodata._ZTSSt13bad_exception
                0x00013d18       0x14 c:/users/trent smith/desktop/sjsu_dev/yagarto/bin/../lib/gcc/arm-none-eabi/4.6.2/../../../../arm-none-eabi/lib/thumb/v7m\libstdc++.a(eh_exception.o)
                0x00013d18                typeinfo name for std::bad_exception
 .rodata.str1.4
                0x00013d2c       0x23 c:/users/trent smith/desktop/sjsu_dev/yagarto/bin/../lib/gcc/arm-none-eabi/4.6.2/../../../../arm-none-eabi/lib/thumb/v7m\libstdc++.a(eh_exception.o)
                                 0x24 (size before relaxing)
 *fill*         0x00013d4f        0x1 00
 .rodata._ZTSN10__cxxabiv119__foreign_exceptionE
                0x00013d50       0x24 c:/users/trent smith/desktop/sjsu_dev/yagarto/bin/../lib/gcc/arm-none-eabi/4.6.2/../../../../arm-none-eabi/lib/thumb/v7m\libstdc++.a(eh_exception.o)
                0x00013d50                typeinfo name for __cxxabiv1::__foreign_exception
 .rodata._ZTIN10__cxxabiv119__foreign_exceptionE
                0x00013d74        0x8 c:/users/trent smith/desktop/sjsu_dev/yagarto/bin/../lib/gcc/arm-none-eabi/4.6.2/../../../../arm-none-eabi/lib/thumb/v7m\libstdc++.a(eh_exception.o)
                0x00013d74                typeinfo for __cxxabiv1::__foreign_exception
 *fill*         0x00013d7c        0x4 00
 .rodata._ZTVSt13bad_exception
                0x00013d80       0x18 c:/users/trent smith/desktop/sjsu_dev/yagarto/bin/../lib/gcc/arm-none-eabi/4.6.2/../../../../arm-none-eabi/lib/thumb/v7m\libstdc++.a(eh_exception.o)
                0x00013d80                vtable for std::bad_exception
 .rodata._ZTSSt9exception
                0x00013d98       0x10 c:/users/trent smith/desktop/sjsu_dev/yagarto/bin/../lib/gcc/arm-none-eabi/4.6.2/../../../../arm-none-eabi/lib/thumb/v7m\libstdc++.a(eh_exception.o)
                0x00013d98                typeinfo name for std::exception
 .rodata._ZTVN10__cxxabiv119__foreign_exceptionE
                0x00013da8       0x18 c:/users/trent smith/desktop/sjsu_dev/yagarto/bin/../lib/gcc/arm-none-eabi/4.6.2/../../../../arm-none-eabi/lib/thumb/v7m\libstdc++.a(eh_exception.o)
                0x00013da8                vtable for __cxxabiv1::__foreign_exception
 .rodata._ZTSN10__cxxabiv115__forced_unwindE
                0x00013dc0       0x20 c:/users/trent smith/desktop/sjsu_dev/yagarto/bin/../lib/gcc/arm-none-eabi/4.6.2/../../../../arm-none-eabi/lib/thumb/v7m\libstdc++.a(eh_exception.o)
                0x00013dc0                typeinfo name for __cxxabiv1::__forced_unwind
 .rodata._ZTISt13bad_exception
                0x00013de0        0xc c:/users/trent smith/desktop/sjsu_dev/yagarto/bin/../lib/gcc/arm-none-eabi/4.6.2/../../../../arm-none-eabi/lib/thumb/v7m\libstdc++.a(eh_exception.o)
                0x00013de0                typeinfo for std::bad_exception
 .rodata._ZTIPKDn
                0x00013dec       0x10 c:/users/trent smith/desktop/sjsu_dev/yagarto/bin/../lib/gcc/arm-none-eabi/4.6.2/../../../../arm-none-eabi/lib/thumb/v7m\libstdc++.a(fundamental_type_info.o)
                0x00013dec                typeinfo for decltype(nullptr) const*
 .rodata._ZTIPDn
                0x00013dfc       0x10 c:/users/trent smith/desktop/sjsu_dev/yagarto/bin/../lib/gcc/arm-none-eabi/4.6.2/../../../../arm-none-eabi/lib/thumb/v7m\libstdc++.a(fundamental_type_info.o)
                0x00013dfc                typeinfo for decltype(nullptr)*
 .rodata._ZTIDn
                0x00013e0c        0x8 c:/users/trent smith/desktop/sjsu_dev/yagarto/bin/../lib/gcc/arm-none-eabi/4.6.2/../../../../arm-none-eabi/lib/thumb/v7m\libstdc++.a(fundamental_type_info.o)
                0x00013e0c                typeinfo for decltype(nullptr)
 .rodata._ZTIPKDe
                0x00013e14       0x10 c:/users/trent smith/desktop/sjsu_dev/yagarto/bin/../lib/gcc/arm-none-eabi/4.6.2/../../../../arm-none-eabi/lib/thumb/v7m\libstdc++.a(fundamental_type_info.o)
                0x00013e14                typeinfo for decimal128 const*
 .rodata._ZTIPDe
                0x00013e24       0x10 c:/users/trent smith/desktop/sjsu_dev/yagarto/bin/../lib/gcc/arm-none-eabi/4.6.2/../../../../arm-none-eabi/lib/thumb/v7m\libstdc++.a(fundamental_type_info.o)
                0x00013e24                typeinfo for decimal128*
 .rodata._ZTIDe
                0x00013e34        0x8 c:/users/trent smith/desktop/sjsu_dev/yagarto/bin/../lib/gcc/arm-none-eabi/4.6.2/../../../../arm-none-eabi/lib/thumb/v7m\libstdc++.a(fundamental_type_info.o)
                0x00013e34                typeinfo for decimal128
 .rodata._ZTIPKDd
                0x00013e3c       0x10 c:/users/trent smith/desktop/sjsu_dev/yagarto/bin/../lib/gcc/arm-none-eabi/4.6.2/../../../../arm-none-eabi/lib/thumb/v7m\libstdc++.a(fundamental_type_info.o)
                0x00013e3c                typeinfo for decimal64 const*
 .rodata._ZTIPDd
                0x00013e4c       0x10 c:/users/trent smith/desktop/sjsu_dev/yagarto/bin/../lib/gcc/arm-none-eabi/4.6.2/../../../../arm-none-eabi/lib/thumb/v7m\libstdc++.a(fundamental_type_info.o)
                0x00013e4c                typeinfo for decimal64*
 .rodata._ZTIDd
                0x00013e5c        0x8 c:/users/trent smith/desktop/sjsu_dev/yagarto/bin/../lib/gcc/arm-none-eabi/4.6.2/../../../../arm-none-eabi/lib/thumb/v7m\libstdc++.a(fundamental_type_info.o)
                0x00013e5c                typeinfo for decimal64
 .rodata._ZTIPKDf
                0x00013e64       0x10 c:/users/trent smith/desktop/sjsu_dev/yagarto/bin/../lib/gcc/arm-none-eabi/4.6.2/../../../../arm-none-eabi/lib/thumb/v7m\libstdc++.a(fundamental_type_info.o)
                0x00013e64                typeinfo for decimal32 const*
 .rodata._ZTIPDf
                0x00013e74       0x10 c:/users/trent smith/desktop/sjsu_dev/yagarto/bin/../lib/gcc/arm-none-eabi/4.6.2/../../../../arm-none-eabi/lib/thumb/v7m\libstdc++.a(fundamental_type_info.o)
                0x00013e74                typeinfo for decimal32*
 .rodata._ZTIDf
                0x00013e84        0x8 c:/users/trent smith/desktop/sjsu_dev/yagarto/bin/../lib/gcc/arm-none-eabi/4.6.2/../../../../arm-none-eabi/lib/thumb/v7m\libstdc++.a(fundamental_type_info.o)
                0x00013e84                typeinfo for decimal32
 .rodata._ZTIPKe
                0x00013e8c       0x10 c:/users/trent smith/desktop/sjsu_dev/yagarto/bin/../lib/gcc/arm-none-eabi/4.6.2/../../../../arm-none-eabi/lib/thumb/v7m\libstdc++.a(fundamental_type_info.o)
                0x00013e8c                typeinfo for long double const*
 .rodata._ZTIPe
                0x00013e9c       0x10 c:/users/trent smith/desktop/sjsu_dev/yagarto/bin/../lib/gcc/arm-none-eabi/4.6.2/../../../../arm-none-eabi/lib/thumb/v7m\libstdc++.a(fundamental_type_info.o)
                0x00013e9c                typeinfo for long double*
 .rodata._ZTIe  0x00013eac        0x8 c:/users/trent smith/desktop/sjsu_dev/yagarto/bin/../lib/gcc/arm-none-eabi/4.6.2/../../../../arm-none-eabi/lib/thumb/v7m\libstdc++.a(fundamental_type_info.o)
                0x00013eac                typeinfo for long double
 .rodata._ZTIPKd
                0x00013eb4       0x10 c:/users/trent smith/desktop/sjsu_dev/yagarto/bin/../lib/gcc/arm-none-eabi/4.6.2/../../../../arm-none-eabi/lib/thumb/v7m\libstdc++.a(fundamental_type_info.o)
                0x00013eb4                typeinfo for double const*
 .rodata._ZTIPd
                0x00013ec4       0x10 c:/users/trent smith/desktop/sjsu_dev/yagarto/bin/../lib/gcc/arm-none-eabi/4.6.2/../../../../arm-none-eabi/lib/thumb/v7m\libstdc++.a(fundamental_type_info.o)
                0x00013ec4                typeinfo for double*
 .rodata._ZTId  0x00013ed4        0x8 c:/users/trent smith/desktop/sjsu_dev/yagarto/bin/../lib/gcc/arm-none-eabi/4.6.2/../../../../arm-none-eabi/lib/thumb/v7m\libstdc++.a(fundamental_type_info.o)
                0x00013ed4                typeinfo for double
 .rodata._ZTIPKf
                0x00013edc       0x10 c:/users/trent smith/desktop/sjsu_dev/yagarto/bin/../lib/gcc/arm-none-eabi/4.6.2/../../../../arm-none-eabi/lib/thumb/v7m\libstdc++.a(fundamental_type_info.o)
                0x00013edc                typeinfo for float const*
 .rodata._ZTIPf
                0x00013eec       0x10 c:/users/trent smith/desktop/sjsu_dev/yagarto/bin/../lib/gcc/arm-none-eabi/4.6.2/../../../../arm-none-eabi/lib/thumb/v7m\libstdc++.a(fundamental_type_info.o)
                0x00013eec                typeinfo for float*
 .rodata._ZTIf  0x00013efc        0x8 c:/users/trent smith/desktop/sjsu_dev/yagarto/bin/../lib/gcc/arm-none-eabi/4.6.2/../../../../arm-none-eabi/lib/thumb/v7m\libstdc++.a(fundamental_type_info.o)
                0x00013efc                typeinfo for float
 .rodata._ZTIPKy
                0x00013f04       0x10 c:/users/trent smith/desktop/sjsu_dev/yagarto/bin/../lib/gcc/arm-none-eabi/4.6.2/../../../../arm-none-eabi/lib/thumb/v7m\libstdc++.a(fundamental_type_info.o)
                0x00013f04                typeinfo for unsigned long long const*
 .rodata._ZTIPy
                0x00013f14       0x10 c:/users/trent smith/desktop/sjsu_dev/yagarto/bin/../lib/gcc/arm-none-eabi/4.6.2/../../../../arm-none-eabi/lib/thumb/v7m\libstdc++.a(fundamental_type_info.o)
                0x00013f14                typeinfo for unsigned long long*
 .rodata._ZTIy  0x00013f24        0x8 c:/users/trent smith/desktop/sjsu_dev/yagarto/bin/../lib/gcc/arm-none-eabi/4.6.2/../../../../arm-none-eabi/lib/thumb/v7m\libstdc++.a(fundamental_type_info.o)
                0x00013f24                typeinfo for unsigned long long
 .rodata._ZTIPKx
                0x00013f2c       0x10 c:/users/trent smith/desktop/sjsu_dev/yagarto/bin/../lib/gcc/arm-none-eabi/4.6.2/../../../../arm-none-eabi/lib/thumb/v7m\libstdc++.a(fundamental_type_info.o)
                0x00013f2c                typeinfo for long long const*
 .rodata._ZTIPx
                0x00013f3c       0x10 c:/users/trent smith/desktop/sjsu_dev/yagarto/bin/../lib/gcc/arm-none-eabi/4.6.2/../../../../arm-none-eabi/lib/thumb/v7m\libstdc++.a(fundamental_type_info.o)
                0x00013f3c                typeinfo for long long*
 .rodata._ZTIx  0x00013f4c        0x8 c:/users/trent smith/desktop/sjsu_dev/yagarto/bin/../lib/gcc/arm-none-eabi/4.6.2/../../../../arm-none-eabi/lib/thumb/v7m\libstdc++.a(fundamental_type_info.o)
                0x00013f4c                typeinfo for long long
 .rodata._ZTIPKm
                0x00013f54       0x10 c:/users/trent smith/desktop/sjsu_dev/yagarto/bin/../lib/gcc/arm-none-eabi/4.6.2/../../../../arm-none-eabi/lib/thumb/v7m\libstdc++.a(fundamental_type_info.o)
                0x00013f54                typeinfo for unsigned long const*
 .rodata._ZTIPm
                0x00013f64       0x10 c:/users/trent smith/desktop/sjsu_dev/yagarto/bin/../lib/gcc/arm-none-eabi/4.6.2/../../../../arm-none-eabi/lib/thumb/v7m\libstdc++.a(fundamental_type_info.o)
                0x00013f64                typeinfo for unsigned long*
 .rodata._ZTIm  0x00013f74        0x8 c:/users/trent smith/desktop/sjsu_dev/yagarto/bin/../lib/gcc/arm-none-eabi/4.6.2/../../../../arm-none-eabi/lib/thumb/v7m\libstdc++.a(fundamental_type_info.o)
                0x00013f74                typeinfo for unsigned long
 .rodata._ZTIPKl
                0x00013f7c       0x10 c:/users/trent smith/desktop/sjsu_dev/yagarto/bin/../lib/gcc/arm-none-eabi/4.6.2/../../../../arm-none-eabi/lib/thumb/v7m\libstdc++.a(fundamental_type_info.o)
                0x00013f7c                typeinfo for long const*
 .rodata._ZTIPl
                0x00013f8c       0x10 c:/users/trent smith/desktop/sjsu_dev/yagarto/bin/../lib/gcc/arm-none-eabi/4.6.2/../../../../arm-none-eabi/lib/thumb/v7m\libstdc++.a(fundamental_type_info.o)
                0x00013f8c                typeinfo for long*
 .rodata._ZTIl  0x00013f9c        0x8 c:/users/trent smith/desktop/sjsu_dev/yagarto/bin/../lib/gcc/arm-none-eabi/4.6.2/../../../../arm-none-eabi/lib/thumb/v7m\libstdc++.a(fundamental_type_info.o)
                0x00013f9c                typeinfo for long
 .rodata._ZTIPKj
                0x00013fa4       0x10 c:/users/trent smith/desktop/sjsu_dev/yagarto/bin/../lib/gcc/arm-none-eabi/4.6.2/../../../../arm-none-eabi/lib/thumb/v7m\libstdc++.a(fundamental_type_info.o)
                0x00013fa4                typeinfo for unsigned int const*
 .rodata._ZTIPj
                0x00013fb4       0x10 c:/users/trent smith/desktop/sjsu_dev/yagarto/bin/../lib/gcc/arm-none-eabi/4.6.2/../../../../arm-none-eabi/lib/thumb/v7m\libstdc++.a(fundamental_type_info.o)
                0x00013fb4                typeinfo for unsigned int*
 .rodata._ZTIj  0x00013fc4        0x8 c:/users/trent smith/desktop/sjsu_dev/yagarto/bin/../lib/gcc/arm-none-eabi/4.6.2/../../../../arm-none-eabi/lib/thumb/v7m\libstdc++.a(fundamental_type_info.o)
                0x00013fc4                typeinfo for unsigned int
 .rodata._ZTIPKi
                0x00013fcc       0x10 c:/users/trent smith/desktop/sjsu_dev/yagarto/bin/../lib/gcc/arm-none-eabi/4.6.2/../../../../arm-none-eabi/lib/thumb/v7m\libstdc++.a(fundamental_type_info.o)
                0x00013fcc                typeinfo for int const*
 .rodata._ZTIPi
                0x00013fdc       0x10 c:/users/trent smith/desktop/sjsu_dev/yagarto/bin/../lib/gcc/arm-none-eabi/4.6.2/../../../../arm-none-eabi/lib/thumb/v7m\libstdc++.a(fundamental_type_info.o)
                0x00013fdc                typeinfo for int*
 .rodata._ZTIi  0x00013fec        0x8 c:/users/trent smith/desktop/sjsu_dev/yagarto/bin/../lib/gcc/arm-none-eabi/4.6.2/../../../../arm-none-eabi/lib/thumb/v7m\libstdc++.a(fundamental_type_info.o)
                0x00013fec                typeinfo for int
 .rodata._ZTIPKt
                0x00013ff4       0x10 c:/users/trent smith/desktop/sjsu_dev/yagarto/bin/../lib/gcc/arm-none-eabi/4.6.2/../../../../arm-none-eabi/lib/thumb/v7m\libstdc++.a(fundamental_type_info.o)
                0x00013ff4                typeinfo for unsigned short const*
 .rodata._ZTIPt
                0x00014004       0x10 c:/users/trent smith/desktop/sjsu_dev/yagarto/bin/../lib/gcc/arm-none-eabi/4.6.2/../../../../arm-none-eabi/lib/thumb/v7m\libstdc++.a(fundamental_type_info.o)
                0x00014004                typeinfo for unsigned short*
 .rodata._ZTIt  0x00014014        0x8 c:/users/trent smith/desktop/sjsu_dev/yagarto/bin/../lib/gcc/arm-none-eabi/4.6.2/../../../../arm-none-eabi/lib/thumb/v7m\libstdc++.a(fundamental_type_info.o)
                0x00014014                typeinfo for unsigned short
 .rodata._ZTIPKs
                0x0001401c       0x10 c:/users/trent smith/desktop/sjsu_dev/yagarto/bin/../lib/gcc/arm-none-eabi/4.6.2/../../../../arm-none-eabi/lib/thumb/v7m\libstdc++.a(fundamental_type_info.o)
                0x0001401c                typeinfo for short const*
 .rodata._ZTIPs
                0x0001402c       0x10 c:/users/trent smith/desktop/sjsu_dev/yagarto/bin/../lib/gcc/arm-none-eabi/4.6.2/../../../../arm-none-eabi/lib/thumb/v7m\libstdc++.a(fundamental_type_info.o)
                0x0001402c                typeinfo for short*
 .rodata._ZTIs  0x0001403c        0x8 c:/users/trent smith/desktop/sjsu_dev/yagarto/bin/../lib/gcc/arm-none-eabi/4.6.2/../../../../arm-none-eabi/lib/thumb/v7m\libstdc++.a(fundamental_type_info.o)
                0x0001403c                typeinfo for short
 .rodata._ZTIPKh
                0x00014044       0x10 c:/users/trent smith/desktop/sjsu_dev/yagarto/bin/../lib/gcc/arm-none-eabi/4.6.2/../../../../arm-none-eabi/lib/thumb/v7m\libstdc++.a(fundamental_type_info.o)
                0x00014044                typeinfo for unsigned char const*
 .rodata._ZTIPh
                0x00014054       0x10 c:/users/trent smith/desktop/sjsu_dev/yagarto/bin/../lib/gcc/arm-none-eabi/4.6.2/../../../../arm-none-eabi/lib/thumb/v7m\libstdc++.a(fundamental_type_info.o)
                0x00014054                typeinfo for unsigned char*
 .rodata._ZTIh  0x00014064        0x8 c:/users/trent smith/desktop/sjsu_dev/yagarto/bin/../lib/gcc/arm-none-eabi/4.6.2/../../../../arm-none-eabi/lib/thumb/v7m\libstdc++.a(fundamental_type_info.o)
                0x00014064                typeinfo for unsigned char
 .rodata._ZTIPKa
                0x0001406c       0x10 c:/users/trent smith/desktop/sjsu_dev/yagarto/bin/../lib/gcc/arm-none-eabi/4.6.2/../../../../arm-none-eabi/lib/thumb/v7m\libstdc++.a(fundamental_type_info.o)
                0x0001406c                typeinfo for signed char const*
 .rodata._ZTIPa
                0x0001407c       0x10 c:/users/trent smith/desktop/sjsu_dev/yagarto/bin/../lib/gcc/arm-none-eabi/4.6.2/../../../../arm-none-eabi/lib/thumb/v7m\libstdc++.a(fundamental_type_info.o)
                0x0001407c                typeinfo for signed char*
 .rodata._ZTIa  0x0001408c        0x8 c:/users/trent smith/desktop/sjsu_dev/yagarto/bin/../lib/gcc/arm-none-eabi/4.6.2/../../../../arm-none-eabi/lib/thumb/v7m\libstdc++.a(fundamental_type_info.o)
                0x0001408c                typeinfo for signed char
 .rodata._ZTIPKc
                0x00014094       0x10 c:/users/trent smith/desktop/sjsu_dev/yagarto/bin/../lib/gcc/arm-none-eabi/4.6.2/../../../../arm-none-eabi/lib/thumb/v7m\libstdc++.a(fundamental_type_info.o)
                0x00014094                typeinfo for char const*
 .rodata._ZTIPc
                0x000140a4       0x10 c:/users/trent smith/desktop/sjsu_dev/yagarto/bin/../lib/gcc/arm-none-eabi/4.6.2/../../../../arm-none-eabi/lib/thumb/v7m\libstdc++.a(fundamental_type_info.o)
                0x000140a4                typeinfo for char*
 .rodata._ZTIc  0x000140b4        0x8 c:/users/trent smith/desktop/sjsu_dev/yagarto/bin/../lib/gcc/arm-none-eabi/4.6.2/../../../../arm-none-eabi/lib/thumb/v7m\libstdc++.a(fundamental_type_info.o)
                0x000140b4                typeinfo for char
 .rodata._ZTIPKDi
                0x000140bc       0x10 c:/users/trent smith/desktop/sjsu_dev/yagarto/bin/../lib/gcc/arm-none-eabi/4.6.2/../../../../arm-none-eabi/lib/thumb/v7m\libstdc++.a(fundamental_type_info.o)
                0x000140bc                typeinfo for char32_t const*
 .rodata._ZTIPDi
                0x000140cc       0x10 c:/users/trent smith/desktop/sjsu_dev/yagarto/bin/../lib/gcc/arm-none-eabi/4.6.2/../../../../arm-none-eabi/lib/thumb/v7m\libstdc++.a(fundamental_type_info.o)
                0x000140cc                typeinfo for char32_t*
 .rodata._ZTIDi
                0x000140dc        0x8 c:/users/trent smith/desktop/sjsu_dev/yagarto/bin/../lib/gcc/arm-none-eabi/4.6.2/../../../../arm-none-eabi/lib/thumb/v7m\libstdc++.a(fundamental_type_info.o)
                0x000140dc                typeinfo for char32_t
 .rodata._ZTIPKDs
                0x000140e4       0x10 c:/users/trent smith/desktop/sjsu_dev/yagarto/bin/../lib/gcc/arm-none-eabi/4.6.2/../../../../arm-none-eabi/lib/thumb/v7m\libstdc++.a(fundamental_type_info.o)
                0x000140e4                typeinfo for char16_t const*
 .rodata._ZTIPDs
                0x000140f4       0x10 c:/users/trent smith/desktop/sjsu_dev/yagarto/bin/../lib/gcc/arm-none-eabi/4.6.2/../../../../arm-none-eabi/lib/thumb/v7m\libstdc++.a(fundamental_type_info.o)
                0x000140f4                typeinfo for char16_t*
 .rodata._ZTIDs
                0x00014104        0x8 c:/users/trent smith/desktop/sjsu_dev/yagarto/bin/../lib/gcc/arm-none-eabi/4.6.2/../../../../arm-none-eabi/lib/thumb/v7m\libstdc++.a(fundamental_type_info.o)
                0x00014104                typeinfo for char16_t
 .rodata._ZTIPKw
                0x0001410c       0x10 c:/users/trent smith/desktop/sjsu_dev/yagarto/bin/../lib/gcc/arm-none-eabi/4.6.2/../../../../arm-none-eabi/lib/thumb/v7m\libstdc++.a(fundamental_type_info.o)
                0x0001410c                typeinfo for wchar_t const*
 .rodata._ZTIPw
                0x0001411c       0x10 c:/users/trent smith/desktop/sjsu_dev/yagarto/bin/../lib/gcc/arm-none-eabi/4.6.2/../../../../arm-none-eabi/lib/thumb/v7m\libstdc++.a(fundamental_type_info.o)
                0x0001411c                typeinfo for wchar_t*
 .rodata._ZTIw  0x0001412c        0x8 c:/users/trent smith/desktop/sjsu_dev/yagarto/bin/../lib/gcc/arm-none-eabi/4.6.2/../../../../arm-none-eabi/lib/thumb/v7m\libstdc++.a(fundamental_type_info.o)
                0x0001412c                typeinfo for wchar_t
 .rodata._ZTIPKb
                0x00014134       0x10 c:/users/trent smith/desktop/sjsu_dev/yagarto/bin/../lib/gcc/arm-none-eabi/4.6.2/../../../../arm-none-eabi/lib/thumb/v7m\libstdc++.a(fundamental_type_info.o)
                0x00014134                typeinfo for bool const*
 .rodata._ZTIPb
                0x00014144       0x10 c:/users/trent smith/desktop/sjsu_dev/yagarto/bin/../lib/gcc/arm-none-eabi/4.6.2/../../../../arm-none-eabi/lib/thumb/v7m\libstdc++.a(fundamental_type_info.o)
                0x00014144                typeinfo for bool*
 .rodata._ZTIb  0x00014154        0x8 c:/users/trent smith/desktop/sjsu_dev/yagarto/bin/../lib/gcc/arm-none-eabi/4.6.2/../../../../arm-none-eabi/lib/thumb/v7m\libstdc++.a(fundamental_type_info.o)
                0x00014154                typeinfo for bool
 .rodata._ZTIPKv
                0x0001415c       0x10 c:/users/trent smith/desktop/sjsu_dev/yagarto/bin/../lib/gcc/arm-none-eabi/4.6.2/../../../../arm-none-eabi/lib/thumb/v7m\libstdc++.a(fundamental_type_info.o)
                0x0001415c                typeinfo for void const*
 .rodata._ZTIPv
                0x0001416c       0x10 c:/users/trent smith/desktop/sjsu_dev/yagarto/bin/../lib/gcc/arm-none-eabi/4.6.2/../../../../arm-none-eabi/lib/thumb/v7m\libstdc++.a(fundamental_type_info.o)
                0x0001416c                typeinfo for void*
 .rodata._ZTIv  0x0001417c        0x8 c:/users/trent smith/desktop/sjsu_dev/yagarto/bin/../lib/gcc/arm-none-eabi/4.6.2/../../../../arm-none-eabi/lib/thumb/v7m\libstdc++.a(fundamental_type_info.o)
                0x0001417c                typeinfo for void
 .rodata._ZTSPKDn
                0x00014184        0x8 c:/users/trent smith/desktop/sjsu_dev/yagarto/bin/../lib/gcc/arm-none-eabi/4.6.2/../../../../arm-none-eabi/lib/thumb/v7m\libstdc++.a(fundamental_type_info.o)
                0x00014184                typeinfo name for decltype(nullptr) const*
 .rodata._ZTSPDn
                0x0001418c        0x4 c:/users/trent smith/desktop/sjsu_dev/yagarto/bin/../lib/gcc/arm-none-eabi/4.6.2/../../../../arm-none-eabi/lib/thumb/v7m\libstdc++.a(fundamental_type_info.o)
                0x0001418c                typeinfo name for decltype(nullptr)*
 .rodata._ZTSDn
                0x00014190        0x4 c:/users/trent smith/desktop/sjsu_dev/yagarto/bin/../lib/gcc/arm-none-eabi/4.6.2/../../../../arm-none-eabi/lib/thumb/v7m\libstdc++.a(fundamental_type_info.o)
                0x00014190                typeinfo name for decltype(nullptr)
 .rodata._ZTSPKDe
                0x00014194        0x8 c:/users/trent smith/desktop/sjsu_dev/yagarto/bin/../lib/gcc/arm-none-eabi/4.6.2/../../../../arm-none-eabi/lib/thumb/v7m\libstdc++.a(fundamental_type_info.o)
                0x00014194                typeinfo name for decimal128 const*
 .rodata._ZTSPDe
                0x0001419c        0x4 c:/users/trent smith/desktop/sjsu_dev/yagarto/bin/../lib/gcc/arm-none-eabi/4.6.2/../../../../arm-none-eabi/lib/thumb/v7m\libstdc++.a(fundamental_type_info.o)
                0x0001419c                typeinfo name for decimal128*
 .rodata._ZTSDe
                0x000141a0        0x4 c:/users/trent smith/desktop/sjsu_dev/yagarto/bin/../lib/gcc/arm-none-eabi/4.6.2/../../../../arm-none-eabi/lib/thumb/v7m\libstdc++.a(fundamental_type_info.o)
                0x000141a0                typeinfo name for decimal128
 .rodata._ZTSPKDd
                0x000141a4        0x8 c:/users/trent smith/desktop/sjsu_dev/yagarto/bin/../lib/gcc/arm-none-eabi/4.6.2/../../../../arm-none-eabi/lib/thumb/v7m\libstdc++.a(fundamental_type_info.o)
                0x000141a4                typeinfo name for decimal64 const*
 .rodata._ZTSPDd
                0x000141ac        0x4 c:/users/trent smith/desktop/sjsu_dev/yagarto/bin/../lib/gcc/arm-none-eabi/4.6.2/../../../../arm-none-eabi/lib/thumb/v7m\libstdc++.a(fundamental_type_info.o)
                0x000141ac                typeinfo name for decimal64*
 .rodata._ZTSDd
                0x000141b0        0x4 c:/users/trent smith/desktop/sjsu_dev/yagarto/bin/../lib/gcc/arm-none-eabi/4.6.2/../../../../arm-none-eabi/lib/thumb/v7m\libstdc++.a(fundamental_type_info.o)
                0x000141b0                typeinfo name for decimal64
 .rodata._ZTSPKDf
                0x000141b4        0x8 c:/users/trent smith/desktop/sjsu_dev/yagarto/bin/../lib/gcc/arm-none-eabi/4.6.2/../../../../arm-none-eabi/lib/thumb/v7m\libstdc++.a(fundamental_type_info.o)
                0x000141b4                typeinfo name for decimal32 const*
 .rodata._ZTSPDf
                0x000141bc        0x4 c:/users/trent smith/desktop/sjsu_dev/yagarto/bin/../lib/gcc/arm-none-eabi/4.6.2/../../../../arm-none-eabi/lib/thumb/v7m\libstdc++.a(fundamental_type_info.o)
                0x000141bc                typeinfo name for decimal32*
 .rodata._ZTSDf
                0x000141c0        0x4 c:/users/trent smith/desktop/sjsu_dev/yagarto/bin/../lib/gcc/arm-none-eabi/4.6.2/../../../../arm-none-eabi/lib/thumb/v7m\libstdc++.a(fundamental_type_info.o)
                0x000141c0                typeinfo name for decimal32
 .rodata._ZTSPKe
                0x000141c4        0x4 c:/users/trent smith/desktop/sjsu_dev/yagarto/bin/../lib/gcc/arm-none-eabi/4.6.2/../../../../arm-none-eabi/lib/thumb/v7m\libstdc++.a(fundamental_type_info.o)
                0x000141c4                typeinfo name for long double const*
 .rodata._ZTSPe
                0x000141c8        0x4 c:/users/trent smith/desktop/sjsu_dev/yagarto/bin/../lib/gcc/arm-none-eabi/4.6.2/../../../../arm-none-eabi/lib/thumb/v7m\libstdc++.a(fundamental_type_info.o)
                0x000141c8                typeinfo name for long double*
 .rodata._ZTSe  0x000141cc        0x4 c:/users/trent smith/desktop/sjsu_dev/yagarto/bin/../lib/gcc/arm-none-eabi/4.6.2/../../../../arm-none-eabi/lib/thumb/v7m\libstdc++.a(fundamental_type_info.o)
                0x000141cc                typeinfo name for long double
 .rodata._ZTSPKd
                0x000141d0        0x4 c:/users/trent smith/desktop/sjsu_dev/yagarto/bin/../lib/gcc/arm-none-eabi/4.6.2/../../../../arm-none-eabi/lib/thumb/v7m\libstdc++.a(fundamental_type_info.o)
                0x000141d0                typeinfo name for double const*
 .rodata._ZTSPd
                0x000141d4        0x4 c:/users/trent smith/desktop/sjsu_dev/yagarto/bin/../lib/gcc/arm-none-eabi/4.6.2/../../../../arm-none-eabi/lib/thumb/v7m\libstdc++.a(fundamental_type_info.o)
                0x000141d4                typeinfo name for double*
 .rodata._ZTSd  0x000141d8        0x4 c:/users/trent smith/desktop/sjsu_dev/yagarto/bin/../lib/gcc/arm-none-eabi/4.6.2/../../../../arm-none-eabi/lib/thumb/v7m\libstdc++.a(fundamental_type_info.o)
                0x000141d8                typeinfo name for double
 .rodata._ZTSPKf
                0x000141dc        0x4 c:/users/trent smith/desktop/sjsu_dev/yagarto/bin/../lib/gcc/arm-none-eabi/4.6.2/../../../../arm-none-eabi/lib/thumb/v7m\libstdc++.a(fundamental_type_info.o)
                0x000141dc                typeinfo name for float const*
 .rodata._ZTSPf
                0x000141e0        0x4 c:/users/trent smith/desktop/sjsu_dev/yagarto/bin/../lib/gcc/arm-none-eabi/4.6.2/../../../../arm-none-eabi/lib/thumb/v7m\libstdc++.a(fundamental_type_info.o)
                0x000141e0                typeinfo name for float*
 .rodata._ZTSf  0x000141e4        0x4 c:/users/trent smith/desktop/sjsu_dev/yagarto/bin/../lib/gcc/arm-none-eabi/4.6.2/../../../../arm-none-eabi/lib/thumb/v7m\libstdc++.a(fundamental_type_info.o)
                0x000141e4                typeinfo name for float
 .rodata._ZTSPKy
                0x000141e8        0x4 c:/users/trent smith/desktop/sjsu_dev/yagarto/bin/../lib/gcc/arm-none-eabi/4.6.2/../../../../arm-none-eabi/lib/thumb/v7m\libstdc++.a(fundamental_type_info.o)
                0x000141e8                typeinfo name for unsigned long long const*
 .rodata._ZTSPy
                0x000141ec        0x4 c:/users/trent smith/desktop/sjsu_dev/yagarto/bin/../lib/gcc/arm-none-eabi/4.6.2/../../../../arm-none-eabi/lib/thumb/v7m\libstdc++.a(fundamental_type_info.o)
                0x000141ec                typeinfo name for unsigned long long*
 .rodata._ZTSy  0x000141f0        0x4 c:/users/trent smith/desktop/sjsu_dev/yagarto/bin/../lib/gcc/arm-none-eabi/4.6.2/../../../../arm-none-eabi/lib/thumb/v7m\libstdc++.a(fundamental_type_info.o)
                0x000141f0                typeinfo name for unsigned long long
 .rodata._ZTSPKx
                0x000141f4        0x4 c:/users/trent smith/desktop/sjsu_dev/yagarto/bin/../lib/gcc/arm-none-eabi/4.6.2/../../../../arm-none-eabi/lib/thumb/v7m\libstdc++.a(fundamental_type_info.o)
                0x000141f4                typeinfo name for long long const*
 .rodata._ZTSPx
                0x000141f8        0x4 c:/users/trent smith/desktop/sjsu_dev/yagarto/bin/../lib/gcc/arm-none-eabi/4.6.2/../../../../arm-none-eabi/lib/thumb/v7m\libstdc++.a(fundamental_type_info.o)
                0x000141f8                typeinfo name for long long*
 .rodata._ZTSx  0x000141fc        0x4 c:/users/trent smith/desktop/sjsu_dev/yagarto/bin/../lib/gcc/arm-none-eabi/4.6.2/../../../../arm-none-eabi/lib/thumb/v7m\libstdc++.a(fundamental_type_info.o)
                0x000141fc                typeinfo name for long long
 .rodata._ZTSPKm
                0x00014200        0x4 c:/users/trent smith/desktop/sjsu_dev/yagarto/bin/../lib/gcc/arm-none-eabi/4.6.2/../../../../arm-none-eabi/lib/thumb/v7m\libstdc++.a(fundamental_type_info.o)
                0x00014200                typeinfo name for unsigned long const*
 .rodata._ZTSPm
                0x00014204        0x4 c:/users/trent smith/desktop/sjsu_dev/yagarto/bin/../lib/gcc/arm-none-eabi/4.6.2/../../../../arm-none-eabi/lib/thumb/v7m\libstdc++.a(fundamental_type_info.o)
                0x00014204                typeinfo name for unsigned long*
 .rodata._ZTSm  0x00014208        0x4 c:/users/trent smith/desktop/sjsu_dev/yagarto/bin/../lib/gcc/arm-none-eabi/4.6.2/../../../../arm-none-eabi/lib/thumb/v7m\libstdc++.a(fundamental_type_info.o)
                0x00014208                typeinfo name for unsigned long
 .rodata._ZTSPKl
                0x0001420c        0x4 c:/users/trent smith/desktop/sjsu_dev/yagarto/bin/../lib/gcc/arm-none-eabi/4.6.2/../../../../arm-none-eabi/lib/thumb/v7m\libstdc++.a(fundamental_type_info.o)
                0x0001420c                typeinfo name for long const*
 .rodata._ZTSPl
                0x00014210        0x4 c:/users/trent smith/desktop/sjsu_dev/yagarto/bin/../lib/gcc/arm-none-eabi/4.6.2/../../../../arm-none-eabi/lib/thumb/v7m\libstdc++.a(fundamental_type_info.o)
                0x00014210                typeinfo name for long*
 .rodata._ZTSl  0x00014214        0x4 c:/users/trent smith/desktop/sjsu_dev/yagarto/bin/../lib/gcc/arm-none-eabi/4.6.2/../../../../arm-none-eabi/lib/thumb/v7m\libstdc++.a(fundamental_type_info.o)
                0x00014214                typeinfo name for long
 .rodata._ZTSPKj
                0x00014218        0x4 c:/users/trent smith/desktop/sjsu_dev/yagarto/bin/../lib/gcc/arm-none-eabi/4.6.2/../../../../arm-none-eabi/lib/thumb/v7m\libstdc++.a(fundamental_type_info.o)
                0x00014218                typeinfo name for unsigned int const*
 .rodata._ZTSPj
                0x0001421c        0x4 c:/users/trent smith/desktop/sjsu_dev/yagarto/bin/../lib/gcc/arm-none-eabi/4.6.2/../../../../arm-none-eabi/lib/thumb/v7m\libstdc++.a(fundamental_type_info.o)
                0x0001421c                typeinfo name for unsigned int*
 .rodata._ZTSj  0x00014220        0x4 c:/users/trent smith/desktop/sjsu_dev/yagarto/bin/../lib/gcc/arm-none-eabi/4.6.2/../../../../arm-none-eabi/lib/thumb/v7m\libstdc++.a(fundamental_type_info.o)
                0x00014220                typeinfo name for unsigned int
 .rodata._ZTSPKi
                0x00014224        0x4 c:/users/trent smith/desktop/sjsu_dev/yagarto/bin/../lib/gcc/arm-none-eabi/4.6.2/../../../../arm-none-eabi/lib/thumb/v7m\libstdc++.a(fundamental_type_info.o)
                0x00014224                typeinfo name for int const*
 .rodata._ZTSPi
                0x00014228        0x4 c:/users/trent smith/desktop/sjsu_dev/yagarto/bin/../lib/gcc/arm-none-eabi/4.6.2/../../../../arm-none-eabi/lib/thumb/v7m\libstdc++.a(fundamental_type_info.o)
                0x00014228                typeinfo name for int*
 .rodata._ZTSi  0x0001422c        0x4 c:/users/trent smith/desktop/sjsu_dev/yagarto/bin/../lib/gcc/arm-none-eabi/4.6.2/../../../../arm-none-eabi/lib/thumb/v7m\libstdc++.a(fundamental_type_info.o)
                0x0001422c                typeinfo name for int
 .rodata._ZTSPKt
                0x00014230        0x4 c:/users/trent smith/desktop/sjsu_dev/yagarto/bin/../lib/gcc/arm-none-eabi/4.6.2/../../../../arm-none-eabi/lib/thumb/v7m\libstdc++.a(fundamental_type_info.o)
                0x00014230                typeinfo name for unsigned short const*
 .rodata._ZTSPt
                0x00014234        0x4 c:/users/trent smith/desktop/sjsu_dev/yagarto/bin/../lib/gcc/arm-none-eabi/4.6.2/../../../../arm-none-eabi/lib/thumb/v7m\libstdc++.a(fundamental_type_info.o)
                0x00014234                typeinfo name for unsigned short*
 .rodata._ZTSt  0x00014238        0x4 c:/users/trent smith/desktop/sjsu_dev/yagarto/bin/../lib/gcc/arm-none-eabi/4.6.2/../../../../arm-none-eabi/lib/thumb/v7m\libstdc++.a(fundamental_type_info.o)
                0x00014238                typeinfo name for unsigned short
 .rodata._ZTSPKs
                0x0001423c        0x4 c:/users/trent smith/desktop/sjsu_dev/yagarto/bin/../lib/gcc/arm-none-eabi/4.6.2/../../../../arm-none-eabi/lib/thumb/v7m\libstdc++.a(fundamental_type_info.o)
                0x0001423c                typeinfo name for short const*
 .rodata._ZTSPs
                0x00014240        0x4 c:/users/trent smith/desktop/sjsu_dev/yagarto/bin/../lib/gcc/arm-none-eabi/4.6.2/../../../../arm-none-eabi/lib/thumb/v7m\libstdc++.a(fundamental_type_info.o)
                0x00014240                typeinfo name for short*
 .rodata._ZTSs  0x00014244        0x4 c:/users/trent smith/desktop/sjsu_dev/yagarto/bin/../lib/gcc/arm-none-eabi/4.6.2/../../../../arm-none-eabi/lib/thumb/v7m\libstdc++.a(fundamental_type_info.o)
                0x00014244                typeinfo name for short
 .rodata._ZTSPKh
                0x00014248        0x4 c:/users/trent smith/desktop/sjsu_dev/yagarto/bin/../lib/gcc/arm-none-eabi/4.6.2/../../../../arm-none-eabi/lib/thumb/v7m\libstdc++.a(fundamental_type_info.o)
                0x00014248                typeinfo name for unsigned char const*
 .rodata._ZTSPh
                0x0001424c        0x4 c:/users/trent smith/desktop/sjsu_dev/yagarto/bin/../lib/gcc/arm-none-eabi/4.6.2/../../../../arm-none-eabi/lib/thumb/v7m\libstdc++.a(fundamental_type_info.o)
                0x0001424c                typeinfo name for unsigned char*
 .rodata._ZTSh  0x00014250        0x4 c:/users/trent smith/desktop/sjsu_dev/yagarto/bin/../lib/gcc/arm-none-eabi/4.6.2/../../../../arm-none-eabi/lib/thumb/v7m\libstdc++.a(fundamental_type_info.o)
                0x00014250                typeinfo name for unsigned char
 .rodata._ZTSPKa
                0x00014254        0x4 c:/users/trent smith/desktop/sjsu_dev/yagarto/bin/../lib/gcc/arm-none-eabi/4.6.2/../../../../arm-none-eabi/lib/thumb/v7m\libstdc++.a(fundamental_type_info.o)
                0x00014254                typeinfo name for signed char const*
 .rodata._ZTSPa
                0x00014258        0x4 c:/users/trent smith/desktop/sjsu_dev/yagarto/bin/../lib/gcc/arm-none-eabi/4.6.2/../../../../arm-none-eabi/lib/thumb/v7m\libstdc++.a(fundamental_type_info.o)
                0x00014258                typeinfo name for signed char*
 .rodata._ZTSa  0x0001425c        0x4 c:/users/trent smith/desktop/sjsu_dev/yagarto/bin/../lib/gcc/arm-none-eabi/4.6.2/../../../../arm-none-eabi/lib/thumb/v7m\libstdc++.a(fundamental_type_info.o)
                0x0001425c                typeinfo name for signed char
 .rodata._ZTSPKc
                0x00014260        0x4 c:/users/trent smith/desktop/sjsu_dev/yagarto/bin/../lib/gcc/arm-none-eabi/4.6.2/../../../../arm-none-eabi/lib/thumb/v7m\libstdc++.a(fundamental_type_info.o)
                0x00014260                typeinfo name for char const*
 .rodata._ZTSPc
                0x00014264        0x4 c:/users/trent smith/desktop/sjsu_dev/yagarto/bin/../lib/gcc/arm-none-eabi/4.6.2/../../../../arm-none-eabi/lib/thumb/v7m\libstdc++.a(fundamental_type_info.o)
                0x00014264                typeinfo name for char*
 .rodata._ZTSc  0x00014268        0x4 c:/users/trent smith/desktop/sjsu_dev/yagarto/bin/../lib/gcc/arm-none-eabi/4.6.2/../../../../arm-none-eabi/lib/thumb/v7m\libstdc++.a(fundamental_type_info.o)
                0x00014268                typeinfo name for char
 .rodata._ZTSPKDi
                0x0001426c        0x8 c:/users/trent smith/desktop/sjsu_dev/yagarto/bin/../lib/gcc/arm-none-eabi/4.6.2/../../../../arm-none-eabi/lib/thumb/v7m\libstdc++.a(fundamental_type_info.o)
                0x0001426c                typeinfo name for char32_t const*
 .rodata._ZTSPDi
                0x00014274        0x4 c:/users/trent smith/desktop/sjsu_dev/yagarto/bin/../lib/gcc/arm-none-eabi/4.6.2/../../../../arm-none-eabi/lib/thumb/v7m\libstdc++.a(fundamental_type_info.o)
                0x00014274                typeinfo name for char32_t*
 .rodata._ZTSDi
                0x00014278        0x4 c:/users/trent smith/desktop/sjsu_dev/yagarto/bin/../lib/gcc/arm-none-eabi/4.6.2/../../../../arm-none-eabi/lib/thumb/v7m\libstdc++.a(fundamental_type_info.o)
                0x00014278                typeinfo name for char32_t
 .rodata._ZTSPKDs
                0x0001427c        0x8 c:/users/trent smith/desktop/sjsu_dev/yagarto/bin/../lib/gcc/arm-none-eabi/4.6.2/../../../../arm-none-eabi/lib/thumb/v7m\libstdc++.a(fundamental_type_info.o)
                0x0001427c                typeinfo name for char16_t const*
 .rodata._ZTSPDs
                0x00014284        0x4 c:/users/trent smith/desktop/sjsu_dev/yagarto/bin/../lib/gcc/arm-none-eabi/4.6.2/../../../../arm-none-eabi/lib/thumb/v7m\libstdc++.a(fundamental_type_info.o)
                0x00014284                typeinfo name for char16_t*
 .rodata._ZTSDs
                0x00014288        0x4 c:/users/trent smith/desktop/sjsu_dev/yagarto/bin/../lib/gcc/arm-none-eabi/4.6.2/../../../../arm-none-eabi/lib/thumb/v7m\libstdc++.a(fundamental_type_info.o)
                0x00014288                typeinfo name for char16_t
 .rodata._ZTSPKw
                0x0001428c        0x4 c:/users/trent smith/desktop/sjsu_dev/yagarto/bin/../lib/gcc/arm-none-eabi/4.6.2/../../../../arm-none-eabi/lib/thumb/v7m\libstdc++.a(fundamental_type_info.o)
                0x0001428c                typeinfo name for wchar_t const*
 .rodata._ZTSPw
                0x00014290        0x4 c:/users/trent smith/desktop/sjsu_dev/yagarto/bin/../lib/gcc/arm-none-eabi/4.6.2/../../../../arm-none-eabi/lib/thumb/v7m\libstdc++.a(fundamental_type_info.o)
                0x00014290                typeinfo name for wchar_t*
 .rodata._ZTSw  0x00014294        0x4 c:/users/trent smith/desktop/sjsu_dev/yagarto/bin/../lib/gcc/arm-none-eabi/4.6.2/../../../../arm-none-eabi/lib/thumb/v7m\libstdc++.a(fundamental_type_info.o)
                0x00014294                typeinfo name for wchar_t
 .rodata._ZTSPKb
                0x00014298        0x4 c:/users/trent smith/desktop/sjsu_dev/yagarto/bin/../lib/gcc/arm-none-eabi/4.6.2/../../../../arm-none-eabi/lib/thumb/v7m\libstdc++.a(fundamental_type_info.o)
                0x00014298                typeinfo name for bool const*
 .rodata._ZTSPb
                0x0001429c        0x4 c:/users/trent smith/desktop/sjsu_dev/yagarto/bin/../lib/gcc/arm-none-eabi/4.6.2/../../../../arm-none-eabi/lib/thumb/v7m\libstdc++.a(fundamental_type_info.o)
                0x0001429c                typeinfo name for bool*
 .rodata._ZTSb  0x000142a0        0x4 c:/users/trent smith/desktop/sjsu_dev/yagarto/bin/../lib/gcc/arm-none-eabi/4.6.2/../../../../arm-none-eabi/lib/thumb/v7m\libstdc++.a(fundamental_type_info.o)
                0x000142a0                typeinfo name for bool
 .rodata._ZTSPKv
                0x000142a4        0x4 c:/users/trent smith/desktop/sjsu_dev/yagarto/bin/../lib/gcc/arm-none-eabi/4.6.2/../../../../arm-none-eabi/lib/thumb/v7m\libstdc++.a(fundamental_type_info.o)
                0x000142a4                typeinfo name for void const*
 .rodata._ZTSPv
                0x000142a8        0x4 c:/users/trent smith/desktop/sjsu_dev/yagarto/bin/../lib/gcc/arm-none-eabi/4.6.2/../../../../arm-none-eabi/lib/thumb/v7m\libstdc++.a(fundamental_type_info.o)
                0x000142a8                typeinfo name for void*
 .rodata._ZTSv  0x000142ac        0x4 c:/users/trent smith/desktop/sjsu_dev/yagarto/bin/../lib/gcc/arm-none-eabi/4.6.2/../../../../arm-none-eabi/lib/thumb/v7m\libstdc++.a(fundamental_type_info.o)
                0x000142ac                typeinfo name for void
 .rodata._ZTIN10__cxxabiv123__fundamental_type_infoE
                0x000142b0        0xc c:/users/trent smith/desktop/sjsu_dev/yagarto/bin/../lib/gcc/arm-none-eabi/4.6.2/../../../../arm-none-eabi/lib/thumb/v7m\libstdc++.a(fundamental_type_info.o)
                0x000142b0                typeinfo for __cxxabiv1::__fundamental_type_info
 .rodata._ZTSN10__cxxabiv123__fundamental_type_infoE
                0x000142bc       0x28 c:/users/trent smith/desktop/sjsu_dev/yagarto/bin/../lib/gcc/arm-none-eabi/4.6.2/../../../../arm-none-eabi/lib/thumb/v7m\libstdc++.a(fundamental_type_info.o)
                0x000142bc                typeinfo name for __cxxabiv1::__fundamental_type_info
 *fill*         0x000142e4        0x4 00
 .rodata._ZTVN10__cxxabiv123__fundamental_type_infoE
                0x000142e8       0x20 c:/users/trent smith/desktop/sjsu_dev/yagarto/bin/../lib/gcc/arm-none-eabi/4.6.2/../../../../arm-none-eabi/lib/thumb/v7m\libstdc++.a(fundamental_type_info.o)
                0x000142e8                vtable for __cxxabiv1::__fundamental_type_info
 .rodata._ZTSN10__cxxabiv119__pointer_type_infoE
                0x00014308       0x24 c:/users/trent smith/desktop/sjsu_dev/yagarto/bin/../lib/gcc/arm-none-eabi/4.6.2/../../../../arm-none-eabi/lib/thumb/v7m\libstdc++.a(pointer_type_info.o)
                0x00014308                typeinfo name for __cxxabiv1::__pointer_type_info
 .rodata._ZTIN10__cxxabiv119__pointer_type_infoE
                0x0001432c        0xc c:/users/trent smith/desktop/sjsu_dev/yagarto/bin/../lib/gcc/arm-none-eabi/4.6.2/../../../../arm-none-eabi/lib/thumb/v7m\libstdc++.a(pointer_type_info.o)
                0x0001432c                typeinfo for __cxxabiv1::__pointer_type_info
 .rodata._ZTVN10__cxxabiv119__pointer_type_infoE
                0x00014338       0x28 c:/users/trent smith/desktop/sjsu_dev/yagarto/bin/../lib/gcc/arm-none-eabi/4.6.2/../../../../arm-none-eabi/lib/thumb/v7m\libstdc++.a(pointer_type_info.o)
                0x00014338                vtable for __cxxabiv1::__pointer_type_info
 .rodata._ZTISt8bad_cast
                0x00014360        0xc c:/users/trent smith/desktop/sjsu_dev/yagarto/bin/../lib/gcc/arm-none-eabi/4.6.2/../../../../arm-none-eabi/lib/thumb/v7m\libstdc++.a(bad_cast.o)
                0x00014360                typeinfo for std::bad_cast
 .rodata._ZTSSt8bad_cast
                0x0001436c        0xc c:/users/trent smith/desktop/sjsu_dev/yagarto/bin/../lib/gcc/arm-none-eabi/4.6.2/../../../../arm-none-eabi/lib/thumb/v7m\libstdc++.a(bad_cast.o)
                0x0001436c                typeinfo name for std::bad_cast
 .rodata._ZTVSt8bad_cast
                0x00014378       0x18 c:/users/trent smith/desktop/sjsu_dev/yagarto/bin/../lib/gcc/arm-none-eabi/4.6.2/../../../../arm-none-eabi/lib/thumb/v7m\libstdc++.a(bad_cast.o)
                0x00014378                vtable for std::bad_cast
 .rodata.str1.4
                0x00014390        0xe c:/users/trent smith/desktop/sjsu_dev/yagarto/bin/../lib/gcc/arm-none-eabi/4.6.2/../../../../arm-none-eabi/lib/thumb/v7m\libstdc++.a(bad_cast.o)
                                 0x10 (size before relaxing)
 *fill*         0x0001439e        0x2 00
 .rodata._ZTVSt10bad_typeid
                0x000143a0       0x18 c:/users/trent smith/desktop/sjsu_dev/yagarto/bin/../lib/gcc/arm-none-eabi/4.6.2/../../../../arm-none-eabi/lib/thumb/v7m\libstdc++.a(bad_typeid.o)
                0x000143a0                vtable for std::bad_typeid
 .rodata._ZTISt10bad_typeid
                0x000143b8        0xc c:/users/trent smith/desktop/sjsu_dev/yagarto/bin/../lib/gcc/arm-none-eabi/4.6.2/../../../../arm-none-eabi/lib/thumb/v7m\libstdc++.a(bad_typeid.o)
                0x000143b8                typeinfo for std::bad_typeid
 .rodata.str1.4
                0x000143c4       0x10 c:/users/trent smith/desktop/sjsu_dev/yagarto/bin/../lib/gcc/arm-none-eabi/4.6.2/../../../../arm-none-eabi/lib/thumb/v7m\libstdc++.a(bad_typeid.o)
 .rodata._ZTSSt10bad_typeid
                0x000143d4       0x10 c:/users/trent smith/desktop/sjsu_dev/yagarto/bin/../lib/gcc/arm-none-eabi/4.6.2/../../../../arm-none-eabi/lib/thumb/v7m\libstdc++.a(bad_typeid.o)
                0x000143d4                typeinfo name for std::bad_typeid
 .rodata._ZTIN10__cxxabiv117__pbase_type_infoE
                0x000143e4        0xc c:/users/trent smith/desktop/sjsu_dev/yagarto/bin/../lib/gcc/arm-none-eabi/4.6.2/../../../../arm-none-eabi/lib/thumb/v7m\libstdc++.a(pbase_type_info.o)
                0x000143e4                typeinfo for __cxxabiv1::__pbase_type_info
 .rodata._ZTSN10__cxxabiv117__pbase_type_infoE
                0x000143f0       0x24 c:/users/trent smith/desktop/sjsu_dev/yagarto/bin/../lib/gcc/arm-none-eabi/4.6.2/../../../../arm-none-eabi/lib/thumb/v7m\libstdc++.a(pbase_type_info.o)
                0x000143f0                typeinfo name for __cxxabiv1::__pbase_type_info
 *fill*         0x00014414        0x4 00
 .rodata._ZTVN10__cxxabiv117__pbase_type_infoE
                0x00014418       0x28 c:/users/trent smith/desktop/sjsu_dev/yagarto/bin/../lib/gcc/arm-none-eabi/4.6.2/../../../../arm-none-eabi/lib/thumb/v7m\libstdc++.a(pbase_type_info.o)
                0x00014418                vtable for __cxxabiv1::__pbase_type_info
 .rodata        0x00014440        0x4 c:/users/trent smith/desktop/sjsu_dev/yagarto/bin/../lib/gcc/arm-none-eabi/4.6.2/../../../../arm-none-eabi/lib/thumb/v7m\libc.a(lib_a-impure.o)
                0x00014440                _global_impure_ptr
 .rodata.str1.4
                0x00014444        0x2 c:/users/trent smith/desktop/sjsu_dev/yagarto/bin/../lib/gcc/arm-none-eabi/4.6.2/../../../../arm-none-eabi/lib/thumb/v7m\libc.a(lib_a-impure.o)
                                  0x4 (size before relaxing)
 *fill*         0x00014446        0x2 00
 .rodata.str1.4
                0x00014448       0x21 c:/users/trent smith/desktop/sjsu_dev/yagarto/bin/../lib/gcc/arm-none-eabi/4.6.2/../../../../arm-none-eabi/lib/thumb/v7m\libc.a(lib_a-mstats.o)
                                 0x24 (size before relaxing)
 *fill*         0x00014469        0x3 00
 .rodata.str1.4
                0x0001446c        0x2 c:/users/trent smith/desktop/sjsu_dev/yagarto/bin/../lib/gcc/arm-none-eabi/4.6.2/../../../../arm-none-eabi/lib/thumb/v7m\libc.a(lib_a-puts.o)
                                  0x4 (size before relaxing)
 *fill*         0x0001446e        0x2 00
 .rodata        0x00014470      0x104 c:/users/trent smith/desktop/sjsu_dev/yagarto/bin/../lib/gcc/arm-none-eabi/4.6.2/../../../../arm-none-eabi/lib/thumb/v7m\libc.a(lib_a-ctype_.o)
                0x00014470                _ctype_
 .rodata.str1.4
                0x00014574       0x51 c:/users/trent smith/desktop/sjsu_dev/yagarto/bin/../lib/gcc/arm-none-eabi/4.6.2/../../../../arm-none-eabi/lib/thumb/v7m\libc.a(lib_a-mallstatsr.o)
                                 0x54 (size before relaxing)
 *fill*         0x000145c5        0x3 00
 .rodata        0x000145c8       0x20 c:/users/trent smith/desktop/sjsu_dev/yagarto/bin/../lib/gcc/arm-none-eabi/4.6.2/../../../../arm-none-eabi/lib/thumb/v7m\libc.a(lib_a-svfiprintf.o)
 .rodata.str1.4
                0x000145e8       0x2f c:/users/trent smith/desktop/sjsu_dev/yagarto/bin/../lib/gcc/arm-none-eabi/4.6.2/../../../../arm-none-eabi/lib/thumb/v7m\libc.a(lib_a-svfiprintf.o)
                                 0x30 (size before relaxing)
 *fill*         0x00014617        0x1 00
 .rodata        0x00014618       0x20 c:/users/trent smith/desktop/sjsu_dev/yagarto/bin/../lib/gcc/arm-none-eabi/4.6.2/../../../../arm-none-eabi/lib/thumb/v7m\libc.a(lib_a-vfiprintf.o)
 .rodata.str1.4
                0x00000000       0x30 c:/users/trent smith/desktop/sjsu_dev/yagarto/bin/../lib/gcc/arm-none-eabi/4.6.2/../../../../arm-none-eabi/lib/thumb/v7m\libc.a(lib_a-vfiprintf.o)
 .rodata.str1.4
                0x00014638        0xc c:/users/trent smith/desktop/sjsu_dev/yagarto/bin/../lib/gcc/arm-none-eabi/4.6.2/../../../../arm-none-eabi/lib/thumb/v7m\libc.a(lib_a-locale.o)
                                 0x14 (size before relaxing)
                0x00014644                . = ALIGN (0x4)
                0x00014644                . = ALIGN (0x4)
 *(.init)
                0x00014644                . = ALIGN (0x4)
                0x00014644                __preinit_array_start = .
 *(.preinit_array)
                0x00014644                __preinit_array_end = .
                0x00014644                . = ALIGN (0x4)
                0x00014644                __init_array_start = .
 *(SORT(.init_array.*))
 *(.init_array)
                0x00014644                __init_array_end = .
 *(.fini)
                0x00014644                . = ALIGN (0x4)
 *crtbegin.o(.ctors)
 *(EXCLUDE_FILE(*crtend.o) .ctors)
 *(SORT(.ctors.*))
 *crtend.o(.ctors)
                0x00014644                . = ALIGN (0x4)
 *crtbegin.o(.dtors)
 *(EXCLUDE_FILE(*crtend.o) .dtors)
 *(SORT(.dtors.*))
 *crtend.o(.dtors)

.glue_7         0x00014644        0x0
 .glue_7        0x00000000        0x0 linker stubs

.glue_7t        0x00014644        0x0
 .glue_7t       0x00000000        0x0 linker stubs

.vfp11_veneer   0x00014644        0x0
 .vfp11_veneer  0x00000000        0x0 linker stubs

.v4_bx          0x00014644        0x0
 .v4_bx         0x00000000        0x0 linker stubs

.ARM.extab      0x00014644      0x114
 *(.ARM.extab* .gnu.linkonce.armextab.*)
 .ARM.extab.text.__cxa_guard_acquire
                0x00014644        0xc c:/users/trent smith/desktop/sjsu_dev/yagarto/bin/../lib/gcc/arm-none-eabi/4.6.2/../../../../arm-none-eabi/lib/thumb/v7m\libstdc++.a(guard.o)
 .ARM.extab.text.__cxa_guard_abort
                0x00014650        0x0 c:/users/trent smith/desktop/sjsu_dev/yagarto/bin/../lib/gcc/arm-none-eabi/4.6.2/../../../../arm-none-eabi/lib/thumb/v7m\libstdc++.a(guard.o)
 .ARM.extab.text.__cxa_guard_release
                0x00014650        0x0 c:/users/trent smith/desktop/sjsu_dev/yagarto/bin/../lib/gcc/arm-none-eabi/4.6.2/../../../../arm-none-eabi/lib/thumb/v7m\libstdc++.a(guard.o)
 .ARM.extab.text._ZN9__gnu_cxx20recursive_init_errorD2Ev
                0x00014650        0x0 c:/users/trent smith/desktop/sjsu_dev/yagarto/bin/../lib/gcc/arm-none-eabi/4.6.2/../../../../arm-none-eabi/lib/thumb/v7m\libstdc++.a(guard_error.o)
 .ARM.extab.text._ZN9__gnu_cxx20recursive_init_errorD0Ev
                0x00014650        0x0 c:/users/trent smith/desktop/sjsu_dev/yagarto/bin/../lib/gcc/arm-none-eabi/4.6.2/../../../../arm-none-eabi/lib/thumb/v7m\libstdc++.a(guard_error.o)
 .ARM.extab.text.__cxa_pure_virtual
                0x00014650        0xc c:/users/trent smith/desktop/sjsu_dev/yagarto/bin/../lib/gcc/arm-none-eabi/4.6.2/../../../../arm-none-eabi/lib/thumb/v7m\libstdc++.a(pure.o)
 .ARM.extab.text._ZN10__cxxabiv120__si_class_type_infoD2Ev
                0x0001465c        0x0 c:/users/trent smith/desktop/sjsu_dev/yagarto/bin/../lib/gcc/arm-none-eabi/4.6.2/../../../../arm-none-eabi/lib/thumb/v7m\libstdc++.a(si_class_type_info.o)
 .ARM.extab.text._ZN10__cxxabiv120__si_class_type_infoD0Ev
                0x0001465c        0x0 c:/users/trent smith/desktop/sjsu_dev/yagarto/bin/../lib/gcc/arm-none-eabi/4.6.2/../../../../arm-none-eabi/lib/thumb/v7m\libstdc++.a(si_class_type_info.o)
 .ARM.extab.text._ZNK10__cxxabiv120__si_class_type_info11__do_upcastEPKNS_17__class_type_infoEPKvRNS1_15__upcast_resultE
                0x0001465c        0x0 c:/users/trent smith/desktop/sjsu_dev/yagarto/bin/../lib/gcc/arm-none-eabi/4.6.2/../../../../arm-none-eabi/lib/thumb/v7m\libstdc++.a(si_class_type_info.o)
 .ARM.extab.text._ZNK10__cxxabiv120__si_class_type_info12__do_dyncastEiNS_17__class_type_info10__sub_kindEPKS1_PKvS4_S6_RNS1_16__dyncast_resultE
                0x0001465c        0x0 c:/users/trent smith/desktop/sjsu_dev/yagarto/bin/../lib/gcc/arm-none-eabi/4.6.2/../../../../arm-none-eabi/lib/thumb/v7m\libstdc++.a(si_class_type_info.o)
 .ARM.extab.text._ZNK10__cxxabiv120__si_class_type_info20__do_find_public_srcEiPKvPKNS_17__class_type_infoES2_
                0x0001465c        0x0 c:/users/trent smith/desktop/sjsu_dev/yagarto/bin/../lib/gcc/arm-none-eabi/4.6.2/../../../../arm-none-eabi/lib/thumb/v7m\libstdc++.a(si_class_type_info.o)
 .ARM.extab.text._ZNSt9type_infoD2Ev
                0x0001465c        0x0 c:/users/trent smith/desktop/sjsu_dev/yagarto/bin/../lib/gcc/arm-none-eabi/4.6.2/../../../../arm-none-eabi/lib/thumb/v7m\libstdc++.a(tinfo.o)
 .ARM.extab.text._ZNKSt9type_info14__is_pointer_pEv
                0x0001465c        0x0 c:/users/trent smith/desktop/sjsu_dev/yagarto/bin/../lib/gcc/arm-none-eabi/4.6.2/../../../../arm-none-eabi/lib/thumb/v7m\libstdc++.a(tinfo.o)
 .ARM.extab.text._ZNKSt9type_info15__is_function_pEv
                0x0001465c        0x0 c:/users/trent smith/desktop/sjsu_dev/yagarto/bin/../lib/gcc/arm-none-eabi/4.6.2/../../../../arm-none-eabi/lib/thumb/v7m\libstdc++.a(tinfo.o)
 .ARM.extab.text._ZNKSt9type_info11__do_upcastEPKN10__cxxabiv117__class_type_infoEPPv
                0x0001465c        0x0 c:/users/trent smith/desktop/sjsu_dev/yagarto/bin/../lib/gcc/arm-none-eabi/4.6.2/../../../../arm-none-eabi/lib/thumb/v7m\libstdc++.a(tinfo.o)
 .ARM.extab.text._ZNSt9type_infoD0Ev
                0x0001465c        0x0 c:/users/trent smith/desktop/sjsu_dev/yagarto/bin/../lib/gcc/arm-none-eabi/4.6.2/../../../../arm-none-eabi/lib/thumb/v7m\libstdc++.a(tinfo.o)
 .ARM.extab.text._ZNKSt9type_infoeqERKS_
                0x0001465c        0x0 c:/users/trent smith/desktop/sjsu_dev/yagarto/bin/../lib/gcc/arm-none-eabi/4.6.2/../../../../arm-none-eabi/lib/thumb/v7m\libstdc++.a(tinfo.o)
 .ARM.extab.text._ZNKSt9type_info10__do_catchEPKS_PPvj
                0x0001465c        0x0 c:/users/trent smith/desktop/sjsu_dev/yagarto/bin/../lib/gcc/arm-none-eabi/4.6.2/../../../../arm-none-eabi/lib/thumb/v7m\libstdc++.a(tinfo.o)
 .ARM.extab.text._ZNK10__cxxabiv117__class_type_info11__do_upcastEPKS0_PPv
                0x0001465c        0x0 c:/users/trent smith/desktop/sjsu_dev/yagarto/bin/../lib/gcc/arm-none-eabi/4.6.2/../../../../arm-none-eabi/lib/thumb/v7m\libstdc++.a(class_type_info.o)
 .ARM.extab.text._ZNK10__cxxabiv117__class_type_info20__do_find_public_srcEiPKvPKS0_S2_
                0x0001465c        0x0 c:/users/trent smith/desktop/sjsu_dev/yagarto/bin/../lib/gcc/arm-none-eabi/4.6.2/../../../../arm-none-eabi/lib/thumb/v7m\libstdc++.a(class_type_info.o)
 .ARM.extab.text._ZNK10__cxxabiv117__class_type_info11__do_upcastEPKS0_PKvRNS0_15__upcast_resultE
                0x0001465c        0x0 c:/users/trent smith/desktop/sjsu_dev/yagarto/bin/../lib/gcc/arm-none-eabi/4.6.2/../../../../arm-none-eabi/lib/thumb/v7m\libstdc++.a(class_type_info.o)
 .ARM.extab.text._ZN10__cxxabiv117__class_type_infoD2Ev
                0x0001465c        0x0 c:/users/trent smith/desktop/sjsu_dev/yagarto/bin/../lib/gcc/arm-none-eabi/4.6.2/../../../../arm-none-eabi/lib/thumb/v7m\libstdc++.a(class_type_info.o)
 .ARM.extab.text._ZN10__cxxabiv117__class_type_infoD0Ev
                0x0001465c        0x0 c:/users/trent smith/desktop/sjsu_dev/yagarto/bin/../lib/gcc/arm-none-eabi/4.6.2/../../../../arm-none-eabi/lib/thumb/v7m\libstdc++.a(class_type_info.o)
 .ARM.extab.text._ZNK10__cxxabiv117__class_type_info12__do_dyncastEiNS0_10__sub_kindEPKS0_PKvS3_S5_RNS0_16__dyncast_resultE
                0x0001465c        0x0 c:/users/trent smith/desktop/sjsu_dev/yagarto/bin/../lib/gcc/arm-none-eabi/4.6.2/../../../../arm-none-eabi/lib/thumb/v7m\libstdc++.a(class_type_info.o)
 .ARM.extab.text._ZNK10__cxxabiv117__class_type_info10__do_catchEPKSt9type_infoPPvj
                0x0001465c        0x0 c:/users/trent smith/desktop/sjsu_dev/yagarto/bin/../lib/gcc/arm-none-eabi/4.6.2/../../../../arm-none-eabi/lib/thumb/v7m\libstdc++.a(class_type_info.o)
 .ARM.extab.text.__cxa_allocate_exception
                0x0001465c        0x0 c:/users/trent smith/desktop/sjsu_dev/yagarto/bin/../lib/gcc/arm-none-eabi/4.6.2/../../../../arm-none-eabi/lib/thumb/v7m\libstdc++.a(eh_alloc.o)
 .ARM.extab.text.__cxa_free_exception
                0x0001465c        0x0 c:/users/trent smith/desktop/sjsu_dev/yagarto/bin/../lib/gcc/arm-none-eabi/4.6.2/../../../../arm-none-eabi/lib/thumb/v7m\libstdc++.a(eh_alloc.o)
 .ARM.extab.text.__cxa_allocate_dependent_exception
                0x0001465c        0x0 c:/users/trent smith/desktop/sjsu_dev/yagarto/bin/../lib/gcc/arm-none-eabi/4.6.2/../../../../arm-none-eabi/lib/thumb/v7m\libstdc++.a(eh_alloc.o)
 .ARM.extab.text.__cxa_free_dependent_exception
                0x0001465c        0x0 c:/users/trent smith/desktop/sjsu_dev/yagarto/bin/../lib/gcc/arm-none-eabi/4.6.2/../../../../arm-none-eabi/lib/thumb/v7m\libstdc++.a(eh_alloc.o)
 .ARM.extab.text._ZNSt9exceptionD2Ev
                0x0001465c        0x0 c:/users/trent smith/desktop/sjsu_dev/yagarto/bin/../lib/gcc/arm-none-eabi/4.6.2/../../../../arm-none-eabi/lib/thumb/v7m\libstdc++.a(eh_exception.o)
 .ARM.extab.text._ZNSt13bad_exceptionD2Ev
                0x0001465c        0x0 c:/users/trent smith/desktop/sjsu_dev/yagarto/bin/../lib/gcc/arm-none-eabi/4.6.2/../../../../arm-none-eabi/lib/thumb/v7m\libstdc++.a(eh_exception.o)
 .ARM.extab.text._ZN10__cxxabiv115__forced_unwindD2Ev
                0x0001465c        0x0 c:/users/trent smith/desktop/sjsu_dev/yagarto/bin/../lib/gcc/arm-none-eabi/4.6.2/../../../../arm-none-eabi/lib/thumb/v7m\libstdc++.a(eh_exception.o)
 .ARM.extab.text._ZN10__cxxabiv119__foreign_exceptionD2Ev
                0x0001465c        0x0 c:/users/trent smith/desktop/sjsu_dev/yagarto/bin/../lib/gcc/arm-none-eabi/4.6.2/../../../../arm-none-eabi/lib/thumb/v7m\libstdc++.a(eh_exception.o)
 .ARM.extab.text._ZNKSt9exception4whatEv
                0x0001465c        0x0 c:/users/trent smith/desktop/sjsu_dev/yagarto/bin/../lib/gcc/arm-none-eabi/4.6.2/../../../../arm-none-eabi/lib/thumb/v7m\libstdc++.a(eh_exception.o)
 .ARM.extab.text._ZNKSt13bad_exception4whatEv
                0x0001465c        0x0 c:/users/trent smith/desktop/sjsu_dev/yagarto/bin/../lib/gcc/arm-none-eabi/4.6.2/../../../../arm-none-eabi/lib/thumb/v7m\libstdc++.a(eh_exception.o)
 .ARM.extab.text._ZN10__cxxabiv119__foreign_exceptionD0Ev
                0x0001465c        0x0 c:/users/trent smith/desktop/sjsu_dev/yagarto/bin/../lib/gcc/arm-none-eabi/4.6.2/../../../../arm-none-eabi/lib/thumb/v7m\libstdc++.a(eh_exception.o)
 .ARM.extab.text._ZN10__cxxabiv115__forced_unwindD0Ev
                0x0001465c        0x0 c:/users/trent smith/desktop/sjsu_dev/yagarto/bin/../lib/gcc/arm-none-eabi/4.6.2/../../../../arm-none-eabi/lib/thumb/v7m\libstdc++.a(eh_exception.o)
 .ARM.extab.text._ZNSt13bad_exceptionD0Ev
                0x0001465c        0x0 c:/users/trent smith/desktop/sjsu_dev/yagarto/bin/../lib/gcc/arm-none-eabi/4.6.2/../../../../arm-none-eabi/lib/thumb/v7m\libstdc++.a(eh_exception.o)
 .ARM.extab.text._ZNSt9exceptionD0Ev
                0x0001465c        0x0 c:/users/trent smith/desktop/sjsu_dev/yagarto/bin/../lib/gcc/arm-none-eabi/4.6.2/../../../../arm-none-eabi/lib/thumb/v7m\libstdc++.a(eh_exception.o)
 .ARM.extab.text.__cxa_get_globals_fast
                0x0001465c        0x0 c:/users/trent smith/desktop/sjsu_dev/yagarto/bin/../lib/gcc/arm-none-eabi/4.6.2/../../../../arm-none-eabi/lib/thumb/v7m\libstdc++.a(eh_globals.o)
 .ARM.extab.text.__cxa_get_globals
                0x0001465c        0x0 c:/users/trent smith/desktop/sjsu_dev/yagarto/bin/../lib/gcc/arm-none-eabi/4.6.2/../../../../arm-none-eabi/lib/thumb/v7m\libstdc++.a(eh_globals.o)
 .ARM.extab.text._ZN10__cxxabiv111__terminateEPFvvE
                0x0001465c       0x2c c:/users/trent smith/desktop/sjsu_dev/yagarto/bin/../lib/gcc/arm-none-eabi/4.6.2/../../../../arm-none-eabi/lib/thumb/v7m\libstdc++.a(eh_terminate.o)
 .ARM.extab.text._ZSt9terminatev
                0x00014688        0x0 c:/users/trent smith/desktop/sjsu_dev/yagarto/bin/../lib/gcc/arm-none-eabi/4.6.2/../../../../arm-none-eabi/lib/thumb/v7m\libstdc++.a(eh_terminate.o)
 .ARM.extab.text._ZN10__cxxabiv112__unexpectedEPFvvE
                0x00014688        0xc c:/users/trent smith/desktop/sjsu_dev/yagarto/bin/../lib/gcc/arm-none-eabi/4.6.2/../../../../arm-none-eabi/lib/thumb/v7m\libstdc++.a(eh_terminate.o)
 .ARM.extab.text._ZSt10unexpectedv
                0x00014694        0xc c:/users/trent smith/desktop/sjsu_dev/yagarto/bin/../lib/gcc/arm-none-eabi/4.6.2/../../../../arm-none-eabi/lib/thumb/v7m\libstdc++.a(eh_terminate.o)
 .ARM.extab.text._ZSt13set_terminatePFvvE
                0x000146a0        0x0 c:/users/trent smith/desktop/sjsu_dev/yagarto/bin/../lib/gcc/arm-none-eabi/4.6.2/../../../../arm-none-eabi/lib/thumb/v7m\libstdc++.a(eh_terminate.o)
 .ARM.extab.text._ZSt14set_unexpectedPFvvE
                0x000146a0        0x0 c:/users/trent smith/desktop/sjsu_dev/yagarto/bin/../lib/gcc/arm-none-eabi/4.6.2/../../../../arm-none-eabi/lib/thumb/v7m\libstdc++.a(eh_terminate.o)
 .ARM.extab.text._ZL23__gxx_exception_cleanup19_Unwind_Reason_CodeP21_Unwind_Control_Block
                0x000146a0        0x0 c:/users/trent smith/desktop/sjsu_dev/yagarto/bin/../lib/gcc/arm-none-eabi/4.6.2/../../../../arm-none-eabi/lib/thumb/v7m\libstdc++.a(eh_throw.o)
 .ARM.extab.text.__cxa_throw
                0x000146a0        0x0 c:/users/trent smith/desktop/sjsu_dev/yagarto/bin/../lib/gcc/arm-none-eabi/4.6.2/../../../../arm-none-eabi/lib/thumb/v7m\libstdc++.a(eh_throw.o)
 .ARM.extab.text.__cxa_rethrow
                0x000146a0        0x0 c:/users/trent smith/desktop/sjsu_dev/yagarto/bin/../lib/gcc/arm-none-eabi/4.6.2/../../../../arm-none-eabi/lib/thumb/v7m\libstdc++.a(eh_throw.o)
 .ARM.extab.text.__cxa_type_match
                0x000146a0        0x0 c:/users/trent smith/desktop/sjsu_dev/yagarto/bin/../lib/gcc/arm-none-eabi/4.6.2/../../../../arm-none-eabi/lib/thumb/v7m\libstdc++.a(eh_arm.o)
 .ARM.extab.text.__cxa_begin_cleanup
                0x000146a0        0x0 c:/users/trent smith/desktop/sjsu_dev/yagarto/bin/../lib/gcc/arm-none-eabi/4.6.2/../../../../arm-none-eabi/lib/thumb/v7m\libstdc++.a(eh_arm.o)
 .ARM.extab.text.__gnu_end_cleanup
                0x000146a0        0x0 c:/users/trent smith/desktop/sjsu_dev/yagarto/bin/../lib/gcc/arm-none-eabi/4.6.2/../../../../arm-none-eabi/lib/thumb/v7m\libstdc++.a(eh_arm.o)
 .ARM.extab.text.__cxa_bad_cast
                0x000146a0        0xc c:/users/trent smith/desktop/sjsu_dev/yagarto/bin/../lib/gcc/arm-none-eabi/4.6.2/../../../../arm-none-eabi/lib/thumb/v7m\libstdc++.a(eh_aux_runtime.o)
 .ARM.extab.text.__cxa_bad_typeid
                0x000146ac        0xc c:/users/trent smith/desktop/sjsu_dev/yagarto/bin/../lib/gcc/arm-none-eabi/4.6.2/../../../../arm-none-eabi/lib/thumb/v7m\libstdc++.a(eh_aux_runtime.o)
 .ARM.extab.text.__cxa_call_terminate
                0x000146b8        0x0 c:/users/trent smith/desktop/sjsu_dev/yagarto/bin/../lib/gcc/arm-none-eabi/4.6.2/../../../../arm-none-eabi/lib/thumb/v7m\libstdc++.a(eh_call.o)
 .ARM.extab.text.__cxa_call_unexpected
                0x000146b8       0x28 c:/users/trent smith/desktop/sjsu_dev/yagarto/bin/../lib/gcc/arm-none-eabi/4.6.2/../../../../arm-none-eabi/lib/thumb/v7m\libstdc++.a(eh_call.o)
 .ARM.extab.text.__cxa_get_exception_ptr
                0x000146e0        0x0 c:/users/trent smith/desktop/sjsu_dev/yagarto/bin/../lib/gcc/arm-none-eabi/4.6.2/../../../../arm-none-eabi/lib/thumb/v7m\libstdc++.a(eh_catch.o)
 .ARM.extab.text.__cxa_begin_catch
                0x000146e0       0x1c c:/users/trent smith/desktop/sjsu_dev/yagarto/bin/../lib/gcc/arm-none-eabi/4.6.2/../../../../arm-none-eabi/lib/thumb/v7m\libstdc++.a(eh_catch.o)
 .ARM.extab.text.__cxa_end_catch
                0x000146fc        0x0 c:/users/trent smith/desktop/sjsu_dev/yagarto/bin/../lib/gcc/arm-none-eabi/4.6.2/../../../../arm-none-eabi/lib/thumb/v7m\libstdc++.a(eh_catch.o)
 .ARM.extab.text._ZSt18uncaught_exceptionv
                0x000146fc        0x0 c:/users/trent smith/desktop/sjsu_dev/yagarto/bin/../lib/gcc/arm-none-eabi/4.6.2/../../../../arm-none-eabi/lib/thumb/v7m\libstdc++.a(eh_catch.o)
 .ARM.extab.text._ZL12read_sleb128PKhPl
                0x000146fc        0x0 c:/users/trent smith/desktop/sjsu_dev/yagarto/bin/../lib/gcc/arm-none-eabi/4.6.2/../../../../arm-none-eabi/lib/thumb/v7m\libstdc++.a(eh_personality.o)
 .ARM.extab.text._ZL28read_encoded_value_with_basehjPKhPj
                0x000146fc        0x0 c:/users/trent smith/desktop/sjsu_dev/yagarto/bin/../lib/gcc/arm-none-eabi/4.6.2/../../../../arm-none-eabi/lib/thumb/v7m\libstdc++.a(eh_personality.o)
 .ARM.extab.text._ZL21base_of_encoded_valuehP15_Unwind_Context
                0x000146fc        0xc c:/users/trent smith/desktop/sjsu_dev/yagarto/bin/../lib/gcc/arm-none-eabi/4.6.2/../../../../arm-none-eabi/lib/thumb/v7m\libstdc++.a(eh_personality.o)
 .ARM.extab.text._ZL17parse_lsda_headerP15_Unwind_ContextPKhP16lsda_header_info.constprop.1
                0x00014708        0x0 c:/users/trent smith/desktop/sjsu_dev/yagarto/bin/../lib/gcc/arm-none-eabi/4.6.2/../../../../arm-none-eabi/lib/thumb/v7m\libstdc++.a(eh_personality.o)
 .ARM.extab.text.__gxx_personality_v0
                0x00014708       0x20 c:/users/trent smith/desktop/sjsu_dev/yagarto/bin/../lib/gcc/arm-none-eabi/4.6.2/../../../../arm-none-eabi/lib/thumb/v7m\libstdc++.a(eh_personality.o)
 .ARM.extab.text._ZN10__cxxabiv123__fundamental_type_infoD2Ev
                0x00014728        0x0 c:/users/trent smith/desktop/sjsu_dev/yagarto/bin/../lib/gcc/arm-none-eabi/4.6.2/../../../../arm-none-eabi/lib/thumb/v7m\libstdc++.a(fundamental_type_info.o)
 .ARM.extab.text._ZN10__cxxabiv123__fundamental_type_infoD0Ev
                0x00014728        0x0 c:/users/trent smith/desktop/sjsu_dev/yagarto/bin/../lib/gcc/arm-none-eabi/4.6.2/../../../../arm-none-eabi/lib/thumb/v7m\libstdc++.a(fundamental_type_info.o)
 .ARM.extab.text._ZNK10__cxxabiv119__pointer_type_info14__is_pointer_pEv
                0x00014728        0x0 c:/users/trent smith/desktop/sjsu_dev/yagarto/bin/../lib/gcc/arm-none-eabi/4.6.2/../../../../arm-none-eabi/lib/thumb/v7m\libstdc++.a(pointer_type_info.o)
 .ARM.extab.text._ZN10__cxxabiv119__pointer_type_infoD2Ev
                0x00014728        0x0 c:/users/trent smith/desktop/sjsu_dev/yagarto/bin/../lib/gcc/arm-none-eabi/4.6.2/../../../../arm-none-eabi/lib/thumb/v7m\libstdc++.a(pointer_type_info.o)
 .ARM.extab.text._ZN10__cxxabiv119__pointer_type_infoD0Ev
                0x00014728        0x0 c:/users/trent smith/desktop/sjsu_dev/yagarto/bin/../lib/gcc/arm-none-eabi/4.6.2/../../../../arm-none-eabi/lib/thumb/v7m\libstdc++.a(pointer_type_info.o)
 .ARM.extab.text._ZNK10__cxxabiv119__pointer_type_info15__pointer_catchEPKNS_17__pbase_type_infoEPPvj
                0x00014728        0x0 c:/users/trent smith/desktop/sjsu_dev/yagarto/bin/../lib/gcc/arm-none-eabi/4.6.2/../../../../arm-none-eabi/lib/thumb/v7m\libstdc++.a(pointer_type_info.o)
 .ARM.extab.text._ZNKSt8bad_cast4whatEv
                0x00014728        0x0 c:/users/trent smith/desktop/sjsu_dev/yagarto/bin/../lib/gcc/arm-none-eabi/4.6.2/../../../../arm-none-eabi/lib/thumb/v7m\libstdc++.a(bad_cast.o)
 .ARM.extab.text._ZNSt8bad_castD2Ev
                0x00014728        0x0 c:/users/trent smith/desktop/sjsu_dev/yagarto/bin/../lib/gcc/arm-none-eabi/4.6.2/../../../../arm-none-eabi/lib/thumb/v7m\libstdc++.a(bad_cast.o)
 .ARM.extab.text._ZNSt8bad_castD0Ev
                0x00014728        0x0 c:/users/trent smith/desktop/sjsu_dev/yagarto/bin/../lib/gcc/arm-none-eabi/4.6.2/../../../../arm-none-eabi/lib/thumb/v7m\libstdc++.a(bad_cast.o)
 .ARM.extab.text._ZNKSt10bad_typeid4whatEv
                0x00014728        0x0 c:/users/trent smith/desktop/sjsu_dev/yagarto/bin/../lib/gcc/arm-none-eabi/4.6.2/../../../../arm-none-eabi/lib/thumb/v7m\libstdc++.a(bad_typeid.o)
 .ARM.extab.text._ZNSt10bad_typeidD2Ev
                0x00014728        0x0 c:/users/trent smith/desktop/sjsu_dev/yagarto/bin/../lib/gcc/arm-none-eabi/4.6.2/../../../../arm-none-eabi/lib/thumb/v7m\libstdc++.a(bad_typeid.o)
 .ARM.extab.text._ZNSt10bad_typeidD0Ev
                0x00014728        0x0 c:/users/trent smith/desktop/sjsu_dev/yagarto/bin/../lib/gcc/arm-none-eabi/4.6.2/../../../../arm-none-eabi/lib/thumb/v7m\libstdc++.a(bad_typeid.o)
 .ARM.extab.text._ZNK10__cxxabiv117__pbase_type_info15__pointer_catchEPKS0_PPvj
                0x00014728        0x0 c:/users/trent smith/desktop/sjsu_dev/yagarto/bin/../lib/gcc/arm-none-eabi/4.6.2/../../../../arm-none-eabi/lib/thumb/v7m\libstdc++.a(pbase_type_info.o)
 .ARM.extab.text._ZN10__cxxabiv117__pbase_type_infoD2Ev
                0x00014728        0x0 c:/users/trent smith/desktop/sjsu_dev/yagarto/bin/../lib/gcc/arm-none-eabi/4.6.2/../../../../arm-none-eabi/lib/thumb/v7m\libstdc++.a(pbase_type_info.o)
 .ARM.extab.text._ZN10__cxxabiv117__pbase_type_infoD0Ev
                0x00014728        0x0 c:/users/trent smith/desktop/sjsu_dev/yagarto/bin/../lib/gcc/arm-none-eabi/4.6.2/../../../../arm-none-eabi/lib/thumb/v7m\libstdc++.a(pbase_type_info.o)
 .ARM.extab.text._ZNK10__cxxabiv117__pbase_type_info10__do_catchEPKSt9type_infoPPvj
                0x00014728        0x0 c:/users/trent smith/desktop/sjsu_dev/yagarto/bin/../lib/gcc/arm-none-eabi/4.6.2/../../../../arm-none-eabi/lib/thumb/v7m\libstdc++.a(pbase_type_info.o)
 .ARM.extab     0x00014728       0x18 c:/users/trent smith/desktop/sjsu_dev/yagarto/bin/../lib/gcc/arm-none-eabi/4.6.2/thumb/v7m\libgcc.a(unwind-arm.o)
 .ARM.extab     0x00014740       0x18 c:/users/trent smith/desktop/sjsu_dev/yagarto/bin/../lib/gcc/arm-none-eabi/4.6.2/thumb/v7m\libgcc.a(pr-support.o)
                0x00014758                __exidx_start = .

.ARM.exidx      0x00014758      0x220
 *(.ARM.exidx* .gnu.linkonce.armexidx.*)
 .ARM.exidx.text.__cxa_guard_acquire
                0x00014758        0x8 c:/users/trent smith/desktop/sjsu_dev/yagarto/bin/../lib/gcc/arm-none-eabi/4.6.2/../../../../arm-none-eabi/lib/thumb/v7m\libstdc++.a(guard.o)
 .ARM.exidx.text.__cxa_guard_abort
                0x00014760        0x8 c:/users/trent smith/desktop/sjsu_dev/yagarto/bin/../lib/gcc/arm-none-eabi/4.6.2/../../../../arm-none-eabi/lib/thumb/v7m\libstdc++.a(guard.o)
 .ARM.exidx.text.__cxa_guard_release
                0x00014768        0x0 c:/users/trent smith/desktop/sjsu_dev/yagarto/bin/../lib/gcc/arm-none-eabi/4.6.2/../../../../arm-none-eabi/lib/thumb/v7m\libstdc++.a(guard.o)
                                  0x8 (size before relaxing)
 .ARM.exidx.text._ZN9__gnu_cxx20recursive_init_errorD2Ev
                0x00014768        0x0 c:/users/trent smith/desktop/sjsu_dev/yagarto/bin/../lib/gcc/arm-none-eabi/4.6.2/../../../../arm-none-eabi/lib/thumb/v7m\libstdc++.a(guard_error.o)
                                  0x8 (size before relaxing)
 .ARM.exidx.text._ZN9__gnu_cxx20recursive_init_errorD0Ev
                0x00014768        0x0 c:/users/trent smith/desktop/sjsu_dev/yagarto/bin/../lib/gcc/arm-none-eabi/4.6.2/../../../../arm-none-eabi/lib/thumb/v7m\libstdc++.a(guard_error.o)
                                  0x8 (size before relaxing)
 .ARM.exidx.text.__cxa_pure_virtual
                0x00014768        0x8 c:/users/trent smith/desktop/sjsu_dev/yagarto/bin/../lib/gcc/arm-none-eabi/4.6.2/../../../../arm-none-eabi/lib/thumb/v7m\libstdc++.a(pure.o)
 .ARM.exidx.text._ZN10__cxxabiv120__si_class_type_infoD2Ev
                0x00014770        0x8 c:/users/trent smith/desktop/sjsu_dev/yagarto/bin/../lib/gcc/arm-none-eabi/4.6.2/../../../../arm-none-eabi/lib/thumb/v7m\libstdc++.a(si_class_type_info.o)
 .ARM.exidx.text._ZN10__cxxabiv120__si_class_type_infoD0Ev
                0x00014778        0x0 c:/users/trent smith/desktop/sjsu_dev/yagarto/bin/../lib/gcc/arm-none-eabi/4.6.2/../../../../arm-none-eabi/lib/thumb/v7m\libstdc++.a(si_class_type_info.o)
                                  0x8 (size before relaxing)
 .ARM.exidx.text._ZNK10__cxxabiv120__si_class_type_info11__do_upcastEPKNS_17__class_type_infoEPKvRNS1_15__upcast_resultE
                0x00014778        0x8 c:/users/trent smith/desktop/sjsu_dev/yagarto/bin/../lib/gcc/arm-none-eabi/4.6.2/../../../../arm-none-eabi/lib/thumb/v7m\libstdc++.a(si_class_type_info.o)
 .ARM.exidx.text._ZNK10__cxxabiv120__si_class_type_info12__do_dyncastEiNS_17__class_type_info10__sub_kindEPKS1_PKvS4_S6_RNS1_16__dyncast_resultE
                0x00014780        0x8 c:/users/trent smith/desktop/sjsu_dev/yagarto/bin/../lib/gcc/arm-none-eabi/4.6.2/../../../../arm-none-eabi/lib/thumb/v7m\libstdc++.a(si_class_type_info.o)
 .ARM.exidx.text._ZNK10__cxxabiv120__si_class_type_info20__do_find_public_srcEiPKvPKNS_17__class_type_infoES2_
                0x00014788        0x8 c:/users/trent smith/desktop/sjsu_dev/yagarto/bin/../lib/gcc/arm-none-eabi/4.6.2/../../../../arm-none-eabi/lib/thumb/v7m\libstdc++.a(si_class_type_info.o)
 .ARM.exidx.text._ZNSt9type_infoD2Ev
                0x00014790        0x8 c:/users/trent smith/desktop/sjsu_dev/yagarto/bin/../lib/gcc/arm-none-eabi/4.6.2/../../../../arm-none-eabi/lib/thumb/v7m\libstdc++.a(tinfo.o)
 .ARM.exidx.text._ZNKSt9type_info14__is_pointer_pEv
                0x00014798        0x0 c:/users/trent smith/desktop/sjsu_dev/yagarto/bin/../lib/gcc/arm-none-eabi/4.6.2/../../../../arm-none-eabi/lib/thumb/v7m\libstdc++.a(tinfo.o)
                                  0x8 (size before relaxing)
 .ARM.exidx.text._ZNKSt9type_info15__is_function_pEv
                0x00014798        0x0 c:/users/trent smith/desktop/sjsu_dev/yagarto/bin/../lib/gcc/arm-none-eabi/4.6.2/../../../../arm-none-eabi/lib/thumb/v7m\libstdc++.a(tinfo.o)
                                  0x8 (size before relaxing)
 .ARM.exidx.text._ZNKSt9type_info11__do_upcastEPKN10__cxxabiv117__class_type_infoEPPv
                0x00014798        0x0 c:/users/trent smith/desktop/sjsu_dev/yagarto/bin/../lib/gcc/arm-none-eabi/4.6.2/../../../../arm-none-eabi/lib/thumb/v7m\libstdc++.a(tinfo.o)
                                  0x8 (size before relaxing)
 .ARM.exidx.text._ZNSt9type_infoD0Ev
                0x00014798        0x0 c:/users/trent smith/desktop/sjsu_dev/yagarto/bin/../lib/gcc/arm-none-eabi/4.6.2/../../../../arm-none-eabi/lib/thumb/v7m\libstdc++.a(tinfo.o)
                                  0x8 (size before relaxing)
 .ARM.exidx.text._ZNKSt9type_infoeqERKS_
                0x00014798        0x0 c:/users/trent smith/desktop/sjsu_dev/yagarto/bin/../lib/gcc/arm-none-eabi/4.6.2/../../../../arm-none-eabi/lib/thumb/v7m\libstdc++.a(tinfo.o)
                                  0x8 (size before relaxing)
 .ARM.exidx.text._ZNKSt9type_info10__do_catchEPKS_PPvj
                0x00014798        0x0 c:/users/trent smith/desktop/sjsu_dev/yagarto/bin/../lib/gcc/arm-none-eabi/4.6.2/../../../../arm-none-eabi/lib/thumb/v7m\libstdc++.a(tinfo.o)
                                  0x8 (size before relaxing)
 .ARM.exidx.text._ZNK10__cxxabiv117__class_type_info11__do_upcastEPKS0_PPv
                0x00014798        0x8 c:/users/trent smith/desktop/sjsu_dev/yagarto/bin/../lib/gcc/arm-none-eabi/4.6.2/../../../../arm-none-eabi/lib/thumb/v7m\libstdc++.a(class_type_info.o)
 .ARM.exidx.text._ZNK10__cxxabiv117__class_type_info20__do_find_public_srcEiPKvPKS0_S2_
                0x000147a0        0x8 c:/users/trent smith/desktop/sjsu_dev/yagarto/bin/../lib/gcc/arm-none-eabi/4.6.2/../../../../arm-none-eabi/lib/thumb/v7m\libstdc++.a(class_type_info.o)
 .ARM.exidx.text._ZNK10__cxxabiv117__class_type_info11__do_upcastEPKS0_PKvRNS0_15__upcast_resultE
                0x000147a8        0x8 c:/users/trent smith/desktop/sjsu_dev/yagarto/bin/../lib/gcc/arm-none-eabi/4.6.2/../../../../arm-none-eabi/lib/thumb/v7m\libstdc++.a(class_type_info.o)
 .ARM.exidx.text._ZN10__cxxabiv117__class_type_infoD2Ev
                0x000147b0        0x8 c:/users/trent smith/desktop/sjsu_dev/yagarto/bin/../lib/gcc/arm-none-eabi/4.6.2/../../../../arm-none-eabi/lib/thumb/v7m\libstdc++.a(class_type_info.o)
 .ARM.exidx.text._ZN10__cxxabiv117__class_type_infoD0Ev
                0x000147b8        0x0 c:/users/trent smith/desktop/sjsu_dev/yagarto/bin/../lib/gcc/arm-none-eabi/4.6.2/../../../../arm-none-eabi/lib/thumb/v7m\libstdc++.a(class_type_info.o)
                                  0x8 (size before relaxing)
 .ARM.exidx.text._ZNK10__cxxabiv117__class_type_info12__do_dyncastEiNS0_10__sub_kindEPKS0_PKvS3_S5_RNS0_16__dyncast_resultE
                0x000147b8        0x8 c:/users/trent smith/desktop/sjsu_dev/yagarto/bin/../lib/gcc/arm-none-eabi/4.6.2/../../../../arm-none-eabi/lib/thumb/v7m\libstdc++.a(class_type_info.o)
 .ARM.exidx.text._ZNK10__cxxabiv117__class_type_info10__do_catchEPKSt9type_infoPPvj
                0x000147c0        0x8 c:/users/trent smith/desktop/sjsu_dev/yagarto/bin/../lib/gcc/arm-none-eabi/4.6.2/../../../../arm-none-eabi/lib/thumb/v7m\libstdc++.a(class_type_info.o)
 .ARM.exidx.text.__cxa_allocate_exception
                0x000147c8        0x8 c:/users/trent smith/desktop/sjsu_dev/yagarto/bin/../lib/gcc/arm-none-eabi/4.6.2/../../../../arm-none-eabi/lib/thumb/v7m\libstdc++.a(eh_alloc.o)
 .ARM.exidx.text.__cxa_free_exception
                0x000147d0        0x0 c:/users/trent smith/desktop/sjsu_dev/yagarto/bin/../lib/gcc/arm-none-eabi/4.6.2/../../../../arm-none-eabi/lib/thumb/v7m\libstdc++.a(eh_alloc.o)
                                  0x8 (size before relaxing)
 .ARM.exidx.text.__cxa_allocate_dependent_exception
                0x000147d0        0x0 c:/users/trent smith/desktop/sjsu_dev/yagarto/bin/../lib/gcc/arm-none-eabi/4.6.2/../../../../arm-none-eabi/lib/thumb/v7m\libstdc++.a(eh_alloc.o)
                                  0x8 (size before relaxing)
 .ARM.exidx.text.__cxa_free_dependent_exception
                0x000147d0        0x0 c:/users/trent smith/desktop/sjsu_dev/yagarto/bin/../lib/gcc/arm-none-eabi/4.6.2/../../../../arm-none-eabi/lib/thumb/v7m\libstdc++.a(eh_alloc.o)
                                  0x8 (size before relaxing)
 .ARM.exidx.text._ZNSt9exceptionD2Ev
                0x000147d0        0x0 c:/users/trent smith/desktop/sjsu_dev/yagarto/bin/../lib/gcc/arm-none-eabi/4.6.2/../../../../arm-none-eabi/lib/thumb/v7m\libstdc++.a(eh_exception.o)
                                  0x8 (size before relaxing)
 .ARM.exidx.text._ZNSt13bad_exceptionD2Ev
                0x000147d0        0x0 c:/users/trent smith/desktop/sjsu_dev/yagarto/bin/../lib/gcc/arm-none-eabi/4.6.2/../../../../arm-none-eabi/lib/thumb/v7m\libstdc++.a(eh_exception.o)
                                  0x8 (size before relaxing)
 .ARM.exidx.text._ZN10__cxxabiv115__forced_unwindD2Ev
                0x000147d0        0x0 c:/users/trent smith/desktop/sjsu_dev/yagarto/bin/../lib/gcc/arm-none-eabi/4.6.2/../../../../arm-none-eabi/lib/thumb/v7m\libstdc++.a(eh_exception.o)
                                  0x8 (size before relaxing)
 .ARM.exidx.text._ZN10__cxxabiv119__foreign_exceptionD2Ev
                0x000147d0        0x0 c:/users/trent smith/desktop/sjsu_dev/yagarto/bin/../lib/gcc/arm-none-eabi/4.6.2/../../../../arm-none-eabi/lib/thumb/v7m\libstdc++.a(eh_exception.o)
                                  0x8 (size before relaxing)
 .ARM.exidx.text._ZNKSt9exception4whatEv
                0x000147d0        0x0 c:/users/trent smith/desktop/sjsu_dev/yagarto/bin/../lib/gcc/arm-none-eabi/4.6.2/../../../../arm-none-eabi/lib/thumb/v7m\libstdc++.a(eh_exception.o)
                                  0x8 (size before relaxing)
 .ARM.exidx.text._ZNKSt13bad_exception4whatEv
                0x000147d0        0x0 c:/users/trent smith/desktop/sjsu_dev/yagarto/bin/../lib/gcc/arm-none-eabi/4.6.2/../../../../arm-none-eabi/lib/thumb/v7m\libstdc++.a(eh_exception.o)
                                  0x8 (size before relaxing)
 .ARM.exidx.text._ZN10__cxxabiv119__foreign_exceptionD0Ev
                0x000147d0        0x0 c:/users/trent smith/desktop/sjsu_dev/yagarto/bin/../lib/gcc/arm-none-eabi/4.6.2/../../../../arm-none-eabi/lib/thumb/v7m\libstdc++.a(eh_exception.o)
                                  0x8 (size before relaxing)
 .ARM.exidx.text._ZN10__cxxabiv115__forced_unwindD0Ev
                0x000147d0        0x0 c:/users/trent smith/desktop/sjsu_dev/yagarto/bin/../lib/gcc/arm-none-eabi/4.6.2/../../../../arm-none-eabi/lib/thumb/v7m\libstdc++.a(eh_exception.o)
                                  0x8 (size before relaxing)
 .ARM.exidx.text._ZNSt13bad_exceptionD0Ev
                0x000147d0        0x0 c:/users/trent smith/desktop/sjsu_dev/yagarto/bin/../lib/gcc/arm-none-eabi/4.6.2/../../../../arm-none-eabi/lib/thumb/v7m\libstdc++.a(eh_exception.o)
                                  0x8 (size before relaxing)
 .ARM.exidx.text._ZNSt9exceptionD0Ev
                0x000147d0        0x0 c:/users/trent smith/desktop/sjsu_dev/yagarto/bin/../lib/gcc/arm-none-eabi/4.6.2/../../../../arm-none-eabi/lib/thumb/v7m\libstdc++.a(eh_exception.o)
                                  0x8 (size before relaxing)
 .ARM.exidx.text.__cxa_get_globals_fast
                0x000147d0        0x0 c:/users/trent smith/desktop/sjsu_dev/yagarto/bin/../lib/gcc/arm-none-eabi/4.6.2/../../../../arm-none-eabi/lib/thumb/v7m\libstdc++.a(eh_globals.o)
                                  0x8 (size before relaxing)
 .ARM.exidx.text.__cxa_get_globals
                0x000147d0        0x0 c:/users/trent smith/desktop/sjsu_dev/yagarto/bin/../lib/gcc/arm-none-eabi/4.6.2/../../../../arm-none-eabi/lib/thumb/v7m\libstdc++.a(eh_globals.o)
                                  0x8 (size before relaxing)
 .ARM.exidx.text._ZN10__cxxabiv111__terminateEPFvvE
                0x000147d0        0x8 c:/users/trent smith/desktop/sjsu_dev/yagarto/bin/../lib/gcc/arm-none-eabi/4.6.2/../../../../arm-none-eabi/lib/thumb/v7m\libstdc++.a(eh_terminate.o)
 .ARM.exidx.text._ZSt9terminatev
                0x000147d8        0x8 c:/users/trent smith/desktop/sjsu_dev/yagarto/bin/../lib/gcc/arm-none-eabi/4.6.2/../../../../arm-none-eabi/lib/thumb/v7m\libstdc++.a(eh_terminate.o)
 .ARM.exidx.text._ZN10__cxxabiv112__unexpectedEPFvvE
                0x000147e0        0x8 c:/users/trent smith/desktop/sjsu_dev/yagarto/bin/../lib/gcc/arm-none-eabi/4.6.2/../../../../arm-none-eabi/lib/thumb/v7m\libstdc++.a(eh_terminate.o)
 .ARM.exidx.text._ZSt10unexpectedv
                0x000147e8        0x8 c:/users/trent smith/desktop/sjsu_dev/yagarto/bin/../lib/gcc/arm-none-eabi/4.6.2/../../../../arm-none-eabi/lib/thumb/v7m\libstdc++.a(eh_terminate.o)
 .ARM.exidx.text._ZSt13set_terminatePFvvE
                0x000147f0        0x8 c:/users/trent smith/desktop/sjsu_dev/yagarto/bin/../lib/gcc/arm-none-eabi/4.6.2/../../../../arm-none-eabi/lib/thumb/v7m\libstdc++.a(eh_terminate.o)
 .ARM.exidx.text._ZSt14set_unexpectedPFvvE
                0x000147f8        0x0 c:/users/trent smith/desktop/sjsu_dev/yagarto/bin/../lib/gcc/arm-none-eabi/4.6.2/../../../../arm-none-eabi/lib/thumb/v7m\libstdc++.a(eh_terminate.o)
                                  0x8 (size before relaxing)
 .ARM.exidx.text._ZL23__gxx_exception_cleanup19_Unwind_Reason_CodeP21_Unwind_Control_Block
                0x000147f8        0x8 c:/users/trent smith/desktop/sjsu_dev/yagarto/bin/../lib/gcc/arm-none-eabi/4.6.2/../../../../arm-none-eabi/lib/thumb/v7m\libstdc++.a(eh_throw.o)
 .ARM.exidx.text.__cxa_throw
                0x00014800        0x8 c:/users/trent smith/desktop/sjsu_dev/yagarto/bin/../lib/gcc/arm-none-eabi/4.6.2/../../../../arm-none-eabi/lib/thumb/v7m\libstdc++.a(eh_throw.o)
 .ARM.exidx.text.__cxa_rethrow
                0x00014808       0x10 c:/users/trent smith/desktop/sjsu_dev/yagarto/bin/../lib/gcc/arm-none-eabi/4.6.2/../../../../arm-none-eabi/lib/thumb/v7m\libstdc++.a(eh_throw.o)
                                  0x8 (size before relaxing)
 .ARM.exidx.text.__cxa_type_match
                0x00014818        0x8 c:/users/trent smith/desktop/sjsu_dev/yagarto/bin/../lib/gcc/arm-none-eabi/4.6.2/../../../../arm-none-eabi/lib/thumb/v7m\libstdc++.a(eh_arm.o)
 .ARM.exidx.text.__cxa_begin_cleanup
                0x00014820        0x8 c:/users/trent smith/desktop/sjsu_dev/yagarto/bin/../lib/gcc/arm-none-eabi/4.6.2/../../../../arm-none-eabi/lib/thumb/v7m\libstdc++.a(eh_arm.o)
 .ARM.exidx.text.__gnu_end_cleanup
                0x00014828        0x0 c:/users/trent smith/desktop/sjsu_dev/yagarto/bin/../lib/gcc/arm-none-eabi/4.6.2/../../../../arm-none-eabi/lib/thumb/v7m\libstdc++.a(eh_arm.o)
                                  0x8 (size before relaxing)
 .ARM.exidx.text.__cxa_bad_cast
                0x00014828        0x8 c:/users/trent smith/desktop/sjsu_dev/yagarto/bin/../lib/gcc/arm-none-eabi/4.6.2/../../../../arm-none-eabi/lib/thumb/v7m\libstdc++.a(eh_aux_runtime.o)
 .ARM.exidx.text.__cxa_bad_typeid
                0x00014830        0x8 c:/users/trent smith/desktop/sjsu_dev/yagarto/bin/../lib/gcc/arm-none-eabi/4.6.2/../../../../arm-none-eabi/lib/thumb/v7m\libstdc++.a(eh_aux_runtime.o)
 .ARM.exidx.text.__cxa_call_terminate
                0x00014838        0x8 c:/users/trent smith/desktop/sjsu_dev/yagarto/bin/../lib/gcc/arm-none-eabi/4.6.2/../../../../arm-none-eabi/lib/thumb/v7m\libstdc++.a(eh_call.o)
 .ARM.exidx.text.__cxa_call_unexpected
                0x00014840        0x8 c:/users/trent smith/desktop/sjsu_dev/yagarto/bin/../lib/gcc/arm-none-eabi/4.6.2/../../../../arm-none-eabi/lib/thumb/v7m\libstdc++.a(eh_call.o)
 .ARM.exidx.text.__cxa_get_exception_ptr
                0x00014848        0x8 c:/users/trent smith/desktop/sjsu_dev/yagarto/bin/../lib/gcc/arm-none-eabi/4.6.2/../../../../arm-none-eabi/lib/thumb/v7m\libstdc++.a(eh_catch.o)
 .ARM.exidx.text.__cxa_begin_catch
                0x00014850        0x8 c:/users/trent smith/desktop/sjsu_dev/yagarto/bin/../lib/gcc/arm-none-eabi/4.6.2/../../../../arm-none-eabi/lib/thumb/v7m\libstdc++.a(eh_catch.o)
 .ARM.exidx.text.__cxa_end_catch
                0x00014858        0x8 c:/users/trent smith/desktop/sjsu_dev/yagarto/bin/../lib/gcc/arm-none-eabi/4.6.2/../../../../arm-none-eabi/lib/thumb/v7m\libstdc++.a(eh_catch.o)
 .ARM.exidx.text._ZSt18uncaught_exceptionv
                0x00014860        0x0 c:/users/trent smith/desktop/sjsu_dev/yagarto/bin/../lib/gcc/arm-none-eabi/4.6.2/../../../../arm-none-eabi/lib/thumb/v7m\libstdc++.a(eh_catch.o)
                                  0x8 (size before relaxing)
 .ARM.exidx.text._ZL12read_sleb128PKhPl
                0x00014860        0x0 c:/users/trent smith/desktop/sjsu_dev/yagarto/bin/../lib/gcc/arm-none-eabi/4.6.2/../../../../arm-none-eabi/lib/thumb/v7m\libstdc++.a(eh_personality.o)
                                  0x8 (size before relaxing)
 .ARM.exidx.text._ZL28read_encoded_value_with_basehjPKhPj
                0x00014860        0x8 c:/users/trent smith/desktop/sjsu_dev/yagarto/bin/../lib/gcc/arm-none-eabi/4.6.2/../../../../arm-none-eabi/lib/thumb/v7m\libstdc++.a(eh_personality.o)
 .ARM.exidx.text._ZL21base_of_encoded_valuehP15_Unwind_Context
                0x00014868        0x8 c:/users/trent smith/desktop/sjsu_dev/yagarto/bin/../lib/gcc/arm-none-eabi/4.6.2/../../../../arm-none-eabi/lib/thumb/v7m\libstdc++.a(eh_personality.o)
 .ARM.exidx.text._ZL17parse_lsda_headerP15_Unwind_ContextPKhP16lsda_header_info.constprop.1
                0x00014870        0x8 c:/users/trent smith/desktop/sjsu_dev/yagarto/bin/../lib/gcc/arm-none-eabi/4.6.2/../../../../arm-none-eabi/lib/thumb/v7m\libstdc++.a(eh_personality.o)
 .ARM.exidx.text.__gxx_personality_v0
                0x00014878        0x8 c:/users/trent smith/desktop/sjsu_dev/yagarto/bin/../lib/gcc/arm-none-eabi/4.6.2/../../../../arm-none-eabi/lib/thumb/v7m\libstdc++.a(eh_personality.o)
 .ARM.exidx.text._ZN10__cxxabiv123__fundamental_type_infoD2Ev
                0x00014880        0x8 c:/users/trent smith/desktop/sjsu_dev/yagarto/bin/../lib/gcc/arm-none-eabi/4.6.2/../../../../arm-none-eabi/lib/thumb/v7m\libstdc++.a(fundamental_type_info.o)
 .ARM.exidx.text._ZN10__cxxabiv123__fundamental_type_infoD0Ev
                0x00014888        0x0 c:/users/trent smith/desktop/sjsu_dev/yagarto/bin/../lib/gcc/arm-none-eabi/4.6.2/../../../../arm-none-eabi/lib/thumb/v7m\libstdc++.a(fundamental_type_info.o)
                                  0x8 (size before relaxing)
 .ARM.exidx.text._ZNK10__cxxabiv119__pointer_type_info14__is_pointer_pEv
                0x00014888        0x8 c:/users/trent smith/desktop/sjsu_dev/yagarto/bin/../lib/gcc/arm-none-eabi/4.6.2/../../../../arm-none-eabi/lib/thumb/v7m\libstdc++.a(pointer_type_info.o)
 .ARM.exidx.text._ZN10__cxxabiv119__pointer_type_infoD2Ev
                0x00014890        0x8 c:/users/trent smith/desktop/sjsu_dev/yagarto/bin/../lib/gcc/arm-none-eabi/4.6.2/../../../../arm-none-eabi/lib/thumb/v7m\libstdc++.a(pointer_type_info.o)
 .ARM.exidx.text._ZN10__cxxabiv119__pointer_type_infoD0Ev
                0x00014898        0x0 c:/users/trent smith/desktop/sjsu_dev/yagarto/bin/../lib/gcc/arm-none-eabi/4.6.2/../../../../arm-none-eabi/lib/thumb/v7m\libstdc++.a(pointer_type_info.o)
                                  0x8 (size before relaxing)
 .ARM.exidx.text._ZNK10__cxxabiv119__pointer_type_info15__pointer_catchEPKNS_17__pbase_type_infoEPPvj
                0x00014898        0x8 c:/users/trent smith/desktop/sjsu_dev/yagarto/bin/../lib/gcc/arm-none-eabi/4.6.2/../../../../arm-none-eabi/lib/thumb/v7m\libstdc++.a(pointer_type_info.o)
 .ARM.exidx.text._ZNKSt8bad_cast4whatEv
                0x000148a0        0x8 c:/users/trent smith/desktop/sjsu_dev/yagarto/bin/../lib/gcc/arm-none-eabi/4.6.2/../../../../arm-none-eabi/lib/thumb/v7m\libstdc++.a(bad_cast.o)
 .ARM.exidx.text._ZNSt8bad_castD2Ev
                0x000148a8        0x0 c:/users/trent smith/desktop/sjsu_dev/yagarto/bin/../lib/gcc/arm-none-eabi/4.6.2/../../../../arm-none-eabi/lib/thumb/v7m\libstdc++.a(bad_cast.o)
                                  0x8 (size before relaxing)
 .ARM.exidx.text._ZNSt8bad_castD0Ev
                0x000148a8        0x0 c:/users/trent smith/desktop/sjsu_dev/yagarto/bin/../lib/gcc/arm-none-eabi/4.6.2/../../../../arm-none-eabi/lib/thumb/v7m\libstdc++.a(bad_cast.o)
                                  0x8 (size before relaxing)
 .ARM.exidx.text._ZNKSt10bad_typeid4whatEv
                0x000148a8        0x0 c:/users/trent smith/desktop/sjsu_dev/yagarto/bin/../lib/gcc/arm-none-eabi/4.6.2/../../../../arm-none-eabi/lib/thumb/v7m\libstdc++.a(bad_typeid.o)
                                  0x8 (size before relaxing)
 .ARM.exidx.text._ZNSt10bad_typeidD2Ev
                0x000148a8        0x0 c:/users/trent smith/desktop/sjsu_dev/yagarto/bin/../lib/gcc/arm-none-eabi/4.6.2/../../../../arm-none-eabi/lib/thumb/v7m\libstdc++.a(bad_typeid.o)
                                  0x8 (size before relaxing)
 .ARM.exidx.text._ZNSt10bad_typeidD0Ev
                0x000148a8        0x0 c:/users/trent smith/desktop/sjsu_dev/yagarto/bin/../lib/gcc/arm-none-eabi/4.6.2/../../../../arm-none-eabi/lib/thumb/v7m\libstdc++.a(bad_typeid.o)
                                  0x8 (size before relaxing)
 .ARM.exidx.text._ZNK10__cxxabiv117__pbase_type_info15__pointer_catchEPKS0_PPvj
                0x000148a8        0x8 c:/users/trent smith/desktop/sjsu_dev/yagarto/bin/../lib/gcc/arm-none-eabi/4.6.2/../../../../arm-none-eabi/lib/thumb/v7m\libstdc++.a(pbase_type_info.o)
 .ARM.exidx.text._ZN10__cxxabiv117__pbase_type_infoD2Ev
                0x000148b0        0x0 c:/users/trent smith/desktop/sjsu_dev/yagarto/bin/../lib/gcc/arm-none-eabi/4.6.2/../../../../arm-none-eabi/lib/thumb/v7m\libstdc++.a(pbase_type_info.o)
                                  0x8 (size before relaxing)
 .ARM.exidx.text._ZN10__cxxabiv117__pbase_type_infoD0Ev
                0x000148b0        0x0 c:/users/trent smith/desktop/sjsu_dev/yagarto/bin/../lib/gcc/arm-none-eabi/4.6.2/../../../../arm-none-eabi/lib/thumb/v7m\libstdc++.a(pbase_type_info.o)
                                  0x8 (size before relaxing)
 .ARM.exidx.text._ZNK10__cxxabiv117__pbase_type_info10__do_catchEPKSt9type_infoPPvj
                0x000148b0       0x10 c:/users/trent smith/desktop/sjsu_dev/yagarto/bin/../lib/gcc/arm-none-eabi/4.6.2/../../../../arm-none-eabi/lib/thumb/v7m\libstdc++.a(pbase_type_info.o)
                                  0x8 (size before relaxing)
 .ARM.exidx     0x000148c0       0x80 c:/users/trent smith/desktop/sjsu_dev/yagarto/bin/../lib/gcc/arm-none-eabi/4.6.2/thumb/v7m\libgcc.a(unwind-arm.o)
                                 0xc0 (size before relaxing)
 .ARM.exidx     0x00014940       0x38 c:/users/trent smith/desktop/sjsu_dev/yagarto/bin/../lib/gcc/arm-none-eabi/4.6.2/thumb/v7m\libgcc.a(pr-support.o)
                                 0x48 (size before relaxing)
                0x00014978                __exidx_end = .
                0x00014978                _etext = .

.uninit_RESERVED
 *(.bss.$RESERVED*)

.data           0x10000000      0x934 load address 0x00014978
 FILL mask 0xff
                0x10000000                _data = .
 *(vtable)
 *(.data*)
 .data          0x10000000        0x0 ./L5_Application/source/handlers.o
 .data          0x10000000        0x0 ./L5_Application/source/highLevelInitialize.o
 .data          0x10000000        0x0 ./L5_Application/source/tasks.o
 .data          0x10000000        0x0 ./L5_Application/source/utilities.o
 .data          0x10000000        0x0 ./L5_Application/main.o
 .data          0x10000000       0x50 ./L4_IO/src/io_source.o
                0x10000000                KEYPAD_CHAR
                0x10000010                KEYPAD_VAL
 .data          0x10000050        0x0 ./L4_IO/fat/option/ccsbcs.o
 .data          0x10000050        0x0 ./L4_IO/fat/option/reentrant.o
 .data          0x10000050        0x0 ./L4_IO/fat/disk/diskio.o
 .data          0x10000050        0x1 ./L4_IO/fat/disk/sd.o
                0x10000050                Stat
 .data          0x10000051        0x0 ./L4_IO/fat/disk/spi_flash.o
 .data          0x10000051        0x0 ./L4_IO/fat/fatfs_time.o
 .data          0x10000051        0x0 ./L4_IO/fat/ff.o
 .data          0x10000051        0x0 ./L3_Utils/src/CommandHandler.o
 .data          0x10000051        0x0 ./L3_Utils/src/logger.o
 .data          0x10000051        0x0 ./L3_Utils/src/str.o
 .data          0x10000051        0x4 ./L3_Utils/src/timer.o
 .data          0x10000055        0x0 ./L2_Drivers/src/I2C2.o
 .data          0x10000055        0x0 ./L2_Drivers/src/i2c_base.o
 .data          0x10000055        0x0 ./L2_Drivers/src/rtc.o
 .data          0x10000055        0x0 ./L2_Drivers/src/spi1.o
 .data          0x10000055        0x0 ./L2_Drivers/src/uart0.o
 .data          0x10000055        0x0 ./L2_Drivers/src/uart_base.o
 .data          0x10000055        0x0 ./L1_FreeRTOS/src/croutine.o
 .data          0x10000055        0x0 ./L1_FreeRTOS/src/list.o
 .data          0x10000055        0x0 ./L1_FreeRTOS/src/queue.o
 *fill*         0x10000055        0x3 00
 .data          0x10000058        0x8 ./L1_FreeRTOS/src/tasks.o
 .data          0x10000060        0x0 ./L1_FreeRTOS/src/timers.o
 .data          0x10000060        0x4 ./L1_FreeRTOS/portable/port.o
 .data          0x10000064        0x0 ./L1_FreeRTOS/hooks/hooks.o
 .data          0x10000064        0x0 ./L1_FreeRTOS/MemMang/heap_3.o
 .data          0x10000064        0x0 ./L0_LowLevel/source/core_cm3.o
 .data          0x10000064        0x0 ./L0_LowLevel/source/cr_startup_lpc175x.o
 .data          0x10000064        0x0 ./L0_LowLevel/source/io_functions.o
 .data          0x10000064        0x0 ./L0_LowLevel/source/memory.o
 .data          0x10000064        0x0 ./L0_LowLevel/source/sys_clock.o
 .data          0x10000064        0x0 ./L0_LowLevel/source/sys_hooks.o
 .data          0x10000064        0x0 ./L0_LowLevel/source/system_initialization.o
 .data          0x10000064        0x0 ./L0_LowLevel/source/uart0_min.o
 .data          0x10000064        0x0 c:/users/trent smith/desktop/sjsu_dev/yagarto/bin/../lib/gcc/arm-none-eabi/4.6.2/../../../../arm-none-eabi/lib/thumb/v7m\libstdc++.a(guard.o)
 .data          0x10000064        0x0 c:/users/trent smith/desktop/sjsu_dev/yagarto/bin/../lib/gcc/arm-none-eabi/4.6.2/../../../../arm-none-eabi/lib/thumb/v7m\libstdc++.a(guard_error.o)
 .data          0x10000064        0x0 c:/users/trent smith/desktop/sjsu_dev/yagarto/bin/../lib/gcc/arm-none-eabi/4.6.2/../../../../arm-none-eabi/lib/thumb/v7m\libstdc++.a(pure.o)
 .data          0x10000064        0x0 c:/users/trent smith/desktop/sjsu_dev/yagarto/bin/../lib/gcc/arm-none-eabi/4.6.2/../../../../arm-none-eabi/lib/thumb/v7m\libstdc++.a(si_class_type_info.o)
 .data          0x10000064        0x0 c:/users/trent smith/desktop/sjsu_dev/yagarto/bin/../lib/gcc/arm-none-eabi/4.6.2/../../../../arm-none-eabi/lib/thumb/v7m\libstdc++.a(tinfo.o)
 .data          0x10000064        0x0 c:/users/trent smith/desktop/sjsu_dev/yagarto/bin/../lib/gcc/arm-none-eabi/4.6.2/../../../../arm-none-eabi/lib/thumb/v7m\libstdc++.a(class_type_info.o)
 .data          0x10000064        0x0 c:/users/trent smith/desktop/sjsu_dev/yagarto/bin/../lib/gcc/arm-none-eabi/4.6.2/../../../../arm-none-eabi/lib/thumb/v7m\libstdc++.a(eh_alloc.o)
 .data          0x10000064        0x0 c:/users/trent smith/desktop/sjsu_dev/yagarto/bin/../lib/gcc/arm-none-eabi/4.6.2/../../../../arm-none-eabi/lib/thumb/v7m\libstdc++.a(eh_exception.o)
 .data          0x10000064        0x0 c:/users/trent smith/desktop/sjsu_dev/yagarto/bin/../lib/gcc/arm-none-eabi/4.6.2/../../../../arm-none-eabi/lib/thumb/v7m\libstdc++.a(eh_globals.o)
 .data          0x10000064        0x0 c:/users/trent smith/desktop/sjsu_dev/yagarto/bin/../lib/gcc/arm-none-eabi/4.6.2/../../../../arm-none-eabi/lib/thumb/v7m\libstdc++.a(eh_terminate.o)
 .data          0x10000064        0x0 c:/users/trent smith/desktop/sjsu_dev/yagarto/bin/../lib/gcc/arm-none-eabi/4.6.2/../../../../arm-none-eabi/lib/thumb/v7m\libstdc++.a(eh_term_handler.o)
 .data._ZN10__cxxabiv119__terminate_handlerE
                0x10000064        0x4 c:/users/trent smith/desktop/sjsu_dev/yagarto/bin/../lib/gcc/arm-none-eabi/4.6.2/../../../../arm-none-eabi/lib/thumb/v7m\libstdc++.a(eh_term_handler.o)
                0x10000064                __cxxabiv1::__terminate_handler
 .data          0x10000068        0x0 c:/users/trent smith/desktop/sjsu_dev/yagarto/bin/../lib/gcc/arm-none-eabi/4.6.2/../../../../arm-none-eabi/lib/thumb/v7m\libstdc++.a(eh_throw.o)
 .data          0x10000068        0x0 c:/users/trent smith/desktop/sjsu_dev/yagarto/bin/../lib/gcc/arm-none-eabi/4.6.2/../../../../arm-none-eabi/lib/thumb/v7m\libstdc++.a(eh_unex_handler.o)
 .data._ZN10__cxxabiv120__unexpected_handlerE
                0x10000068        0x4 c:/users/trent smith/desktop/sjsu_dev/yagarto/bin/../lib/gcc/arm-none-eabi/4.6.2/../../../../arm-none-eabi/lib/thumb/v7m\libstdc++.a(eh_unex_handler.o)
                0x10000068                __cxxabiv1::__unexpected_handler
 .data          0x1000006c        0x0 c:/users/trent smith/desktop/sjsu_dev/yagarto/bin/../lib/gcc/arm-none-eabi/4.6.2/../../../../arm-none-eabi/lib/thumb/v7m\libstdc++.a(eh_arm.o)
 .data          0x1000006c        0x0 c:/users/trent smith/desktop/sjsu_dev/yagarto/bin/../lib/gcc/arm-none-eabi/4.6.2/../../../../arm-none-eabi/lib/thumb/v7m\libstdc++.a(eh_aux_runtime.o)
 .data          0x1000006c        0x0 c:/users/trent smith/desktop/sjsu_dev/yagarto/bin/../lib/gcc/arm-none-eabi/4.6.2/../../../../arm-none-eabi/lib/thumb/v7m\libstdc++.a(eh_call.o)
 .data          0x1000006c        0x0 c:/users/trent smith/desktop/sjsu_dev/yagarto/bin/../lib/gcc/arm-none-eabi/4.6.2/../../../../arm-none-eabi/lib/thumb/v7m\libstdc++.a(eh_catch.o)
 .data          0x1000006c        0x0 c:/users/trent smith/desktop/sjsu_dev/yagarto/bin/../lib/gcc/arm-none-eabi/4.6.2/../../../../arm-none-eabi/lib/thumb/v7m\libstdc++.a(eh_personality.o)
 .data          0x1000006c        0x0 c:/users/trent smith/desktop/sjsu_dev/yagarto/bin/../lib/gcc/arm-none-eabi/4.6.2/../../../../arm-none-eabi/lib/thumb/v7m\libstdc++.a(fundamental_type_info.o)
 .data          0x1000006c        0x0 c:/users/trent smith/desktop/sjsu_dev/yagarto/bin/../lib/gcc/arm-none-eabi/4.6.2/../../../../arm-none-eabi/lib/thumb/v7m\libstdc++.a(pointer_type_info.o)
 .data          0x1000006c        0x0 c:/users/trent smith/desktop/sjsu_dev/yagarto/bin/../lib/gcc/arm-none-eabi/4.6.2/../../../../arm-none-eabi/lib/thumb/v7m\libstdc++.a(bad_cast.o)
 .data          0x1000006c        0x0 c:/users/trent smith/desktop/sjsu_dev/yagarto/bin/../lib/gcc/arm-none-eabi/4.6.2/../../../../arm-none-eabi/lib/thumb/v7m\libstdc++.a(bad_typeid.o)
 .data          0x1000006c        0x0 c:/users/trent smith/desktop/sjsu_dev/yagarto/bin/../lib/gcc/arm-none-eabi/4.6.2/../../../../arm-none-eabi/lib/thumb/v7m\libstdc++.a(pbase_type_info.o)
 .data          0x1000006c        0x0 c:/users/trent smith/desktop/sjsu_dev/yagarto/bin/../lib/gcc/arm-none-eabi/4.6.2/thumb/v7m\libgcc.a(_arm_addsubdf3.o)
 .data          0x1000006c        0x0 c:/users/trent smith/desktop/sjsu_dev/yagarto/bin/../lib/gcc/arm-none-eabi/4.6.2/thumb/v7m\libgcc.a(_arm_fixdfsi.o)
 .data          0x1000006c        0x0 c:/users/trent smith/desktop/sjsu_dev/yagarto/bin/../lib/gcc/arm-none-eabi/4.6.2/thumb/v7m\libgcc.a(_arm_fixunsdfsi.o)
 .data          0x1000006c        0x0 c:/users/trent smith/desktop/sjsu_dev/yagarto/bin/../lib/gcc/arm-none-eabi/4.6.2/thumb/v7m\libgcc.a(_arm_addsubsf3.o)
 .data          0x1000006c        0x0 c:/users/trent smith/desktop/sjsu_dev/yagarto/bin/../lib/gcc/arm-none-eabi/4.6.2/thumb/v7m\libgcc.a(_arm_muldivsf3.o)
 .data          0x1000006c        0x0 c:/users/trent smith/desktop/sjsu_dev/yagarto/bin/../lib/gcc/arm-none-eabi/4.6.2/thumb/v7m\libgcc.a(_arm_fixsfsi.o)
 .data          0x1000006c        0x0 c:/users/trent smith/desktop/sjsu_dev/yagarto/bin/../lib/gcc/arm-none-eabi/4.6.2/thumb/v7m\libgcc.a(_arm_fixunssfsi.o)
 .data          0x1000006c        0x0 c:/users/trent smith/desktop/sjsu_dev/yagarto/bin/../lib/gcc/arm-none-eabi/4.6.2/thumb/v7m\libgcc.a(unwind-arm.o)
 .data          0x1000006c        0x0 c:/users/trent smith/desktop/sjsu_dev/yagarto/bin/../lib/gcc/arm-none-eabi/4.6.2/thumb/v7m\libgcc.a(libunwind.o)
 .data          0x1000006c        0x0 c:/users/trent smith/desktop/sjsu_dev/yagarto/bin/../lib/gcc/arm-none-eabi/4.6.2/thumb/v7m\libgcc.a(pr-support.o)
 .data          0x1000006c        0x0 c:/users/trent smith/desktop/sjsu_dev/yagarto/bin/../lib/gcc/arm-none-eabi/4.6.2/../../../../arm-none-eabi/lib/thumb/v7m\libc.a(lib_a-abort.o)
 .data          0x1000006c        0x0 c:/users/trent smith/desktop/sjsu_dev/yagarto/bin/../lib/gcc/arm-none-eabi/4.6.2/../../../../arm-none-eabi/lib/thumb/v7m\libc.a(lib_a-atoi.o)
 *fill*         0x1000006c        0x4 00
 .data          0x10000070      0x430 c:/users/trent smith/desktop/sjsu_dev/yagarto/bin/../lib/gcc/arm-none-eabi/4.6.2/../../../../arm-none-eabi/lib/thumb/v7m\libc.a(lib_a-impure.o)
                0x10000070                _impure_ptr
 .data          0x100004a0        0x0 c:/users/trent smith/desktop/sjsu_dev/yagarto/bin/../lib/gcc/arm-none-eabi/4.6.2/../../../../arm-none-eabi/lib/thumb/v7m\libc.a(lib_a-init.o)
 .data          0x100004a0        0x0 c:/users/trent smith/desktop/sjsu_dev/yagarto/bin/../lib/gcc/arm-none-eabi/4.6.2/../../../../arm-none-eabi/lib/thumb/v7m\libc.a(lib_a-isalnum.o)
 .data          0x100004a0        0x0 c:/users/trent smith/desktop/sjsu_dev/yagarto/bin/../lib/gcc/arm-none-eabi/4.6.2/../../../../arm-none-eabi/lib/thumb/v7m\libc.a(lib_a-isalpha.o)
 .data          0x100004a0        0x0 c:/users/trent smith/desktop/sjsu_dev/yagarto/bin/../lib/gcc/arm-none-eabi/4.6.2/../../../../arm-none-eabi/lib/thumb/v7m\libc.a(lib_a-malloc.o)
 .data          0x100004a0      0x410 c:/users/trent smith/desktop/sjsu_dev/yagarto/bin/../lib/gcc/arm-none-eabi/4.6.2/../../../../arm-none-eabi/lib/thumb/v7m\libc.a(lib_a-mallocr.o)
                0x100004a0                __malloc_av_
                0x100008a8                __malloc_sbrk_base
                0x100008ac                __malloc_trim_threshold
 .data          0x100008b0        0x0 c:/users/trent smith/desktop/sjsu_dev/yagarto/bin/../lib/gcc/arm-none-eabi/4.6.2/../../../../arm-none-eabi/lib/thumb/v7m\libc.a(lib_a-memcmp.o)
 .data          0x100008b0        0x0 c:/users/trent smith/desktop/sjsu_dev/yagarto/bin/../lib/gcc/arm-none-eabi/4.6.2/../../../../arm-none-eabi/lib/thumb/v7m\libc.a(lib_a-memcpy.o)
 .data          0x100008b0        0x0 c:/users/trent smith/desktop/sjsu_dev/yagarto/bin/../lib/gcc/arm-none-eabi/4.6.2/../../../../arm-none-eabi/lib/thumb/v7m\libc.a(lib_a-memmove.o)
 .data          0x100008b0        0x0 c:/users/trent smith/desktop/sjsu_dev/yagarto/bin/../lib/gcc/arm-none-eabi/4.6.2/../../../../arm-none-eabi/lib/thumb/v7m\libc.a(lib_a-memset.o)
 .data          0x100008b0        0x0 c:/users/trent smith/desktop/sjsu_dev/yagarto/bin/../lib/gcc/arm-none-eabi/4.6.2/../../../../arm-none-eabi/lib/thumb/v7m\libc.a(lib_a-mlock.o)
 .data          0x100008b0        0x0 c:/users/trent smith/desktop/sjsu_dev/yagarto/bin/../lib/gcc/arm-none-eabi/4.6.2/../../../../arm-none-eabi/lib/thumb/v7m\libc.a(lib_a-mstats.o)
 .data          0x100008b0        0x0 c:/users/trent smith/desktop/sjsu_dev/yagarto/bin/../lib/gcc/arm-none-eabi/4.6.2/../../../../arm-none-eabi/lib/thumb/v7m\libc.a(lib_a-putchar.o)
 .data          0x100008b0        0x0 c:/users/trent smith/desktop/sjsu_dev/yagarto/bin/../lib/gcc/arm-none-eabi/4.6.2/../../../../arm-none-eabi/lib/thumb/v7m\libc.a(lib_a-puts.o)
 .data          0x100008b0        0x0 c:/users/trent smith/desktop/sjsu_dev/yagarto/bin/../lib/gcc/arm-none-eabi/4.6.2/../../../../arm-none-eabi/lib/thumb/v7m\libc.a(lib_a-realloc.o)
 .data          0x100008b0        0x0 c:/users/trent smith/desktop/sjsu_dev/yagarto/bin/../lib/gcc/arm-none-eabi/4.6.2/../../../../arm-none-eabi/lib/thumb/v7m\libc.a(lib_a-reallocr.o)
 .data          0x100008b0        0x0 c:/users/trent smith/desktop/sjsu_dev/yagarto/bin/../lib/gcc/arm-none-eabi/4.6.2/../../../../arm-none-eabi/lib/thumb/v7m\libc.a(lib_a-rget.o)
 .data          0x100008b0        0x0 c:/users/trent smith/desktop/sjsu_dev/yagarto/bin/../lib/gcc/arm-none-eabi/4.6.2/../../../../arm-none-eabi/lib/thumb/v7m\libc.a(lib_a-sbrkr.o)
 .data          0x100008b0        0x0 c:/users/trent smith/desktop/sjsu_dev/yagarto/bin/../lib/gcc/arm-none-eabi/4.6.2/../../../../arm-none-eabi/lib/thumb/v7m\libc.a(lib_a-setvbuf.o)
 .data          0x100008b0        0x0 c:/users/trent smith/desktop/sjsu_dev/yagarto/bin/../lib/gcc/arm-none-eabi/4.6.2/../../../../arm-none-eabi/lib/thumb/v7m\libc.a(lib_a-signal.o)
 .data          0x100008b0        0x0 c:/users/trent smith/desktop/sjsu_dev/yagarto/bin/../lib/gcc/arm-none-eabi/4.6.2/../../../../arm-none-eabi/lib/thumb/v7m\libc.a(lib_a-signalr.o)
 .data          0x100008b0        0x0 c:/users/trent smith/desktop/sjsu_dev/yagarto/bin/../lib/gcc/arm-none-eabi/4.6.2/../../../../arm-none-eabi/lib/thumb/v7m\libc.a(lib_a-strcasecmp.o)
 .data          0x100008b0        0x0 c:/users/trent smith/desktop/sjsu_dev/yagarto/bin/../lib/gcc/arm-none-eabi/4.6.2/../../../../arm-none-eabi/lib/thumb/v7m\libc.a(lib_a-strcat.o)
 .data          0x100008b0        0x0 c:/users/trent smith/desktop/sjsu_dev/yagarto/bin/../lib/gcc/arm-none-eabi/4.6.2/../../../../arm-none-eabi/lib/thumb/v7m\libc.a(lib_a-strchr.o)
 .data          0x100008b0        0x0 c:/users/trent smith/desktop/sjsu_dev/yagarto/bin/../lib/gcc/arm-none-eabi/4.6.2/../../../../arm-none-eabi/lib/thumb/v7m\libc.a(lib_a-strcmp.o)
 .data          0x100008b0        0x0 c:/users/trent smith/desktop/sjsu_dev/yagarto/bin/../lib/gcc/arm-none-eabi/4.6.2/../../../../arm-none-eabi/lib/thumb/v7m\libc.a(lib_a-strcpy.o)
 .data          0x100008b0        0x0 c:/users/trent smith/desktop/sjsu_dev/yagarto/bin/../lib/gcc/arm-none-eabi/4.6.2/../../../../arm-none-eabi/lib/thumb/v7m\libc.a(lib_a-strlen.o)
 .data          0x100008b0        0x0 c:/users/trent smith/desktop/sjsu_dev/yagarto/bin/../lib/gcc/arm-none-eabi/4.6.2/../../../../arm-none-eabi/lib/thumb/v7m\libc.a(lib_a-strncasecmp.o)
 .data          0x100008b0        0x0 c:/users/trent smith/desktop/sjsu_dev/yagarto/bin/../lib/gcc/arm-none-eabi/4.6.2/../../../../arm-none-eabi/lib/thumb/v7m\libc.a(lib_a-strncmp.o)
 .data          0x100008b0        0x0 c:/users/trent smith/desktop/sjsu_dev/yagarto/bin/../lib/gcc/arm-none-eabi/4.6.2/../../../../arm-none-eabi/lib/thumb/v7m\libc.a(lib_a-strncpy.o)
 .data          0x100008b0        0x0 c:/users/trent smith/desktop/sjsu_dev/yagarto/bin/../lib/gcc/arm-none-eabi/4.6.2/../../../../arm-none-eabi/lib/thumb/v7m\libc.a(lib_a-strpbrk.o)
 .data          0x100008b0        0x0 c:/users/trent smith/desktop/sjsu_dev/yagarto/bin/../lib/gcc/arm-none-eabi/4.6.2/../../../../arm-none-eabi/lib/thumb/v7m\libc.a(lib_a-strrchr.o)
 .data          0x100008b0        0x0 c:/users/trent smith/desktop/sjsu_dev/yagarto/bin/../lib/gcc/arm-none-eabi/4.6.2/../../../../arm-none-eabi/lib/thumb/v7m\libc.a(lib_a-strstr.o)
 .data          0x100008b0        0x0 c:/users/trent smith/desktop/sjsu_dev/yagarto/bin/../lib/gcc/arm-none-eabi/4.6.2/../../../../arm-none-eabi/lib/thumb/v7m\libc.a(lib_a-strtol.o)
 .data          0x100008b0        0x0 c:/users/trent smith/desktop/sjsu_dev/yagarto/bin/../lib/gcc/arm-none-eabi/4.6.2/../../../../arm-none-eabi/lib/thumb/v7m\libc.a(lib_a-syswrite.o)
 .data          0x100008b0        0x0 c:/users/trent smith/desktop/sjsu_dev/yagarto/bin/../lib/gcc/arm-none-eabi/4.6.2/../../../../arm-none-eabi/lib/thumb/v7m\libc.a(lib_a-tolower.o)
 .data          0x100008b0        0x0 c:/users/trent smith/desktop/sjsu_dev/yagarto/bin/../lib/gcc/arm-none-eabi/4.6.2/../../../../arm-none-eabi/lib/thumb/v7m\libc.a(lib_a-toupper.o)
 .data          0x100008b0        0x0 c:/users/trent smith/desktop/sjsu_dev/yagarto/bin/../lib/gcc/arm-none-eabi/4.6.2/../../../../arm-none-eabi/lib/thumb/v7m\libc.a(lib_a-vsniprintf.o)
 .data          0x100008b0        0x0 c:/users/trent smith/desktop/sjsu_dev/yagarto/bin/../lib/gcc/arm-none-eabi/4.6.2/../../../../arm-none-eabi/lib/thumb/v7m\libc.a(lib_a-wbuf.o)
 .data          0x100008b0        0x0 c:/users/trent smith/desktop/sjsu_dev/yagarto/bin/../lib/gcc/arm-none-eabi/4.6.2/../../../../arm-none-eabi/lib/thumb/v7m\libc.a(lib_a-writer.o)
 .data          0x100008b0        0x0 c:/users/trent smith/desktop/sjsu_dev/yagarto/bin/../lib/gcc/arm-none-eabi/4.6.2/../../../../arm-none-eabi/lib/thumb/v7m\libc.a(lib_a-wsetup.o)
 .data          0x100008b0        0x4 c:/users/trent smith/desktop/sjsu_dev/yagarto/bin/../lib/gcc/arm-none-eabi/4.6.2/../../../../arm-none-eabi/lib/thumb/v7m\libc.a(lib_a-ctype_.o)
                0x100008b0                __ctype_ptr__
 .data          0x100008b4        0x0 c:/users/trent smith/desktop/sjsu_dev/yagarto/bin/../lib/gcc/arm-none-eabi/4.6.2/../../../../arm-none-eabi/lib/thumb/v7m\libc.a(lib_a-fflush.o)
 .data          0x100008b4        0x0 c:/users/trent smith/desktop/sjsu_dev/yagarto/bin/../lib/gcc/arm-none-eabi/4.6.2/../../../../arm-none-eabi/lib/thumb/v7m\libc.a(lib_a-findfp.o)
 .data          0x100008b4        0x0 c:/users/trent smith/desktop/sjsu_dev/yagarto/bin/../lib/gcc/arm-none-eabi/4.6.2/../../../../arm-none-eabi/lib/thumb/v7m\libc.a(lib_a-fiprintf.o)
 .data          0x100008b4        0x0 c:/users/trent smith/desktop/sjsu_dev/yagarto/bin/../lib/gcc/arm-none-eabi/4.6.2/../../../../arm-none-eabi/lib/thumb/v7m\libc.a(lib_a-freer.o)
 .data          0x100008b4        0x0 c:/users/trent smith/desktop/sjsu_dev/yagarto/bin/../lib/gcc/arm-none-eabi/4.6.2/../../../../arm-none-eabi/lib/thumb/v7m\libc.a(lib_a-fvwrite.o)
 .data          0x100008b4        0x0 c:/users/trent smith/desktop/sjsu_dev/yagarto/bin/../lib/gcc/arm-none-eabi/4.6.2/../../../../arm-none-eabi/lib/thumb/v7m\libc.a(lib_a-fwalk.o)
 .data          0x100008b4        0x0 c:/users/trent smith/desktop/sjsu_dev/yagarto/bin/../lib/gcc/arm-none-eabi/4.6.2/../../../../arm-none-eabi/lib/thumb/v7m\libc.a(lib_a-makebuf.o)
 .data          0x100008b4        0x0 c:/users/trent smith/desktop/sjsu_dev/yagarto/bin/../lib/gcc/arm-none-eabi/4.6.2/../../../../arm-none-eabi/lib/thumb/v7m\libc.a(lib_a-mallinfor.o)
 .data          0x100008b4        0x0 c:/users/trent smith/desktop/sjsu_dev/yagarto/bin/../lib/gcc/arm-none-eabi/4.6.2/../../../../arm-none-eabi/lib/thumb/v7m\libc.a(lib_a-malloptr.o)
 .data          0x100008b4        0x0 c:/users/trent smith/desktop/sjsu_dev/yagarto/bin/../lib/gcc/arm-none-eabi/4.6.2/../../../../arm-none-eabi/lib/thumb/v7m\libc.a(lib_a-mallstatsr.o)
 .data          0x100008b4        0x0 c:/users/trent smith/desktop/sjsu_dev/yagarto/bin/../lib/gcc/arm-none-eabi/4.6.2/../../../../arm-none-eabi/lib/thumb/v7m\libc.a(lib_a-memchr.o)
 .data          0x100008b4        0x0 c:/users/trent smith/desktop/sjsu_dev/yagarto/bin/../lib/gcc/arm-none-eabi/4.6.2/../../../../arm-none-eabi/lib/thumb/v7m\libc.a(lib_a-putc.o)
 .data          0x100008b4        0x0 c:/users/trent smith/desktop/sjsu_dev/yagarto/bin/../lib/gcc/arm-none-eabi/4.6.2/../../../../arm-none-eabi/lib/thumb/v7m\libc.a(lib_a-reent.o)
 .data          0x100008b4        0x0 c:/users/trent smith/desktop/sjsu_dev/yagarto/bin/../lib/gcc/arm-none-eabi/4.6.2/../../../../arm-none-eabi/lib/thumb/v7m\libc.a(lib_a-refill.o)
 .data          0x100008b4        0x0 c:/users/trent smith/desktop/sjsu_dev/yagarto/bin/../lib/gcc/arm-none-eabi/4.6.2/../../../../arm-none-eabi/lib/thumb/v7m\libc.a(lib_a-stdio.o)
 .data          0x100008b4        0x0 c:/users/trent smith/desktop/sjsu_dev/yagarto/bin/../lib/gcc/arm-none-eabi/4.6.2/../../../../arm-none-eabi/lib/thumb/v7m\libc.a(lib_a-svfiprintf.o)
 .data          0x100008b4        0x0 c:/users/trent smith/desktop/sjsu_dev/yagarto/bin/../lib/gcc/arm-none-eabi/4.6.2/../../../../arm-none-eabi/lib/thumb/v7m\libc.a(lib_a-vfiprintf.o)
 .data          0x100008b4        0x0 c:/users/trent smith/desktop/sjsu_dev/yagarto/bin/../lib/gcc/arm-none-eabi/4.6.2/../../../../arm-none-eabi/lib/thumb/v7m\libc.a(lib_a-closer.o)
 .data          0x100008b4        0x0 c:/users/trent smith/desktop/sjsu_dev/yagarto/bin/../lib/gcc/arm-none-eabi/4.6.2/../../../../arm-none-eabi/lib/thumb/v7m\libc.a(lib_a-fclose.o)
 .data          0x100008b4        0x0 c:/users/trent smith/desktop/sjsu_dev/yagarto/bin/../lib/gcc/arm-none-eabi/4.6.2/../../../../arm-none-eabi/lib/thumb/v7m\libc.a(lib_a-fputwc.o)
 .data          0x100008b4        0x0 c:/users/trent smith/desktop/sjsu_dev/yagarto/bin/../lib/gcc/arm-none-eabi/4.6.2/../../../../arm-none-eabi/lib/thumb/v7m\libc.a(lib_a-fstatr.o)
 .data          0x100008b4        0x0 c:/users/trent smith/desktop/sjsu_dev/yagarto/bin/../lib/gcc/arm-none-eabi/4.6.2/../../../../arm-none-eabi/lib/thumb/v7m\libc.a(lib_a-isattyr.o)
 .data          0x100008b4       0x7c c:/users/trent smith/desktop/sjsu_dev/yagarto/bin/../lib/gcc/arm-none-eabi/4.6.2/../../../../arm-none-eabi/lib/thumb/v7m\libc.a(lib_a-locale.o)
                0x100008d4                __mb_cur_max
 .data          0x10000930        0x0 c:/users/trent smith/desktop/sjsu_dev/yagarto/bin/../lib/gcc/arm-none-eabi/4.6.2/../../../../arm-none-eabi/lib/thumb/v7m\libc.a(lib_a-lseekr.o)
 .data          0x10000930        0x0 c:/users/trent smith/desktop/sjsu_dev/yagarto/bin/../lib/gcc/arm-none-eabi/4.6.2/../../../../arm-none-eabi/lib/thumb/v7m\libc.a(lib_a-readr.o)
 .data          0x10000930        0x0 c:/users/trent smith/desktop/sjsu_dev/yagarto/bin/../lib/gcc/arm-none-eabi/4.6.2/../../../../arm-none-eabi/lib/thumb/v7m\libc.a(lib_a-wcrtomb.o)
 .data          0x10000930        0x4 c:/users/trent smith/desktop/sjsu_dev/yagarto/bin/../lib/gcc/arm-none-eabi/4.6.2/../../../../arm-none-eabi/lib/thumb/v7m\libc.a(lib_a-wctomb_r.o)
                0x10000930                __wctomb
 .data          0x10000934        0x0 c:/users/trent smith/desktop/sjsu_dev/yagarto/bin/../lib/gcc/arm-none-eabi/4.6.2/thumb/v7m\libgcc.a(_udivsi3.o)
 .data          0x10000934        0x0 c:/users/trent smith/desktop/sjsu_dev/yagarto/bin/../lib/gcc/arm-none-eabi/4.6.2/thumb/v7m\libgcc.a(_dvmd_tls.o)
                0x10000934                . = ALIGN (0x4)
                0x10000934                _edata = .

.bss            0x10000938      0xcdc load address 0x000152ac
                0x10000938                _bss = .
 *(.bss*)
 .bss           0x10000938        0x0 ./L5_Application/source/handlers.o
 .bss._ZN17SingletonTemplateI10FileLoggerE19mpSingletonInstanceE
                0x10000938        0x4 ./L5_Application/source/handlers.o
                0x10000938                SingletonTemplate<FileLogger>::mpSingletonInstance
 .bss           0x1000093c        0x4 ./L5_Application/source/highLevelInitialize.o
 .bss._ZGVZ10getHandlesE7handles
                0x10000940        0x4 ./L5_Application/source/highLevelInitialize.o
                0x10000940                guard variable for getHandles::handles
 .bss._ZZ10getHandlesE7handles
                0x10000944        0xc ./L5_Application/source/highLevelInitialize.o
                0x10000944                getHandles::handles
 .bss._ZGVZN7Storage10getSDDriveEvE12pSDCardDrive
                0x10000950        0x4 ./L5_Application/source/highLevelInitialize.o
                0x10000950                guard variable for Storage::getSDDrive()::pSDCardDrive
 .bss._ZZN7Storage10getSDDriveEvE12pSDCardDrive
                0x10000954        0x4 ./L5_Application/source/highLevelInitialize.o
                0x10000954                Storage::getSDDrive()::pSDCardDrive
 .bss._ZN17SingletonTemplateI4I2C2E19mpSingletonInstanceE
                0x10000958        0x4 ./L5_Application/source/highLevelInitialize.o
                0x10000958                SingletonTemplate<I2C2>::mpSingletonInstance
 .bss._ZGVZN7Storage13getFlashDriveEvE11pFlashDrive
                0x1000095c        0x4 ./L5_Application/source/highLevelInitialize.o
                0x1000095c                guard variable for Storage::getFlashDrive()::pFlashDrive
 .bss._ZZN7Storage13getFlashDriveEvE11pFlashDrive
                0x10000960        0x4 ./L5_Application/source/highLevelInitialize.o
                0x10000960                Storage::getFlashDrive()::pFlashDrive
 .bss._ZN17SingletonTemplateI11LED_DisplayE19mpSingletonInstanceE
                0x10000964        0x4 ./L5_Application/source/highLevelInitialize.o
                0x10000964                SingletonTemplate<LED_Display>::mpSingletonInstance
 .bss._ZN17SingletonTemplateI19Acceleration_SensorE19mpSingletonInstanceE
                0x10000968        0x4 ./L5_Application/source/highLevelInitialize.o
                0x10000968                SingletonTemplate<Acceleration_Sensor>::mpSingletonInstance
 .bss._ZN17SingletonTemplateI9IR_SensorE19mpSingletonInstanceE
                0x1000096c        0x4 ./L5_Application/source/highLevelInitialize.o
                0x1000096c                SingletonTemplate<IR_Sensor>::mpSingletonInstance
 .bss._ZN17SingletonTemplateI12Light_SensorE19mpSingletonInstanceE
                0x10000970        0x4 ./L5_Application/source/highLevelInitialize.o
                0x10000970                SingletonTemplate<Light_Sensor>::mpSingletonInstance
 .bss._ZN17SingletonTemplateI17TemperatureSensorE19mpSingletonInstanceE
                0x10000974        0x4 ./L5_Application/source/highLevelInitialize.o
                0x10000974                SingletonTemplate<TemperatureSensor>::mpSingletonInstance
 .bss._ZN17SingletonTemplateI3LEDE19mpSingletonInstanceE
                0x10000978        0x4 ./L5_Application/source/highLevelInitialize.o
                0x10000978                SingletonTemplate<LED>::mpSingletonInstance
 .bss._ZN17SingletonTemplateI8SwitchesE19mpSingletonInstanceE
                0x1000097c        0x4 ./L5_Application/source/highLevelInitialize.o
                0x1000097c                SingletonTemplate<Switches>::mpSingletonInstance
 .bss           0x10000980        0x0 ./L5_Application/source/tasks.o
 .bss._ZN17SingletonTemplateI5UART0E19mpSingletonInstanceE
                0x10000980        0x4 ./L5_Application/source/tasks.o
                0x10000980                SingletonTemplate<UART0>::mpSingletonInstance
 .bss           0x10000984        0x0 ./L5_Application/source/utilities.o
 .bss           0x10000984        0x0 ./L5_Application/main.o
 .bss._ZN17SingletonTemplateI6KeypadE19mpSingletonInstanceE
                0x10000984        0x4 ./L5_Application/main.o
                0x10000984                SingletonTemplate<Keypad>::mpSingletonInstance
 .bss._ZN17SingletonTemplateI3LCDE19mpSingletonInstanceE
                0x10000988        0x4 ./L5_Application/main.o
                0x10000988                SingletonTemplate<LCD>::mpSingletonInstance
 .bss           0x1000098c       0x88 ./L4_IO/src/io_source.o
 .bss           0x10000a14        0x0 ./L4_IO/fat/option/ccsbcs.o
 .bss           0x10000a14        0x0 ./L4_IO/fat/option/reentrant.o
 .bss           0x10000a14        0x4 ./L4_IO/fat/disk/diskio.o
 .bss           0x10000a18        0x1 ./L4_IO/fat/disk/sd.o
 .bss           0x10000a19        0x0 ./L4_IO/fat/disk/spi_flash.o
 .bss           0x10000a19        0x0 ./L4_IO/fat/fatfs_time.o
 *fill*         0x10000a19        0x3 00
 .bss           0x10000a1c       0x3c ./L4_IO/fat/ff.o
 .bss           0x10000a58        0x0 ./L3_Utils/src/CommandHandler.o
 .bss           0x10000a58        0x0 ./L3_Utils/src/logger.o
 .bss           0x10000a58        0x0 ./L3_Utils/src/str.o
 .bss           0x10000a58        0x0 ./L3_Utils/src/timer.o
 .bss           0x10000a58        0x0 ./L2_Drivers/src/I2C2.o
 .bss           0x10000a58        0x0 ./L2_Drivers/src/i2c_base.o
 .bss           0x10000a58        0x0 ./L2_Drivers/src/rtc.o
 .bss           0x10000a58        0x0 ./L2_Drivers/src/spi1.o
 .bss           0x10000a58        0x0 ./L2_Drivers/src/uart0.o
 .bss           0x10000a58        0x0 ./L2_Drivers/src/uart_base.o
 .bss           0x10000a58        0x0 ./L1_FreeRTOS/src/croutine.o
 .bss           0x10000a58        0x0 ./L1_FreeRTOS/src/list.o
 .bss           0x10000a58        0x0 ./L1_FreeRTOS/src/queue.o
 .bss           0x10000a58       0xe8 ./L1_FreeRTOS/src/tasks.o
                0x10000a58                pxCurrentTCB
 .bss           0x10000b40       0x38 ./L1_FreeRTOS/src/timers.o
 .bss           0x10000b78        0x0 ./L1_FreeRTOS/portable/port.o
 .bss           0x10000b78        0x0 ./L1_FreeRTOS/hooks/hooks.o
 .bss           0x10000b78        0x0 ./L1_FreeRTOS/MemMang/heap_3.o
 .bss           0x10000b78        0x0 ./L0_LowLevel/source/core_cm3.o
 .bss           0x10000b78        0x0 ./L0_LowLevel/source/cr_startup_lpc175x.o
 .bss           0x10000b78        0x8 ./L0_LowLevel/source/io_functions.o
 .bss           0x10000b80        0x0 ./L0_LowLevel/source/memory.o
 .bss           0x10000b80        0x0 ./L0_LowLevel/source/sys_clock.o
 .bss           0x10000b80        0x4 ./L0_LowLevel/source/sys_hooks.o
 .bss           0x10000b84        0x0 ./L0_LowLevel/source/system_initialization.o
 .bss           0x10000b84        0x0 ./L0_LowLevel/source/uart0_min.o
 .bss           0x10000b84        0x0 c:/users/trent smith/desktop/sjsu_dev/yagarto/bin/../lib/gcc/arm-none-eabi/4.6.2/../../../../arm-none-eabi/lib/thumb/v7m\libstdc++.a(guard.o)
 .bss           0x10000b84        0x0 c:/users/trent smith/desktop/sjsu_dev/yagarto/bin/../lib/gcc/arm-none-eabi/4.6.2/../../../../arm-none-eabi/lib/thumb/v7m\libstdc++.a(guard_error.o)
 .bss           0x10000b84        0x0 c:/users/trent smith/desktop/sjsu_dev/yagarto/bin/../lib/gcc/arm-none-eabi/4.6.2/../../../../arm-none-eabi/lib/thumb/v7m\libstdc++.a(pure.o)
 .bss           0x10000b84        0x0 c:/users/trent smith/desktop/sjsu_dev/yagarto/bin/../lib/gcc/arm-none-eabi/4.6.2/../../../../arm-none-eabi/lib/thumb/v7m\libstdc++.a(si_class_type_info.o)
 .bss           0x10000b84        0x0 c:/users/trent smith/desktop/sjsu_dev/yagarto/bin/../lib/gcc/arm-none-eabi/4.6.2/../../../../arm-none-eabi/lib/thumb/v7m\libstdc++.a(tinfo.o)
 .bss           0x10000b84        0x0 c:/users/trent smith/desktop/sjsu_dev/yagarto/bin/../lib/gcc/arm-none-eabi/4.6.2/../../../../arm-none-eabi/lib/thumb/v7m\libstdc++.a(class_type_info.o)
 .bss           0x10000b84        0x0 c:/users/trent smith/desktop/sjsu_dev/yagarto/bin/../lib/gcc/arm-none-eabi/4.6.2/../../../../arm-none-eabi/lib/thumb/v7m\libstdc++.a(eh_alloc.o)
 .bss._ZL15dependents_used
                0x10000b84        0x4 c:/users/trent smith/desktop/sjsu_dev/yagarto/bin/../lib/gcc/arm-none-eabi/4.6.2/../../../../arm-none-eabi/lib/thumb/v7m\libstdc++.a(eh_alloc.o)
 .bss._ZL17dependents_buffer
                0x10000b88      0x1e0 c:/users/trent smith/desktop/sjsu_dev/yagarto/bin/../lib/gcc/arm-none-eabi/4.6.2/../../../../arm-none-eabi/lib/thumb/v7m\libstdc++.a(eh_alloc.o)
 .bss._ZL14emergency_used
                0x10000d68        0x4 c:/users/trent smith/desktop/sjsu_dev/yagarto/bin/../lib/gcc/arm-none-eabi/4.6.2/../../../../arm-none-eabi/lib/thumb/v7m\libstdc++.a(eh_alloc.o)
 *fill*         0x10000d6c        0x4 00
 .bss._ZL16emergency_buffer
                0x10000d70      0x800 c:/users/trent smith/desktop/sjsu_dev/yagarto/bin/../lib/gcc/arm-none-eabi/4.6.2/../../../../arm-none-eabi/lib/thumb/v7m\libstdc++.a(eh_alloc.o)
 .bss           0x10001570        0x0 c:/users/trent smith/desktop/sjsu_dev/yagarto/bin/../lib/gcc/arm-none-eabi/4.6.2/../../../../arm-none-eabi/lib/thumb/v7m\libstdc++.a(eh_exception.o)
 .bss           0x10001570        0x0 c:/users/trent smith/desktop/sjsu_dev/yagarto/bin/../lib/gcc/arm-none-eabi/4.6.2/../../../../arm-none-eabi/lib/thumb/v7m\libstdc++.a(eh_globals.o)
 .bss._ZL10eh_globals
                0x10001570        0xc c:/users/trent smith/desktop/sjsu_dev/yagarto/bin/../lib/gcc/arm-none-eabi/4.6.2/../../../../arm-none-eabi/lib/thumb/v7m\libstdc++.a(eh_globals.o)
 .bss           0x1000157c        0x0 c:/users/trent smith/desktop/sjsu_dev/yagarto/bin/../lib/gcc/arm-none-eabi/4.6.2/../../../../arm-none-eabi/lib/thumb/v7m\libstdc++.a(eh_terminate.o)
 .bss           0x1000157c        0x0 c:/users/trent smith/desktop/sjsu_dev/yagarto/bin/../lib/gcc/arm-none-eabi/4.6.2/../../../../arm-none-eabi/lib/thumb/v7m\libstdc++.a(eh_term_handler.o)
 .bss           0x1000157c        0x0 c:/users/trent smith/desktop/sjsu_dev/yagarto/bin/../lib/gcc/arm-none-eabi/4.6.2/../../../../arm-none-eabi/lib/thumb/v7m\libstdc++.a(eh_throw.o)
 .bss           0x1000157c        0x0 c:/users/trent smith/desktop/sjsu_dev/yagarto/bin/../lib/gcc/arm-none-eabi/4.6.2/../../../../arm-none-eabi/lib/thumb/v7m\libstdc++.a(eh_unex_handler.o)
 .bss           0x1000157c        0x0 c:/users/trent smith/desktop/sjsu_dev/yagarto/bin/../lib/gcc/arm-none-eabi/4.6.2/../../../../arm-none-eabi/lib/thumb/v7m\libstdc++.a(eh_arm.o)
 .bss           0x1000157c        0x0 c:/users/trent smith/desktop/sjsu_dev/yagarto/bin/../lib/gcc/arm-none-eabi/4.6.2/../../../../arm-none-eabi/lib/thumb/v7m\libstdc++.a(eh_aux_runtime.o)
 .bss           0x1000157c        0x0 c:/users/trent smith/desktop/sjsu_dev/yagarto/bin/../lib/gcc/arm-none-eabi/4.6.2/../../../../arm-none-eabi/lib/thumb/v7m\libstdc++.a(eh_call.o)
 .bss           0x1000157c        0x0 c:/users/trent smith/desktop/sjsu_dev/yagarto/bin/../lib/gcc/arm-none-eabi/4.6.2/../../../../arm-none-eabi/lib/thumb/v7m\libstdc++.a(eh_catch.o)
 .bss           0x1000157c        0x0 c:/users/trent smith/desktop/sjsu_dev/yagarto/bin/../lib/gcc/arm-none-eabi/4.6.2/../../../../arm-none-eabi/lib/thumb/v7m\libstdc++.a(eh_personality.o)
 .bss           0x1000157c        0x0 c:/users/trent smith/desktop/sjsu_dev/yagarto/bin/../lib/gcc/arm-none-eabi/4.6.2/../../../../arm-none-eabi/lib/thumb/v7m\libstdc++.a(fundamental_type_info.o)
 .bss           0x1000157c        0x0 c:/users/trent smith/desktop/sjsu_dev/yagarto/bin/../lib/gcc/arm-none-eabi/4.6.2/../../../../arm-none-eabi/lib/thumb/v7m\libstdc++.a(pointer_type_info.o)
 .bss           0x1000157c        0x0 c:/users/trent smith/desktop/sjsu_dev/yagarto/bin/../lib/gcc/arm-none-eabi/4.6.2/../../../../arm-none-eabi/lib/thumb/v7m\libstdc++.a(bad_cast.o)
 .bss           0x1000157c        0x0 c:/users/trent smith/desktop/sjsu_dev/yagarto/bin/../lib/gcc/arm-none-eabi/4.6.2/../../../../arm-none-eabi/lib/thumb/v7m\libstdc++.a(bad_typeid.o)
 .bss           0x1000157c        0x0 c:/users/trent smith/desktop/sjsu_dev/yagarto/bin/../lib/gcc/arm-none-eabi/4.6.2/../../../../arm-none-eabi/lib/thumb/v7m\libstdc++.a(pbase_type_info.o)
 .bss           0x1000157c        0x0 c:/users/trent smith/desktop/sjsu_dev/yagarto/bin/../lib/gcc/arm-none-eabi/4.6.2/thumb/v7m\libgcc.a(_arm_addsubdf3.o)
 .bss           0x1000157c        0x0 c:/users/trent smith/desktop/sjsu_dev/yagarto/bin/../lib/gcc/arm-none-eabi/4.6.2/thumb/v7m\libgcc.a(_arm_fixdfsi.o)
 .bss           0x1000157c        0x0 c:/users/trent smith/desktop/sjsu_dev/yagarto/bin/../lib/gcc/arm-none-eabi/4.6.2/thumb/v7m\libgcc.a(_arm_fixunsdfsi.o)
 .bss           0x1000157c        0x0 c:/users/trent smith/desktop/sjsu_dev/yagarto/bin/../lib/gcc/arm-none-eabi/4.6.2/thumb/v7m\libgcc.a(_arm_addsubsf3.o)
 .bss           0x1000157c        0x0 c:/users/trent smith/desktop/sjsu_dev/yagarto/bin/../lib/gcc/arm-none-eabi/4.6.2/thumb/v7m\libgcc.a(_arm_muldivsf3.o)
 .bss           0x1000157c        0x0 c:/users/trent smith/desktop/sjsu_dev/yagarto/bin/../lib/gcc/arm-none-eabi/4.6.2/thumb/v7m\libgcc.a(_arm_fixsfsi.o)
 .bss           0x1000157c        0x0 c:/users/trent smith/desktop/sjsu_dev/yagarto/bin/../lib/gcc/arm-none-eabi/4.6.2/thumb/v7m\libgcc.a(_arm_fixunssfsi.o)
 .bss           0x1000157c        0x0 c:/users/trent smith/desktop/sjsu_dev/yagarto/bin/../lib/gcc/arm-none-eabi/4.6.2/thumb/v7m\libgcc.a(unwind-arm.o)
 .bss           0x1000157c        0x0 c:/users/trent smith/desktop/sjsu_dev/yagarto/bin/../lib/gcc/arm-none-eabi/4.6.2/thumb/v7m\libgcc.a(libunwind.o)
 .bss           0x1000157c        0x0 c:/users/trent smith/desktop/sjsu_dev/yagarto/bin/../lib/gcc/arm-none-eabi/4.6.2/thumb/v7m\libgcc.a(pr-support.o)
 .bss           0x1000157c        0x0 c:/users/trent smith/desktop/sjsu_dev/yagarto/bin/../lib/gcc/arm-none-eabi/4.6.2/../../../../arm-none-eabi/lib/thumb/v7m\libc.a(lib_a-abort.o)
 .bss           0x1000157c        0x0 c:/users/trent smith/desktop/sjsu_dev/yagarto/bin/../lib/gcc/arm-none-eabi/4.6.2/../../../../arm-none-eabi/lib/thumb/v7m\libc.a(lib_a-atoi.o)
 .bss           0x1000157c        0x0 c:/users/trent smith/desktop/sjsu_dev/yagarto/bin/../lib/gcc/arm-none-eabi/4.6.2/../../../../arm-none-eabi/lib/thumb/v7m\libc.a(lib_a-impure.o)
 .bss           0x1000157c        0x0 c:/users/trent smith/desktop/sjsu_dev/yagarto/bin/../lib/gcc/arm-none-eabi/4.6.2/../../../../arm-none-eabi/lib/thumb/v7m\libc.a(lib_a-init.o)
 .bss           0x1000157c        0x0 c:/users/trent smith/desktop/sjsu_dev/yagarto/bin/../lib/gcc/arm-none-eabi/4.6.2/../../../../arm-none-eabi/lib/thumb/v7m\libc.a(lib_a-isalnum.o)
 .bss           0x1000157c        0x0 c:/users/trent smith/desktop/sjsu_dev/yagarto/bin/../lib/gcc/arm-none-eabi/4.6.2/../../../../arm-none-eabi/lib/thumb/v7m\libc.a(lib_a-isalpha.o)
 .bss           0x1000157c        0x0 c:/users/trent smith/desktop/sjsu_dev/yagarto/bin/../lib/gcc/arm-none-eabi/4.6.2/../../../../arm-none-eabi/lib/thumb/v7m\libc.a(lib_a-malloc.o)
 .bss           0x1000157c       0x34 c:/users/trent smith/desktop/sjsu_dev/yagarto/bin/../lib/gcc/arm-none-eabi/4.6.2/../../../../arm-none-eabi/lib/thumb/v7m\libc.a(lib_a-mallocr.o)
                0x1000157c                __malloc_top_pad
                0x10001580                __malloc_current_mallinfo
                0x100015a8                __malloc_max_sbrked_mem
                0x100015ac                __malloc_max_total_mem
 .bss           0x100015b0        0x0 c:/users/trent smith/desktop/sjsu_dev/yagarto/bin/../lib/gcc/arm-none-eabi/4.6.2/../../../../arm-none-eabi/lib/thumb/v7m\libc.a(lib_a-memcmp.o)
 .bss           0x100015b0        0x0 c:/users/trent smith/desktop/sjsu_dev/yagarto/bin/../lib/gcc/arm-none-eabi/4.6.2/../../../../arm-none-eabi/lib/thumb/v7m\libc.a(lib_a-memcpy.o)
 .bss           0x100015b0        0x0 c:/users/trent smith/desktop/sjsu_dev/yagarto/bin/../lib/gcc/arm-none-eabi/4.6.2/../../../../arm-none-eabi/lib/thumb/v7m\libc.a(lib_a-memmove.o)
 .bss           0x100015b0        0x0 c:/users/trent smith/desktop/sjsu_dev/yagarto/bin/../lib/gcc/arm-none-eabi/4.6.2/../../../../arm-none-eabi/lib/thumb/v7m\libc.a(lib_a-memset.o)
 .bss           0x100015b0        0x0 c:/users/trent smith/desktop/sjsu_dev/yagarto/bin/../lib/gcc/arm-none-eabi/4.6.2/../../../../arm-none-eabi/lib/thumb/v7m\libc.a(lib_a-mlock.o)
 .bss           0x100015b0        0x0 c:/users/trent smith/desktop/sjsu_dev/yagarto/bin/../lib/gcc/arm-none-eabi/4.6.2/../../../../arm-none-eabi/lib/thumb/v7m\libc.a(lib_a-mstats.o)
 .bss           0x100015b0        0x0 c:/users/trent smith/desktop/sjsu_dev/yagarto/bin/../lib/gcc/arm-none-eabi/4.6.2/../../../../arm-none-eabi/lib/thumb/v7m\libc.a(lib_a-putchar.o)
 .bss           0x100015b0        0x0 c:/users/trent smith/desktop/sjsu_dev/yagarto/bin/../lib/gcc/arm-none-eabi/4.6.2/../../../../arm-none-eabi/lib/thumb/v7m\libc.a(lib_a-puts.o)
 .bss           0x100015b0        0x0 c:/users/trent smith/desktop/sjsu_dev/yagarto/bin/../lib/gcc/arm-none-eabi/4.6.2/../../../../arm-none-eabi/lib/thumb/v7m\libc.a(lib_a-realloc.o)
 .bss           0x100015b0        0x0 c:/users/trent smith/desktop/sjsu_dev/yagarto/bin/../lib/gcc/arm-none-eabi/4.6.2/../../../../arm-none-eabi/lib/thumb/v7m\libc.a(lib_a-reallocr.o)
 .bss           0x100015b0        0x0 c:/users/trent smith/desktop/sjsu_dev/yagarto/bin/../lib/gcc/arm-none-eabi/4.6.2/../../../../arm-none-eabi/lib/thumb/v7m\libc.a(lib_a-rget.o)
 .bss           0x100015b0        0x0 c:/users/trent smith/desktop/sjsu_dev/yagarto/bin/../lib/gcc/arm-none-eabi/4.6.2/../../../../arm-none-eabi/lib/thumb/v7m\libc.a(lib_a-sbrkr.o)
 .bss           0x100015b0        0x0 c:/users/trent smith/desktop/sjsu_dev/yagarto/bin/../lib/gcc/arm-none-eabi/4.6.2/../../../../arm-none-eabi/lib/thumb/v7m\libc.a(lib_a-setvbuf.o)
 .bss           0x100015b0        0x0 c:/users/trent smith/desktop/sjsu_dev/yagarto/bin/../lib/gcc/arm-none-eabi/4.6.2/../../../../arm-none-eabi/lib/thumb/v7m\libc.a(lib_a-signal.o)
 .bss           0x100015b0        0x0 c:/users/trent smith/desktop/sjsu_dev/yagarto/bin/../lib/gcc/arm-none-eabi/4.6.2/../../../../arm-none-eabi/lib/thumb/v7m\libc.a(lib_a-signalr.o)
 .bss           0x100015b0        0x0 c:/users/trent smith/desktop/sjsu_dev/yagarto/bin/../lib/gcc/arm-none-eabi/4.6.2/../../../../arm-none-eabi/lib/thumb/v7m\libc.a(lib_a-strcasecmp.o)
 .bss           0x100015b0        0x0 c:/users/trent smith/desktop/sjsu_dev/yagarto/bin/../lib/gcc/arm-none-eabi/4.6.2/../../../../arm-none-eabi/lib/thumb/v7m\libc.a(lib_a-strcat.o)
 .bss           0x100015b0        0x0 c:/users/trent smith/desktop/sjsu_dev/yagarto/bin/../lib/gcc/arm-none-eabi/4.6.2/../../../../arm-none-eabi/lib/thumb/v7m\libc.a(lib_a-strchr.o)
 .bss           0x100015b0        0x0 c:/users/trent smith/desktop/sjsu_dev/yagarto/bin/../lib/gcc/arm-none-eabi/4.6.2/../../../../arm-none-eabi/lib/thumb/v7m\libc.a(lib_a-strcmp.o)
 .bss           0x100015b0        0x0 c:/users/trent smith/desktop/sjsu_dev/yagarto/bin/../lib/gcc/arm-none-eabi/4.6.2/../../../../arm-none-eabi/lib/thumb/v7m\libc.a(lib_a-strcpy.o)
 .bss           0x100015b0        0x0 c:/users/trent smith/desktop/sjsu_dev/yagarto/bin/../lib/gcc/arm-none-eabi/4.6.2/../../../../arm-none-eabi/lib/thumb/v7m\libc.a(lib_a-strlen.o)
 .bss           0x100015b0        0x0 c:/users/trent smith/desktop/sjsu_dev/yagarto/bin/../lib/gcc/arm-none-eabi/4.6.2/../../../../arm-none-eabi/lib/thumb/v7m\libc.a(lib_a-strncasecmp.o)
 .bss           0x100015b0        0x0 c:/users/trent smith/desktop/sjsu_dev/yagarto/bin/../lib/gcc/arm-none-eabi/4.6.2/../../../../arm-none-eabi/lib/thumb/v7m\libc.a(lib_a-strncmp.o)
 .bss           0x100015b0        0x0 c:/users/trent smith/desktop/sjsu_dev/yagarto/bin/../lib/gcc/arm-none-eabi/4.6.2/../../../../arm-none-eabi/lib/thumb/v7m\libc.a(lib_a-strncpy.o)
 .bss           0x100015b0        0x0 c:/users/trent smith/desktop/sjsu_dev/yagarto/bin/../lib/gcc/arm-none-eabi/4.6.2/../../../../arm-none-eabi/lib/thumb/v7m\libc.a(lib_a-strpbrk.o)
 .bss           0x100015b0        0x0 c:/users/trent smith/desktop/sjsu_dev/yagarto/bin/../lib/gcc/arm-none-eabi/4.6.2/../../../../arm-none-eabi/lib/thumb/v7m\libc.a(lib_a-strrchr.o)
 .bss           0x100015b0        0x0 c:/users/trent smith/desktop/sjsu_dev/yagarto/bin/../lib/gcc/arm-none-eabi/4.6.2/../../../../arm-none-eabi/lib/thumb/v7m\libc.a(lib_a-strstr.o)
 .bss           0x100015b0        0x0 c:/users/trent smith/desktop/sjsu_dev/yagarto/bin/../lib/gcc/arm-none-eabi/4.6.2/../../../../arm-none-eabi/lib/thumb/v7m\libc.a(lib_a-strtol.o)
 .bss           0x100015b0        0x0 c:/users/trent smith/desktop/sjsu_dev/yagarto/bin/../lib/gcc/arm-none-eabi/4.6.2/../../../../arm-none-eabi/lib/thumb/v7m\libc.a(lib_a-syswrite.o)
 .bss           0x100015b0        0x0 c:/users/trent smith/desktop/sjsu_dev/yagarto/bin/../lib/gcc/arm-none-eabi/4.6.2/../../../../arm-none-eabi/lib/thumb/v7m\libc.a(lib_a-tolower.o)
 .bss           0x100015b0        0x0 c:/users/trent smith/desktop/sjsu_dev/yagarto/bin/../lib/gcc/arm-none-eabi/4.6.2/../../../../arm-none-eabi/lib/thumb/v7m\libc.a(lib_a-toupper.o)
 .bss           0x100015b0        0x0 c:/users/trent smith/desktop/sjsu_dev/yagarto/bin/../lib/gcc/arm-none-eabi/4.6.2/../../../../arm-none-eabi/lib/thumb/v7m\libc.a(lib_a-vsniprintf.o)
 .bss           0x100015b0        0x0 c:/users/trent smith/desktop/sjsu_dev/yagarto/bin/../lib/gcc/arm-none-eabi/4.6.2/../../../../arm-none-eabi/lib/thumb/v7m\libc.a(lib_a-wbuf.o)
 .bss           0x100015b0        0x0 c:/users/trent smith/desktop/sjsu_dev/yagarto/bin/../lib/gcc/arm-none-eabi/4.6.2/../../../../arm-none-eabi/lib/thumb/v7m\libc.a(lib_a-writer.o)
 .bss           0x100015b0        0x0 c:/users/trent smith/desktop/sjsu_dev/yagarto/bin/../lib/gcc/arm-none-eabi/4.6.2/../../../../arm-none-eabi/lib/thumb/v7m\libc.a(lib_a-wsetup.o)
 .bss           0x100015b0        0x0 c:/users/trent smith/desktop/sjsu_dev/yagarto/bin/../lib/gcc/arm-none-eabi/4.6.2/../../../../arm-none-eabi/lib/thumb/v7m\libc.a(lib_a-ctype_.o)
 .bss           0x100015b0        0x0 c:/users/trent smith/desktop/sjsu_dev/yagarto/bin/../lib/gcc/arm-none-eabi/4.6.2/../../../../arm-none-eabi/lib/thumb/v7m\libc.a(lib_a-fflush.o)
 .bss           0x100015b0        0x0 c:/users/trent smith/desktop/sjsu_dev/yagarto/bin/../lib/gcc/arm-none-eabi/4.6.2/../../../../arm-none-eabi/lib/thumb/v7m\libc.a(lib_a-findfp.o)
 .bss           0x100015b0        0x0 c:/users/trent smith/desktop/sjsu_dev/yagarto/bin/../lib/gcc/arm-none-eabi/4.6.2/../../../../arm-none-eabi/lib/thumb/v7m\libc.a(lib_a-fiprintf.o)
 .bss           0x100015b0        0x0 c:/users/trent smith/desktop/sjsu_dev/yagarto/bin/../lib/gcc/arm-none-eabi/4.6.2/../../../../arm-none-eabi/lib/thumb/v7m\libc.a(lib_a-freer.o)
 .bss           0x100015b0        0x0 c:/users/trent smith/desktop/sjsu_dev/yagarto/bin/../lib/gcc/arm-none-eabi/4.6.2/../../../../arm-none-eabi/lib/thumb/v7m\libc.a(lib_a-fvwrite.o)
 .bss           0x100015b0        0x0 c:/users/trent smith/desktop/sjsu_dev/yagarto/bin/../lib/gcc/arm-none-eabi/4.6.2/../../../../arm-none-eabi/lib/thumb/v7m\libc.a(lib_a-fwalk.o)
 .bss           0x100015b0        0x0 c:/users/trent smith/desktop/sjsu_dev/yagarto/bin/../lib/gcc/arm-none-eabi/4.6.2/../../../../arm-none-eabi/lib/thumb/v7m\libc.a(lib_a-makebuf.o)
 .bss           0x100015b0        0x0 c:/users/trent smith/desktop/sjsu_dev/yagarto/bin/../lib/gcc/arm-none-eabi/4.6.2/../../../../arm-none-eabi/lib/thumb/v7m\libc.a(lib_a-mallinfor.o)
 .bss           0x100015b0        0x0 c:/users/trent smith/desktop/sjsu_dev/yagarto/bin/../lib/gcc/arm-none-eabi/4.6.2/../../../../arm-none-eabi/lib/thumb/v7m\libc.a(lib_a-malloptr.o)
 .bss           0x100015b0        0x0 c:/users/trent smith/desktop/sjsu_dev/yagarto/bin/../lib/gcc/arm-none-eabi/4.6.2/../../../../arm-none-eabi/lib/thumb/v7m\libc.a(lib_a-mallstatsr.o)
 .bss           0x100015b0        0x0 c:/users/trent smith/desktop/sjsu_dev/yagarto/bin/../lib/gcc/arm-none-eabi/4.6.2/../../../../arm-none-eabi/lib/thumb/v7m\libc.a(lib_a-memchr.o)
 .bss           0x100015b0        0x0 c:/users/trent smith/desktop/sjsu_dev/yagarto/bin/../lib/gcc/arm-none-eabi/4.6.2/../../../../arm-none-eabi/lib/thumb/v7m\libc.a(lib_a-putc.o)
 .bss           0x100015b0        0x0 c:/users/trent smith/desktop/sjsu_dev/yagarto/bin/../lib/gcc/arm-none-eabi/4.6.2/../../../../arm-none-eabi/lib/thumb/v7m\libc.a(lib_a-reent.o)
 .bss           0x100015b0        0x0 c:/users/trent smith/desktop/sjsu_dev/yagarto/bin/../lib/gcc/arm-none-eabi/4.6.2/../../../../arm-none-eabi/lib/thumb/v7m\libc.a(lib_a-refill.o)
 .bss           0x100015b0        0x0 c:/users/trent smith/desktop/sjsu_dev/yagarto/bin/../lib/gcc/arm-none-eabi/4.6.2/../../../../arm-none-eabi/lib/thumb/v7m\libc.a(lib_a-stdio.o)
 .bss           0x100015b0        0x0 c:/users/trent smith/desktop/sjsu_dev/yagarto/bin/../lib/gcc/arm-none-eabi/4.6.2/../../../../arm-none-eabi/lib/thumb/v7m\libc.a(lib_a-svfiprintf.o)
 .bss           0x100015b0        0x0 c:/users/trent smith/desktop/sjsu_dev/yagarto/bin/../lib/gcc/arm-none-eabi/4.6.2/../../../../arm-none-eabi/lib/thumb/v7m\libc.a(lib_a-vfiprintf.o)
 .bss           0x100015b0        0x0 c:/users/trent smith/desktop/sjsu_dev/yagarto/bin/../lib/gcc/arm-none-eabi/4.6.2/../../../../arm-none-eabi/lib/thumb/v7m\libc.a(lib_a-closer.o)
 .bss           0x100015b0        0x0 c:/users/trent smith/desktop/sjsu_dev/yagarto/bin/../lib/gcc/arm-none-eabi/4.6.2/../../../../arm-none-eabi/lib/thumb/v7m\libc.a(lib_a-fclose.o)
 .bss           0x100015b0        0x0 c:/users/trent smith/desktop/sjsu_dev/yagarto/bin/../lib/gcc/arm-none-eabi/4.6.2/../../../../arm-none-eabi/lib/thumb/v7m\libc.a(lib_a-fputwc.o)
 .bss           0x100015b0        0x0 c:/users/trent smith/desktop/sjsu_dev/yagarto/bin/../lib/gcc/arm-none-eabi/4.6.2/../../../../arm-none-eabi/lib/thumb/v7m\libc.a(lib_a-fstatr.o)
 .bss           0x100015b0        0x0 c:/users/trent smith/desktop/sjsu_dev/yagarto/bin/../lib/gcc/arm-none-eabi/4.6.2/../../../../arm-none-eabi/lib/thumb/v7m\libc.a(lib_a-isattyr.o)
 .bss           0x100015b0        0xc c:/users/trent smith/desktop/sjsu_dev/yagarto/bin/../lib/gcc/arm-none-eabi/4.6.2/../../../../arm-none-eabi/lib/thumb/v7m\libc.a(lib_a-locale.o)
                0x100015b0                _PathLocale
                0x100015b4                __mlocale_changed
                0x100015b8                __nlocale_changed
 .bss           0x100015bc        0x0 c:/users/trent smith/desktop/sjsu_dev/yagarto/bin/../lib/gcc/arm-none-eabi/4.6.2/../../../../arm-none-eabi/lib/thumb/v7m\libc.a(lib_a-lseekr.o)
 .bss           0x100015bc        0x0 c:/users/trent smith/desktop/sjsu_dev/yagarto/bin/../lib/gcc/arm-none-eabi/4.6.2/../../../../arm-none-eabi/lib/thumb/v7m\libc.a(lib_a-readr.o)
 .bss           0x100015bc        0x0 c:/users/trent smith/desktop/sjsu_dev/yagarto/bin/../lib/gcc/arm-none-eabi/4.6.2/../../../../arm-none-eabi/lib/thumb/v7m\libc.a(lib_a-wcrtomb.o)
 .bss           0x100015bc        0x0 c:/users/trent smith/desktop/sjsu_dev/yagarto/bin/../lib/gcc/arm-none-eabi/4.6.2/../../../../arm-none-eabi/lib/thumb/v7m\libc.a(lib_a-wctomb_r.o)
 .bss           0x100015bc        0x0 c:/users/trent smith/desktop/sjsu_dev/yagarto/bin/../lib/gcc/arm-none-eabi/4.6.2/thumb/v7m\libgcc.a(_udivsi3.o)
 .bss           0x100015bc        0x0 c:/users/trent smith/desktop/sjsu_dev/yagarto/bin/../lib/gcc/arm-none-eabi/4.6.2/thumb/v7m\libgcc.a(_dvmd_tls.o)
 *(COMMON)
 COMMON         0x100015bc        0x3 ./L4_IO/fat/disk/sd.o
                0x100015bc                SD_TIMER1_100HZ
                0x100015bd                CardType
                0x100015be                SD_TIMER2_100HZ
 *fill*         0x100015bf        0x1 00
 COMMON         0x100015c0       0x50 ./L1_FreeRTOS/src/queue.o
                0x100015c0                xQueueRegistry
 COMMON         0x10001610        0x4 c:/users/trent smith/desktop/sjsu_dev/yagarto/bin/../lib/gcc/arm-none-eabi/4.6.2/../../../../arm-none-eabi/lib/thumb/v7m\libc.a(lib_a-reent.o)
                0x10001610                errno
                0x10001614                . = ALIGN (0x4)
                0x10001614                _ebss = .
                0x10001614                PROVIDE (end, .)
                0x10001614                PROVIDE (_pvHeapStart, .)
                0x10008000                PROVIDE (_vStackTop, (__top_RamLoc32 - 0x0))
OUTPUT(lpc17xx_CPP_HelloWorld.elf elf32-littlearm)

.comment        0x00000000       0x11
 .comment       0x00000000       0x11 ./L5_Application/source/handlers.o
                                 0x12 (size before relaxing)
 .comment       0x00000000       0x12 ./L5_Application/source/highLevelInitialize.o
 .comment       0x00000000       0x12 ./L5_Application/source/tasks.o
 .comment       0x00000000       0x12 ./L5_Application/source/utilities.o
 .comment       0x00000000       0x12 ./L5_Application/main.o
 .comment       0x00000000       0x12 ./L4_IO/src/io_source.o
 .comment       0x00000000       0x12 ./L4_IO/fat/option/ccsbcs.o
 .comment       0x00000000       0x12 ./L4_IO/fat/option/reentrant.o
 .comment       0x00000000       0x12 ./L4_IO/fat/disk/diskio.o
 .comment       0x00000000       0x12 ./L4_IO/fat/disk/sd.o
 .comment       0x00000000       0x12 ./L4_IO/fat/disk/spi_flash.o
 .comment       0x00000000       0x12 ./L4_IO/fat/fatfs_time.o
 .comment       0x00000000       0x12 ./L4_IO/fat/ff.o
 .comment       0x00000000       0x12 ./L3_Utils/src/CommandHandler.o
 .comment       0x00000000       0x12 ./L3_Utils/src/logger.o
 .comment       0x00000000       0x12 ./L3_Utils/src/str.o
 .comment       0x00000000       0x12 ./L3_Utils/src/timer.o
 .comment       0x00000000       0x12 ./L2_Drivers/src/I2C2.o
 .comment       0x00000000       0x12 ./L2_Drivers/src/i2c_base.o
 .comment       0x00000000       0x12 ./L2_Drivers/src/rtc.o
 .comment       0x00000000       0x12 ./L2_Drivers/src/spi1.o
 .comment       0x00000000       0x12 ./L2_Drivers/src/uart0.o
 .comment       0x00000000       0x12 ./L2_Drivers/src/uart_base.o
 .comment       0x00000000       0x12 ./L1_FreeRTOS/src/croutine.o
 .comment       0x00000000       0x12 ./L1_FreeRTOS/src/list.o
 .comment       0x00000000       0x12 ./L1_FreeRTOS/src/queue.o
 .comment       0x00000000       0x12 ./L1_FreeRTOS/src/tasks.o
 .comment       0x00000000       0x12 ./L1_FreeRTOS/src/timers.o
 .comment       0x00000000       0x12 ./L1_FreeRTOS/portable/port.o
 .comment       0x00000000       0x12 ./L1_FreeRTOS/hooks/hooks.o
 .comment       0x00000000       0x12 ./L1_FreeRTOS/MemMang/heap_3.o
 .comment       0x00000000       0x12 ./L0_LowLevel/source/core_cm3.o
 .comment       0x00000000       0x12 ./L0_LowLevel/source/cr_startup_lpc175x.o
 .comment       0x00000000       0x12 ./L0_LowLevel/source/io_functions.o
 .comment       0x00000000       0x12 ./L0_LowLevel/source/memory.o
 .comment       0x00000000       0x12 ./L0_LowLevel/source/sys_clock.o
 .comment       0x00000000       0x12 ./L0_LowLevel/source/sys_hooks.o
 .comment       0x00000000       0x12 ./L0_LowLevel/source/system_initialization.o
 .comment       0x00000000       0x12 ./L0_LowLevel/source/uart0_min.o
 .comment       0x00000000       0x12 c:/users/trent smith/desktop/sjsu_dev/yagarto/bin/../lib/gcc/arm-none-eabi/4.6.2/../../../../arm-none-eabi/lib/thumb/v7m\libstdc++.a(guard.o)
 .comment       0x00000000       0x12 c:/users/trent smith/desktop/sjsu_dev/yagarto/bin/../lib/gcc/arm-none-eabi/4.6.2/../../../../arm-none-eabi/lib/thumb/v7m\libstdc++.a(guard_error.o)
 .comment       0x00000000       0x12 c:/users/trent smith/desktop/sjsu_dev/yagarto/bin/../lib/gcc/arm-none-eabi/4.6.2/../../../../arm-none-eabi/lib/thumb/v7m\libstdc++.a(pure.o)
 .comment       0x00000000       0x12 c:/users/trent smith/desktop/sjsu_dev/yagarto/bin/../lib/gcc/arm-none-eabi/4.6.2/../../../../arm-none-eabi/lib/thumb/v7m\libstdc++.a(si_class_type_info.o)
 .comment       0x00000000       0x12 c:/users/trent smith/desktop/sjsu_dev/yagarto/bin/../lib/gcc/arm-none-eabi/4.6.2/../../../../arm-none-eabi/lib/thumb/v7m\libstdc++.a(tinfo.o)
 .comment       0x00000000       0x12 c:/users/trent smith/desktop/sjsu_dev/yagarto/bin/../lib/gcc/arm-none-eabi/4.6.2/../../../../arm-none-eabi/lib/thumb/v7m\libstdc++.a(class_type_info.o)
 .comment       0x00000000       0x12 c:/users/trent smith/desktop/sjsu_dev/yagarto/bin/../lib/gcc/arm-none-eabi/4.6.2/../../../../arm-none-eabi/lib/thumb/v7m\libstdc++.a(eh_alloc.o)
 .comment       0x00000000       0x12 c:/users/trent smith/desktop/sjsu_dev/yagarto/bin/../lib/gcc/arm-none-eabi/4.6.2/../../../../arm-none-eabi/lib/thumb/v7m\libstdc++.a(eh_exception.o)
 .comment       0x00000000       0x12 c:/users/trent smith/desktop/sjsu_dev/yagarto/bin/../lib/gcc/arm-none-eabi/4.6.2/../../../../arm-none-eabi/lib/thumb/v7m\libstdc++.a(eh_globals.o)
 .comment       0x00000000       0x12 c:/users/trent smith/desktop/sjsu_dev/yagarto/bin/../lib/gcc/arm-none-eabi/4.6.2/../../../../arm-none-eabi/lib/thumb/v7m\libstdc++.a(eh_terminate.o)
 .comment       0x00000000       0x12 c:/users/trent smith/desktop/sjsu_dev/yagarto/bin/../lib/gcc/arm-none-eabi/4.6.2/../../../../arm-none-eabi/lib/thumb/v7m\libstdc++.a(eh_term_handler.o)
 .comment       0x00000000       0x12 c:/users/trent smith/desktop/sjsu_dev/yagarto/bin/../lib/gcc/arm-none-eabi/4.6.2/../../../../arm-none-eabi/lib/thumb/v7m\libstdc++.a(eh_throw.o)
 .comment       0x00000000       0x12 c:/users/trent smith/desktop/sjsu_dev/yagarto/bin/../lib/gcc/arm-none-eabi/4.6.2/../../../../arm-none-eabi/lib/thumb/v7m\libstdc++.a(eh_unex_handler.o)
 .comment       0x00000000       0x12 c:/users/trent smith/desktop/sjsu_dev/yagarto/bin/../lib/gcc/arm-none-eabi/4.6.2/../../../../arm-none-eabi/lib/thumb/v7m\libstdc++.a(eh_arm.o)
 .comment       0x00000000       0x12 c:/users/trent smith/desktop/sjsu_dev/yagarto/bin/../lib/gcc/arm-none-eabi/4.6.2/../../../../arm-none-eabi/lib/thumb/v7m\libstdc++.a(eh_aux_runtime.o)
 .comment       0x00000000       0x12 c:/users/trent smith/desktop/sjsu_dev/yagarto/bin/../lib/gcc/arm-none-eabi/4.6.2/../../../../arm-none-eabi/lib/thumb/v7m\libstdc++.a(eh_call.o)
 .comment       0x00000000       0x12 c:/users/trent smith/desktop/sjsu_dev/yagarto/bin/../lib/gcc/arm-none-eabi/4.6.2/../../../../arm-none-eabi/lib/thumb/v7m\libstdc++.a(eh_catch.o)
 .comment       0x00000000       0x12 c:/users/trent smith/desktop/sjsu_dev/yagarto/bin/../lib/gcc/arm-none-eabi/4.6.2/../../../../arm-none-eabi/lib/thumb/v7m\libstdc++.a(eh_personality.o)
 .comment       0x00000000       0x12 c:/users/trent smith/desktop/sjsu_dev/yagarto/bin/../lib/gcc/arm-none-eabi/4.6.2/../../../../arm-none-eabi/lib/thumb/v7m\libstdc++.a(fundamental_type_info.o)
 .comment       0x00000000       0x12 c:/users/trent smith/desktop/sjsu_dev/yagarto/bin/../lib/gcc/arm-none-eabi/4.6.2/../../../../arm-none-eabi/lib/thumb/v7m\libstdc++.a(pointer_type_info.o)
 .comment       0x00000000       0x12 c:/users/trent smith/desktop/sjsu_dev/yagarto/bin/../lib/gcc/arm-none-eabi/4.6.2/../../../../arm-none-eabi/lib/thumb/v7m\libstdc++.a(bad_cast.o)
 .comment       0x00000000       0x12 c:/users/trent smith/desktop/sjsu_dev/yagarto/bin/../lib/gcc/arm-none-eabi/4.6.2/../../../../arm-none-eabi/lib/thumb/v7m\libstdc++.a(bad_typeid.o)
 .comment       0x00000000       0x12 c:/users/trent smith/desktop/sjsu_dev/yagarto/bin/../lib/gcc/arm-none-eabi/4.6.2/../../../../arm-none-eabi/lib/thumb/v7m\libstdc++.a(pbase_type_info.o)
 .comment       0x00000000       0x12 c:/users/trent smith/desktop/sjsu_dev/yagarto/bin/../lib/gcc/arm-none-eabi/4.6.2/thumb/v7m\libgcc.a(unwind-arm.o)
 .comment       0x00000000       0x12 c:/users/trent smith/desktop/sjsu_dev/yagarto/bin/../lib/gcc/arm-none-eabi/4.6.2/thumb/v7m\libgcc.a(pr-support.o)
 .comment       0x00000000       0x12 c:/users/trent smith/desktop/sjsu_dev/yagarto/bin/../lib/gcc/arm-none-eabi/4.6.2/../../../../arm-none-eabi/lib/thumb/v7m\libc.a(lib_a-abort.o)
 .comment       0x00000000       0x12 c:/users/trent smith/desktop/sjsu_dev/yagarto/bin/../lib/gcc/arm-none-eabi/4.6.2/../../../../arm-none-eabi/lib/thumb/v7m\libc.a(lib_a-atoi.o)
 .comment       0x00000000       0x12 c:/users/trent smith/desktop/sjsu_dev/yagarto/bin/../lib/gcc/arm-none-eabi/4.6.2/../../../../arm-none-eabi/lib/thumb/v7m\libc.a(lib_a-impure.o)
 .comment       0x00000000       0x12 c:/users/trent smith/desktop/sjsu_dev/yagarto/bin/../lib/gcc/arm-none-eabi/4.6.2/../../../../arm-none-eabi/lib/thumb/v7m\libc.a(lib_a-init.o)
 .comment       0x00000000       0x12 c:/users/trent smith/desktop/sjsu_dev/yagarto/bin/../lib/gcc/arm-none-eabi/4.6.2/../../../../arm-none-eabi/lib/thumb/v7m\libc.a(lib_a-isalnum.o)
 .comment       0x00000000       0x12 c:/users/trent smith/desktop/sjsu_dev/yagarto/bin/../lib/gcc/arm-none-eabi/4.6.2/../../../../arm-none-eabi/lib/thumb/v7m\libc.a(lib_a-isalpha.o)
 .comment       0x00000000       0x12 c:/users/trent smith/desktop/sjsu_dev/yagarto/bin/../lib/gcc/arm-none-eabi/4.6.2/../../../../arm-none-eabi/lib/thumb/v7m\libc.a(lib_a-malloc.o)
 .comment       0x00000000       0x12 c:/users/trent smith/desktop/sjsu_dev/yagarto/bin/../lib/gcc/arm-none-eabi/4.6.2/../../../../arm-none-eabi/lib/thumb/v7m\libc.a(lib_a-mallocr.o)
 .comment       0x00000000       0x12 c:/users/trent smith/desktop/sjsu_dev/yagarto/bin/../lib/gcc/arm-none-eabi/4.6.2/../../../../arm-none-eabi/lib/thumb/v7m\libc.a(lib_a-memcmp.o)
 .comment       0x00000000       0x12 c:/users/trent smith/desktop/sjsu_dev/yagarto/bin/../lib/gcc/arm-none-eabi/4.6.2/../../../../arm-none-eabi/lib/thumb/v7m\libc.a(lib_a-memcpy.o)
 .comment       0x00000000       0x12 c:/users/trent smith/desktop/sjsu_dev/yagarto/bin/../lib/gcc/arm-none-eabi/4.6.2/../../../../arm-none-eabi/lib/thumb/v7m\libc.a(lib_a-memmove.o)
 .comment       0x00000000       0x12 c:/users/trent smith/desktop/sjsu_dev/yagarto/bin/../lib/gcc/arm-none-eabi/4.6.2/../../../../arm-none-eabi/lib/thumb/v7m\libc.a(lib_a-memset.o)
 .comment       0x00000000       0x12 c:/users/trent smith/desktop/sjsu_dev/yagarto/bin/../lib/gcc/arm-none-eabi/4.6.2/../../../../arm-none-eabi/lib/thumb/v7m\libc.a(lib_a-mlock.o)
 .comment       0x00000000       0x12 c:/users/trent smith/desktop/sjsu_dev/yagarto/bin/../lib/gcc/arm-none-eabi/4.6.2/../../../../arm-none-eabi/lib/thumb/v7m\libc.a(lib_a-mstats.o)
 .comment       0x00000000       0x12 c:/users/trent smith/desktop/sjsu_dev/yagarto/bin/../lib/gcc/arm-none-eabi/4.6.2/../../../../arm-none-eabi/lib/thumb/v7m\libc.a(lib_a-putchar.o)
 .comment       0x00000000       0x12 c:/users/trent smith/desktop/sjsu_dev/yagarto/bin/../lib/gcc/arm-none-eabi/4.6.2/../../../../arm-none-eabi/lib/thumb/v7m\libc.a(lib_a-puts.o)
 .comment       0x00000000       0x12 c:/users/trent smith/desktop/sjsu_dev/yagarto/bin/../lib/gcc/arm-none-eabi/4.6.2/../../../../arm-none-eabi/lib/thumb/v7m\libc.a(lib_a-realloc.o)
 .comment       0x00000000       0x12 c:/users/trent smith/desktop/sjsu_dev/yagarto/bin/../lib/gcc/arm-none-eabi/4.6.2/../../../../arm-none-eabi/lib/thumb/v7m\libc.a(lib_a-reallocr.o)
 .comment       0x00000000       0x12 c:/users/trent smith/desktop/sjsu_dev/yagarto/bin/../lib/gcc/arm-none-eabi/4.6.2/../../../../arm-none-eabi/lib/thumb/v7m\libc.a(lib_a-rget.o)
 .comment       0x00000000       0x12 c:/users/trent smith/desktop/sjsu_dev/yagarto/bin/../lib/gcc/arm-none-eabi/4.6.2/../../../../arm-none-eabi/lib/thumb/v7m\libc.a(lib_a-sbrkr.o)
 .comment       0x00000000       0x12 c:/users/trent smith/desktop/sjsu_dev/yagarto/bin/../lib/gcc/arm-none-eabi/4.6.2/../../../../arm-none-eabi/lib/thumb/v7m\libc.a(lib_a-setvbuf.o)
 .comment       0x00000000       0x12 c:/users/trent smith/desktop/sjsu_dev/yagarto/bin/../lib/gcc/arm-none-eabi/4.6.2/../../../../arm-none-eabi/lib/thumb/v7m\libc.a(lib_a-signal.o)
 .comment       0x00000000       0x12 c:/users/trent smith/desktop/sjsu_dev/yagarto/bin/../lib/gcc/arm-none-eabi/4.6.2/../../../../arm-none-eabi/lib/thumb/v7m\libc.a(lib_a-signalr.o)
 .comment       0x00000000       0x12 c:/users/trent smith/desktop/sjsu_dev/yagarto/bin/../lib/gcc/arm-none-eabi/4.6.2/../../../../arm-none-eabi/lib/thumb/v7m\libc.a(lib_a-strcasecmp.o)
 .comment       0x00000000       0x12 c:/users/trent smith/desktop/sjsu_dev/yagarto/bin/../lib/gcc/arm-none-eabi/4.6.2/../../../../arm-none-eabi/lib/thumb/v7m\libc.a(lib_a-strcat.o)
 .comment       0x00000000       0x12 c:/users/trent smith/desktop/sjsu_dev/yagarto/bin/../lib/gcc/arm-none-eabi/4.6.2/../../../../arm-none-eabi/lib/thumb/v7m\libc.a(lib_a-strchr.o)
 .comment       0x00000000       0x12 c:/users/trent smith/desktop/sjsu_dev/yagarto/bin/../lib/gcc/arm-none-eabi/4.6.2/../../../../arm-none-eabi/lib/thumb/v7m\libc.a(lib_a-strcmp.o)
 .comment       0x00000000       0x12 c:/users/trent smith/desktop/sjsu_dev/yagarto/bin/../lib/gcc/arm-none-eabi/4.6.2/../../../../arm-none-eabi/lib/thumb/v7m\libc.a(lib_a-strcpy.o)
 .comment       0x00000000       0x12 c:/users/trent smith/desktop/sjsu_dev/yagarto/bin/../lib/gcc/arm-none-eabi/4.6.2/../../../../arm-none-eabi/lib/thumb/v7m\libc.a(lib_a-strlen.o)
 .comment       0x00000000       0x12 c:/users/trent smith/desktop/sjsu_dev/yagarto/bin/../lib/gcc/arm-none-eabi/4.6.2/../../../../arm-none-eabi/lib/thumb/v7m\libc.a(lib_a-strncasecmp.o)
 .comment       0x00000000       0x12 c:/users/trent smith/desktop/sjsu_dev/yagarto/bin/../lib/gcc/arm-none-eabi/4.6.2/../../../../arm-none-eabi/lib/thumb/v7m\libc.a(lib_a-strncmp.o)
 .comment       0x00000000       0x12 c:/users/trent smith/desktop/sjsu_dev/yagarto/bin/../lib/gcc/arm-none-eabi/4.6.2/../../../../arm-none-eabi/lib/thumb/v7m\libc.a(lib_a-strncpy.o)
 .comment       0x00000000       0x12 c:/users/trent smith/desktop/sjsu_dev/yagarto/bin/../lib/gcc/arm-none-eabi/4.6.2/../../../../arm-none-eabi/lib/thumb/v7m\libc.a(lib_a-strpbrk.o)
 .comment       0x00000000       0x12 c:/users/trent smith/desktop/sjsu_dev/yagarto/bin/../lib/gcc/arm-none-eabi/4.6.2/../../../../arm-none-eabi/lib/thumb/v7m\libc.a(lib_a-strrchr.o)
 .comment       0x00000000       0x12 c:/users/trent smith/desktop/sjsu_dev/yagarto/bin/../lib/gcc/arm-none-eabi/4.6.2/../../../../arm-none-eabi/lib/thumb/v7m\libc.a(lib_a-strstr.o)
 .comment       0x00000000       0x12 c:/users/trent smith/desktop/sjsu_dev/yagarto/bin/../lib/gcc/arm-none-eabi/4.6.2/../../../../arm-none-eabi/lib/thumb/v7m\libc.a(lib_a-strtol.o)
 .comment       0x00000000       0x12 c:/users/trent smith/desktop/sjsu_dev/yagarto/bin/../lib/gcc/arm-none-eabi/4.6.2/../../../../arm-none-eabi/lib/thumb/v7m\libc.a(lib_a-syswrite.o)
 .comment       0x00000000       0x12 c:/users/trent smith/desktop/sjsu_dev/yagarto/bin/../lib/gcc/arm-none-eabi/4.6.2/../../../../arm-none-eabi/lib/thumb/v7m\libc.a(lib_a-tolower.o)
 .comment       0x00000000       0x12 c:/users/trent smith/desktop/sjsu_dev/yagarto/bin/../lib/gcc/arm-none-eabi/4.6.2/../../../../arm-none-eabi/lib/thumb/v7m\libc.a(lib_a-toupper.o)
 .comment       0x00000000       0x12 c:/users/trent smith/desktop/sjsu_dev/yagarto/bin/../lib/gcc/arm-none-eabi/4.6.2/../../../../arm-none-eabi/lib/thumb/v7m\libc.a(lib_a-vsniprintf.o)
 .comment       0x00000000       0x12 c:/users/trent smith/desktop/sjsu_dev/yagarto/bin/../lib/gcc/arm-none-eabi/4.6.2/../../../../arm-none-eabi/lib/thumb/v7m\libc.a(lib_a-wbuf.o)
 .comment       0x00000000       0x12 c:/users/trent smith/desktop/sjsu_dev/yagarto/bin/../lib/gcc/arm-none-eabi/4.6.2/../../../../arm-none-eabi/lib/thumb/v7m\libc.a(lib_a-writer.o)
 .comment       0x00000000       0x12 c:/users/trent smith/desktop/sjsu_dev/yagarto/bin/../lib/gcc/arm-none-eabi/4.6.2/../../../../arm-none-eabi/lib/thumb/v7m\libc.a(lib_a-wsetup.o)
 .comment       0x00000000       0x12 c:/users/trent smith/desktop/sjsu_dev/yagarto/bin/../lib/gcc/arm-none-eabi/4.6.2/../../../../arm-none-eabi/lib/thumb/v7m\libc.a(lib_a-ctype_.o)
 .comment       0x00000000       0x12 c:/users/trent smith/desktop/sjsu_dev/yagarto/bin/../lib/gcc/arm-none-eabi/4.6.2/../../../../arm-none-eabi/lib/thumb/v7m\libc.a(lib_a-fflush.o)
 .comment       0x00000000       0x12 c:/users/trent smith/desktop/sjsu_dev/yagarto/bin/../lib/gcc/arm-none-eabi/4.6.2/../../../../arm-none-eabi/lib/thumb/v7m\libc.a(lib_a-findfp.o)
 .comment       0x00000000       0x12 c:/users/trent smith/desktop/sjsu_dev/yagarto/bin/../lib/gcc/arm-none-eabi/4.6.2/../../../../arm-none-eabi/lib/thumb/v7m\libc.a(lib_a-fiprintf.o)
 .comment       0x00000000       0x12 c:/users/trent smith/desktop/sjsu_dev/yagarto/bin/../lib/gcc/arm-none-eabi/4.6.2/../../../../arm-none-eabi/lib/thumb/v7m\libc.a(lib_a-freer.o)
 .comment       0x00000000       0x12 c:/users/trent smith/desktop/sjsu_dev/yagarto/bin/../lib/gcc/arm-none-eabi/4.6.2/../../../../arm-none-eabi/lib/thumb/v7m\libc.a(lib_a-fvwrite.o)
 .comment       0x00000000       0x12 c:/users/trent smith/desktop/sjsu_dev/yagarto/bin/../lib/gcc/arm-none-eabi/4.6.2/../../../../arm-none-eabi/lib/thumb/v7m\libc.a(lib_a-fwalk.o)
 .comment       0x00000000       0x12 c:/users/trent smith/desktop/sjsu_dev/yagarto/bin/../lib/gcc/arm-none-eabi/4.6.2/../../../../arm-none-eabi/lib/thumb/v7m\libc.a(lib_a-makebuf.o)
 .comment       0x00000000       0x12 c:/users/trent smith/desktop/sjsu_dev/yagarto/bin/../lib/gcc/arm-none-eabi/4.6.2/../../../../arm-none-eabi/lib/thumb/v7m\libc.a(lib_a-mallinfor.o)
 .comment       0x00000000       0x12 c:/users/trent smith/desktop/sjsu_dev/yagarto/bin/../lib/gcc/arm-none-eabi/4.6.2/../../../../arm-none-eabi/lib/thumb/v7m\libc.a(lib_a-malloptr.o)
 .comment       0x00000000       0x12 c:/users/trent smith/desktop/sjsu_dev/yagarto/bin/../lib/gcc/arm-none-eabi/4.6.2/../../../../arm-none-eabi/lib/thumb/v7m\libc.a(lib_a-mallstatsr.o)
 .comment       0x00000000       0x12 c:/users/trent smith/desktop/sjsu_dev/yagarto/bin/../lib/gcc/arm-none-eabi/4.6.2/../../../../arm-none-eabi/lib/thumb/v7m\libc.a(lib_a-memchr.o)
 .comment       0x00000000       0x12 c:/users/trent smith/desktop/sjsu_dev/yagarto/bin/../lib/gcc/arm-none-eabi/4.6.2/../../../../arm-none-eabi/lib/thumb/v7m\libc.a(lib_a-putc.o)
 .comment       0x00000000       0x12 c:/users/trent smith/desktop/sjsu_dev/yagarto/bin/../lib/gcc/arm-none-eabi/4.6.2/../../../../arm-none-eabi/lib/thumb/v7m\libc.a(lib_a-reent.o)
 .comment       0x00000000       0x12 c:/users/trent smith/desktop/sjsu_dev/yagarto/bin/../lib/gcc/arm-none-eabi/4.6.2/../../../../arm-none-eabi/lib/thumb/v7m\libc.a(lib_a-refill.o)
 .comment       0x00000000       0x12 c:/users/trent smith/desktop/sjsu_dev/yagarto/bin/../lib/gcc/arm-none-eabi/4.6.2/../../../../arm-none-eabi/lib/thumb/v7m\libc.a(lib_a-stdio.o)
 .comment       0x00000000       0x12 c:/users/trent smith/desktop/sjsu_dev/yagarto/bin/../lib/gcc/arm-none-eabi/4.6.2/../../../../arm-none-eabi/lib/thumb/v7m\libc.a(lib_a-svfiprintf.o)
 .comment       0x00000000       0x12 c:/users/trent smith/desktop/sjsu_dev/yagarto/bin/../lib/gcc/arm-none-eabi/4.6.2/../../../../arm-none-eabi/lib/thumb/v7m\libc.a(lib_a-vfiprintf.o)
 .comment       0x00000000       0x12 c:/users/trent smith/desktop/sjsu_dev/yagarto/bin/../lib/gcc/arm-none-eabi/4.6.2/../../../../arm-none-eabi/lib/thumb/v7m\libc.a(lib_a-closer.o)
 .comment       0x00000000       0x12 c:/users/trent smith/desktop/sjsu_dev/yagarto/bin/../lib/gcc/arm-none-eabi/4.6.2/../../../../arm-none-eabi/lib/thumb/v7m\libc.a(lib_a-fclose.o)
 .comment       0x00000000       0x12 c:/users/trent smith/desktop/sjsu_dev/yagarto/bin/../lib/gcc/arm-none-eabi/4.6.2/../../../../arm-none-eabi/lib/thumb/v7m\libc.a(lib_a-fputwc.o)
 .comment       0x00000000       0x12 c:/users/trent smith/desktop/sjsu_dev/yagarto/bin/../lib/gcc/arm-none-eabi/4.6.2/../../../../arm-none-eabi/lib/thumb/v7m\libc.a(lib_a-fstatr.o)
 .comment       0x00000000       0x12 c:/users/trent smith/desktop/sjsu_dev/yagarto/bin/../lib/gcc/arm-none-eabi/4.6.2/../../../../arm-none-eabi/lib/thumb/v7m\libc.a(lib_a-isattyr.o)
 .comment       0x00000000       0x12 c:/users/trent smith/desktop/sjsu_dev/yagarto/bin/../lib/gcc/arm-none-eabi/4.6.2/../../../../arm-none-eabi/lib/thumb/v7m\libc.a(lib_a-locale.o)
 .comment       0x00000000       0x12 c:/users/trent smith/desktop/sjsu_dev/yagarto/bin/../lib/gcc/arm-none-eabi/4.6.2/../../../../arm-none-eabi/lib/thumb/v7m\libc.a(lib_a-lseekr.o)
 .comment       0x00000000       0x12 c:/users/trent smith/desktop/sjsu_dev/yagarto/bin/../lib/gcc/arm-none-eabi/4.6.2/../../../../arm-none-eabi/lib/thumb/v7m\libc.a(lib_a-readr.o)
 .comment       0x00000000       0x12 c:/users/trent smith/desktop/sjsu_dev/yagarto/bin/../lib/gcc/arm-none-eabi/4.6.2/../../../../arm-none-eabi/lib/thumb/v7m\libc.a(lib_a-wcrtomb.o)
 .comment       0x00000000       0x12 c:/users/trent smith/desktop/sjsu_dev/yagarto/bin/../lib/gcc/arm-none-eabi/4.6.2/../../../../arm-none-eabi/lib/thumb/v7m\libc.a(lib_a-wctomb_r.o)

.ARM.attributes
                0x00000000       0x31
 .ARM.attributes
                0x00000000       0x31 ./L5_Application/source/handlers.o
 .ARM.attributes
                0x00000031       0x31 ./L5_Application/source/highLevelInitialize.o
 .ARM.attributes
                0x00000062       0x31 ./L5_Application/source/tasks.o
 .ARM.attributes
                0x00000093       0x31 ./L5_Application/source/utilities.o
 .ARM.attributes
                0x000000c4       0x31 ./L5_Application/main.o
 .ARM.attributes
                0x000000f5       0x31 ./L4_IO/src/io_source.o
 .ARM.attributes
                0x00000126       0x31 ./L4_IO/fat/option/ccsbcs.o
 .ARM.attributes
                0x00000157       0x31 ./L4_IO/fat/option/reentrant.o
 .ARM.attributes
                0x00000188       0x31 ./L4_IO/fat/disk/diskio.o
 .ARM.attributes
                0x000001b9       0x31 ./L4_IO/fat/disk/sd.o
 .ARM.attributes
                0x000001ea       0x31 ./L4_IO/fat/disk/spi_flash.o
 .ARM.attributes
                0x0000021b       0x31 ./L4_IO/fat/fatfs_time.o
 .ARM.attributes
                0x0000024c       0x31 ./L4_IO/fat/ff.o
 .ARM.attributes
                0x0000027d       0x31 ./L3_Utils/src/CommandHandler.o
 .ARM.attributes
                0x000002ae       0x31 ./L3_Utils/src/logger.o
 .ARM.attributes
                0x000002df       0x31 ./L3_Utils/src/str.o
 .ARM.attributes
                0x00000310       0x31 ./L3_Utils/src/timer.o
 .ARM.attributes
                0x00000341       0x31 ./L2_Drivers/src/I2C2.o
 .ARM.attributes
                0x00000372       0x31 ./L2_Drivers/src/i2c_base.o
 .ARM.attributes
                0x000003a3       0x31 ./L2_Drivers/src/rtc.o
 .ARM.attributes
                0x000003d4       0x31 ./L2_Drivers/src/spi1.o
 .ARM.attributes
                0x00000405       0x31 ./L2_Drivers/src/uart0.o
 .ARM.attributes
                0x00000436       0x31 ./L2_Drivers/src/uart_base.o
 .ARM.attributes
                0x00000467       0x31 ./L1_FreeRTOS/src/croutine.o
 .ARM.attributes
                0x00000498       0x31 ./L1_FreeRTOS/src/list.o
 .ARM.attributes
                0x000004c9       0x31 ./L1_FreeRTOS/src/queue.o
 .ARM.attributes
                0x000004fa       0x31 ./L1_FreeRTOS/src/tasks.o
 .ARM.attributes
                0x0000052b       0x31 ./L1_FreeRTOS/src/timers.o
 .ARM.attributes
                0x0000055c       0x31 ./L1_FreeRTOS/portable/port.o
 .ARM.attributes
                0x0000058d       0x31 ./L1_FreeRTOS/hooks/hooks.o
 .ARM.attributes
                0x000005be       0x31 ./L1_FreeRTOS/MemMang/heap_3.o
 .ARM.attributes
                0x000005ef       0x31 ./L0_LowLevel/source/core_cm3.o
 .ARM.attributes
                0x00000620       0x31 ./L0_LowLevel/source/cr_startup_lpc175x.o
 .ARM.attributes
                0x00000651       0x31 ./L0_LowLevel/source/io_functions.o
 .ARM.attributes
                0x00000682       0x31 ./L0_LowLevel/source/memory.o
 .ARM.attributes
                0x000006b3       0x31 ./L0_LowLevel/source/sys_clock.o
 .ARM.attributes
                0x000006e4       0x31 ./L0_LowLevel/source/sys_hooks.o
 .ARM.attributes
                0x00000715       0x31 ./L0_LowLevel/source/system_initialization.o
 .ARM.attributes
                0x00000746       0x31 ./L0_LowLevel/source/uart0_min.o
 .ARM.attributes
                0x00000777       0x2b c:/users/trent smith/desktop/sjsu_dev/yagarto/bin/../lib/gcc/arm-none-eabi/4.6.2/../../../../arm-none-eabi/lib/thumb/v7m\libstdc++.a(guard.o)
 .ARM.attributes
                0x000007a2       0x2b c:/users/trent smith/desktop/sjsu_dev/yagarto/bin/../lib/gcc/arm-none-eabi/4.6.2/../../../../arm-none-eabi/lib/thumb/v7m\libstdc++.a(guard_error.o)
 .ARM.attributes
                0x000007cd       0x2b c:/users/trent smith/desktop/sjsu_dev/yagarto/bin/../lib/gcc/arm-none-eabi/4.6.2/../../../../arm-none-eabi/lib/thumb/v7m\libstdc++.a(pure.o)
 .ARM.attributes
                0x000007f8       0x2b c:/users/trent smith/desktop/sjsu_dev/yagarto/bin/../lib/gcc/arm-none-eabi/4.6.2/../../../../arm-none-eabi/lib/thumb/v7m\libstdc++.a(si_class_type_info.o)
 .ARM.attributes
                0x00000823       0x2b c:/users/trent smith/desktop/sjsu_dev/yagarto/bin/../lib/gcc/arm-none-eabi/4.6.2/../../../../arm-none-eabi/lib/thumb/v7m\libstdc++.a(tinfo.o)
 .ARM.attributes
                0x0000084e       0x2b c:/users/trent smith/desktop/sjsu_dev/yagarto/bin/../lib/gcc/arm-none-eabi/4.6.2/../../../../arm-none-eabi/lib/thumb/v7m\libstdc++.a(class_type_info.o)
 .ARM.attributes
                0x00000879       0x2b c:/users/trent smith/desktop/sjsu_dev/yagarto/bin/../lib/gcc/arm-none-eabi/4.6.2/../../../../arm-none-eabi/lib/thumb/v7m\libstdc++.a(eh_alloc.o)
 .ARM.attributes
                0x000008a4       0x2b c:/users/trent smith/desktop/sjsu_dev/yagarto/bin/../lib/gcc/arm-none-eabi/4.6.2/../../../../arm-none-eabi/lib/thumb/v7m\libstdc++.a(eh_exception.o)
 .ARM.attributes
                0x000008cf       0x2b c:/users/trent smith/desktop/sjsu_dev/yagarto/bin/../lib/gcc/arm-none-eabi/4.6.2/../../../../arm-none-eabi/lib/thumb/v7m\libstdc++.a(eh_globals.o)
 .ARM.attributes
                0x000008fa       0x2b c:/users/trent smith/desktop/sjsu_dev/yagarto/bin/../lib/gcc/arm-none-eabi/4.6.2/../../../../arm-none-eabi/lib/thumb/v7m\libstdc++.a(eh_terminate.o)
 .ARM.attributes
                0x00000925       0x2b c:/users/trent smith/desktop/sjsu_dev/yagarto/bin/../lib/gcc/arm-none-eabi/4.6.2/../../../../arm-none-eabi/lib/thumb/v7m\libstdc++.a(eh_term_handler.o)
 .ARM.attributes
                0x00000950       0x2b c:/users/trent smith/desktop/sjsu_dev/yagarto/bin/../lib/gcc/arm-none-eabi/4.6.2/../../../../arm-none-eabi/lib/thumb/v7m\libstdc++.a(eh_throw.o)
 .ARM.attributes
                0x0000097b       0x2b c:/users/trent smith/desktop/sjsu_dev/yagarto/bin/../lib/gcc/arm-none-eabi/4.6.2/../../../../arm-none-eabi/lib/thumb/v7m\libstdc++.a(eh_unex_handler.o)
 .ARM.attributes
                0x000009a6       0x2b c:/users/trent smith/desktop/sjsu_dev/yagarto/bin/../lib/gcc/arm-none-eabi/4.6.2/../../../../arm-none-eabi/lib/thumb/v7m\libstdc++.a(eh_arm.o)
 .ARM.attributes
                0x000009d1       0x2b c:/users/trent smith/desktop/sjsu_dev/yagarto/bin/../lib/gcc/arm-none-eabi/4.6.2/../../../../arm-none-eabi/lib/thumb/v7m\libstdc++.a(eh_aux_runtime.o)
 .ARM.attributes
                0x000009fc       0x2b c:/users/trent smith/desktop/sjsu_dev/yagarto/bin/../lib/gcc/arm-none-eabi/4.6.2/../../../../arm-none-eabi/lib/thumb/v7m\libstdc++.a(eh_call.o)
 .ARM.attributes
                0x00000a27       0x2b c:/users/trent smith/desktop/sjsu_dev/yagarto/bin/../lib/gcc/arm-none-eabi/4.6.2/../../../../arm-none-eabi/lib/thumb/v7m\libstdc++.a(eh_catch.o)
 .ARM.attributes
                0x00000a52       0x2b c:/users/trent smith/desktop/sjsu_dev/yagarto/bin/../lib/gcc/arm-none-eabi/4.6.2/../../../../arm-none-eabi/lib/thumb/v7m\libstdc++.a(eh_personality.o)
 .ARM.attributes
                0x00000a7d       0x2b c:/users/trent smith/desktop/sjsu_dev/yagarto/bin/../lib/gcc/arm-none-eabi/4.6.2/../../../../arm-none-eabi/lib/thumb/v7m\libstdc++.a(fundamental_type_info.o)
 .ARM.attributes
                0x00000aa8       0x2b c:/users/trent smith/desktop/sjsu_dev/yagarto/bin/../lib/gcc/arm-none-eabi/4.6.2/../../../../arm-none-eabi/lib/thumb/v7m\libstdc++.a(pointer_type_info.o)
 .ARM.attributes
                0x00000ad3       0x2b c:/users/trent smith/desktop/sjsu_dev/yagarto/bin/../lib/gcc/arm-none-eabi/4.6.2/../../../../arm-none-eabi/lib/thumb/v7m\libstdc++.a(bad_cast.o)
 .ARM.attributes
                0x00000afe       0x2b c:/users/trent smith/desktop/sjsu_dev/yagarto/bin/../lib/gcc/arm-none-eabi/4.6.2/../../../../arm-none-eabi/lib/thumb/v7m\libstdc++.a(bad_typeid.o)
 .ARM.attributes
                0x00000b29       0x2b c:/users/trent smith/desktop/sjsu_dev/yagarto/bin/../lib/gcc/arm-none-eabi/4.6.2/../../../../arm-none-eabi/lib/thumb/v7m\libstdc++.a(pbase_type_info.o)
 .ARM.attributes
                0x00000b54       0x1d c:/users/trent smith/desktop/sjsu_dev/yagarto/bin/../lib/gcc/arm-none-eabi/4.6.2/thumb/v7m\libgcc.a(_arm_addsubdf3.o)
 .ARM.attributes
                0x00000b71       0x1d c:/users/trent smith/desktop/sjsu_dev/yagarto/bin/../lib/gcc/arm-none-eabi/4.6.2/thumb/v7m\libgcc.a(_arm_fixdfsi.o)
 .ARM.attributes
                0x00000b8e       0x1d c:/users/trent smith/desktop/sjsu_dev/yagarto/bin/../lib/gcc/arm-none-eabi/4.6.2/thumb/v7m\libgcc.a(_arm_fixunsdfsi.o)
 .ARM.attributes
                0x00000bab       0x1d c:/users/trent smith/desktop/sjsu_dev/yagarto/bin/../lib/gcc/arm-none-eabi/4.6.2/thumb/v7m\libgcc.a(_arm_addsubsf3.o)
 .ARM.attributes
                0x00000bc8       0x1d c:/users/trent smith/desktop/sjsu_dev/yagarto/bin/../lib/gcc/arm-none-eabi/4.6.2/thumb/v7m\libgcc.a(_arm_muldivsf3.o)
 .ARM.attributes
                0x00000be5       0x1d c:/users/trent smith/desktop/sjsu_dev/yagarto/bin/../lib/gcc/arm-none-eabi/4.6.2/thumb/v7m\libgcc.a(_arm_fixsfsi.o)
 .ARM.attributes
                0x00000c02       0x1d c:/users/trent smith/desktop/sjsu_dev/yagarto/bin/../lib/gcc/arm-none-eabi/4.6.2/thumb/v7m\libgcc.a(_arm_fixunssfsi.o)
 .ARM.attributes
                0x00000c1f       0x2b c:/users/trent smith/desktop/sjsu_dev/yagarto/bin/../lib/gcc/arm-none-eabi/4.6.2/thumb/v7m\libgcc.a(unwind-arm.o)
 .ARM.attributes
                0x00000c4a       0x1d c:/users/trent smith/desktop/sjsu_dev/yagarto/bin/../lib/gcc/arm-none-eabi/4.6.2/thumb/v7m\libgcc.a(libunwind.o)
 .ARM.attributes
                0x00000c67       0x2b c:/users/trent smith/desktop/sjsu_dev/yagarto/bin/../lib/gcc/arm-none-eabi/4.6.2/thumb/v7m\libgcc.a(pr-support.o)
 .ARM.attributes
                0x00000c92       0x2b c:/users/trent smith/desktop/sjsu_dev/yagarto/bin/../lib/gcc/arm-none-eabi/4.6.2/../../../../arm-none-eabi/lib/thumb/v7m\libc.a(lib_a-abort.o)
 .ARM.attributes
                0x00000cbd       0x2b c:/users/trent smith/desktop/sjsu_dev/yagarto/bin/../lib/gcc/arm-none-eabi/4.6.2/../../../../arm-none-eabi/lib/thumb/v7m\libc.a(lib_a-atoi.o)
 .ARM.attributes
                0x00000ce8       0x2b c:/users/trent smith/desktop/sjsu_dev/yagarto/bin/../lib/gcc/arm-none-eabi/4.6.2/../../../../arm-none-eabi/lib/thumb/v7m\libc.a(lib_a-impure.o)
 .ARM.attributes
                0x00000d13       0x2b c:/users/trent smith/desktop/sjsu_dev/yagarto/bin/../lib/gcc/arm-none-eabi/4.6.2/../../../../arm-none-eabi/lib/thumb/v7m\libc.a(lib_a-init.o)
 .ARM.attributes
                0x00000d3e       0x2b c:/users/trent smith/desktop/sjsu_dev/yagarto/bin/../lib/gcc/arm-none-eabi/4.6.2/../../../../arm-none-eabi/lib/thumb/v7m\libc.a(lib_a-isalnum.o)
 .ARM.attributes
                0x00000d69       0x2b c:/users/trent smith/desktop/sjsu_dev/yagarto/bin/../lib/gcc/arm-none-eabi/4.6.2/../../../../arm-none-eabi/lib/thumb/v7m\libc.a(lib_a-isalpha.o)
 .ARM.attributes
                0x00000d94       0x2b c:/users/trent smith/desktop/sjsu_dev/yagarto/bin/../lib/gcc/arm-none-eabi/4.6.2/../../../../arm-none-eabi/lib/thumb/v7m\libc.a(lib_a-malloc.o)
 .ARM.attributes
                0x00000dbf       0x2b c:/users/trent smith/desktop/sjsu_dev/yagarto/bin/../lib/gcc/arm-none-eabi/4.6.2/../../../../arm-none-eabi/lib/thumb/v7m\libc.a(lib_a-mallocr.o)
 .ARM.attributes
                0x00000dea       0x2b c:/users/trent smith/desktop/sjsu_dev/yagarto/bin/../lib/gcc/arm-none-eabi/4.6.2/../../../../arm-none-eabi/lib/thumb/v7m\libc.a(lib_a-memcmp.o)
 .ARM.attributes
                0x00000e15       0x2b c:/users/trent smith/desktop/sjsu_dev/yagarto/bin/../lib/gcc/arm-none-eabi/4.6.2/../../../../arm-none-eabi/lib/thumb/v7m\libc.a(lib_a-memcpy.o)
 .ARM.attributes
                0x00000e40       0x2b c:/users/trent smith/desktop/sjsu_dev/yagarto/bin/../lib/gcc/arm-none-eabi/4.6.2/../../../../arm-none-eabi/lib/thumb/v7m\libc.a(lib_a-memmove.o)
 .ARM.attributes
                0x00000e6b       0x2b c:/users/trent smith/desktop/sjsu_dev/yagarto/bin/../lib/gcc/arm-none-eabi/4.6.2/../../../../arm-none-eabi/lib/thumb/v7m\libc.a(lib_a-memset.o)
 .ARM.attributes
                0x00000e96       0x2b c:/users/trent smith/desktop/sjsu_dev/yagarto/bin/../lib/gcc/arm-none-eabi/4.6.2/../../../../arm-none-eabi/lib/thumb/v7m\libc.a(lib_a-mlock.o)
 .ARM.attributes
                0x00000ec1       0x2b c:/users/trent smith/desktop/sjsu_dev/yagarto/bin/../lib/gcc/arm-none-eabi/4.6.2/../../../../arm-none-eabi/lib/thumb/v7m\libc.a(lib_a-mstats.o)
 .ARM.attributes
                0x00000eec       0x2b c:/users/trent smith/desktop/sjsu_dev/yagarto/bin/../lib/gcc/arm-none-eabi/4.6.2/../../../../arm-none-eabi/lib/thumb/v7m\libc.a(lib_a-putchar.o)
 .ARM.attributes
                0x00000f17       0x2b c:/users/trent smith/desktop/sjsu_dev/yagarto/bin/../lib/gcc/arm-none-eabi/4.6.2/../../../../arm-none-eabi/lib/thumb/v7m\libc.a(lib_a-puts.o)
 .ARM.attributes
                0x00000f42       0x2b c:/users/trent smith/desktop/sjsu_dev/yagarto/bin/../lib/gcc/arm-none-eabi/4.6.2/../../../../arm-none-eabi/lib/thumb/v7m\libc.a(lib_a-realloc.o)
 .ARM.attributes
                0x00000f6d       0x2b c:/users/trent smith/desktop/sjsu_dev/yagarto/bin/../lib/gcc/arm-none-eabi/4.6.2/../../../../arm-none-eabi/lib/thumb/v7m\libc.a(lib_a-reallocr.o)
 .ARM.attributes
                0x00000f98       0x2b c:/users/trent smith/desktop/sjsu_dev/yagarto/bin/../lib/gcc/arm-none-eabi/4.6.2/../../../../arm-none-eabi/lib/thumb/v7m\libc.a(lib_a-rget.o)
 .ARM.attributes
                0x00000fc3       0x2b c:/users/trent smith/desktop/sjsu_dev/yagarto/bin/../lib/gcc/arm-none-eabi/4.6.2/../../../../arm-none-eabi/lib/thumb/v7m\libc.a(lib_a-sbrkr.o)
 .ARM.attributes
                0x00000fee       0x2b c:/users/trent smith/desktop/sjsu_dev/yagarto/bin/../lib/gcc/arm-none-eabi/4.6.2/../../../../arm-none-eabi/lib/thumb/v7m\libc.a(lib_a-setvbuf.o)
 .ARM.attributes
                0x00001019       0x2b c:/users/trent smith/desktop/sjsu_dev/yagarto/bin/../lib/gcc/arm-none-eabi/4.6.2/../../../../arm-none-eabi/lib/thumb/v7m\libc.a(lib_a-signal.o)
 .ARM.attributes
                0x00001044       0x2b c:/users/trent smith/desktop/sjsu_dev/yagarto/bin/../lib/gcc/arm-none-eabi/4.6.2/../../../../arm-none-eabi/lib/thumb/v7m\libc.a(lib_a-signalr.o)
 .ARM.attributes
                0x0000106f       0x2b c:/users/trent smith/desktop/sjsu_dev/yagarto/bin/../lib/gcc/arm-none-eabi/4.6.2/../../../../arm-none-eabi/lib/thumb/v7m\libc.a(lib_a-strcasecmp.o)
 .ARM.attributes
                0x0000109a       0x2b c:/users/trent smith/desktop/sjsu_dev/yagarto/bin/../lib/gcc/arm-none-eabi/4.6.2/../../../../arm-none-eabi/lib/thumb/v7m\libc.a(lib_a-strcat.o)
 .ARM.attributes
                0x000010c5       0x2b c:/users/trent smith/desktop/sjsu_dev/yagarto/bin/../lib/gcc/arm-none-eabi/4.6.2/../../../../arm-none-eabi/lib/thumb/v7m\libc.a(lib_a-strchr.o)
 .ARM.attributes
                0x000010f0       0x2b c:/users/trent smith/desktop/sjsu_dev/yagarto/bin/../lib/gcc/arm-none-eabi/4.6.2/../../../../arm-none-eabi/lib/thumb/v7m\libc.a(lib_a-strcmp.o)
 .ARM.attributes
                0x0000111b       0x2b c:/users/trent smith/desktop/sjsu_dev/yagarto/bin/../lib/gcc/arm-none-eabi/4.6.2/../../../../arm-none-eabi/lib/thumb/v7m\libc.a(lib_a-strcpy.o)
 .ARM.attributes
                0x00001146       0x2b c:/users/trent smith/desktop/sjsu_dev/yagarto/bin/../lib/gcc/arm-none-eabi/4.6.2/../../../../arm-none-eabi/lib/thumb/v7m\libc.a(lib_a-strlen.o)
 .ARM.attributes
                0x00001171       0x2b c:/users/trent smith/desktop/sjsu_dev/yagarto/bin/../lib/gcc/arm-none-eabi/4.6.2/../../../../arm-none-eabi/lib/thumb/v7m\libc.a(lib_a-strncasecmp.o)
 .ARM.attributes
                0x0000119c       0x2b c:/users/trent smith/desktop/sjsu_dev/yagarto/bin/../lib/gcc/arm-none-eabi/4.6.2/../../../../arm-none-eabi/lib/thumb/v7m\libc.a(lib_a-strncmp.o)
 .ARM.attributes
                0x000011c7       0x2b c:/users/trent smith/desktop/sjsu_dev/yagarto/bin/../lib/gcc/arm-none-eabi/4.6.2/../../../../arm-none-eabi/lib/thumb/v7m\libc.a(lib_a-strncpy.o)
 .ARM.attributes
                0x000011f2       0x2b c:/users/trent smith/desktop/sjsu_dev/yagarto/bin/../lib/gcc/arm-none-eabi/4.6.2/../../../../arm-none-eabi/lib/thumb/v7m\libc.a(lib_a-strpbrk.o)
 .ARM.attributes
                0x0000121d       0x2b c:/users/trent smith/desktop/sjsu_dev/yagarto/bin/../lib/gcc/arm-none-eabi/4.6.2/../../../../arm-none-eabi/lib/thumb/v7m\libc.a(lib_a-strrchr.o)
 .ARM.attributes
                0x00001248       0x2b c:/users/trent smith/desktop/sjsu_dev/yagarto/bin/../lib/gcc/arm-none-eabi/4.6.2/../../../../arm-none-eabi/lib/thumb/v7m\libc.a(lib_a-strstr.o)
 .ARM.attributes
                0x00001273       0x2b c:/users/trent smith/desktop/sjsu_dev/yagarto/bin/../lib/gcc/arm-none-eabi/4.6.2/../../../../arm-none-eabi/lib/thumb/v7m\libc.a(lib_a-strtol.o)
 .ARM.attributes
                0x0000129e       0x2b c:/users/trent smith/desktop/sjsu_dev/yagarto/bin/../lib/gcc/arm-none-eabi/4.6.2/../../../../arm-none-eabi/lib/thumb/v7m\libc.a(lib_a-syswrite.o)
 .ARM.attributes
                0x000012c9       0x2b c:/users/trent smith/desktop/sjsu_dev/yagarto/bin/../lib/gcc/arm-none-eabi/4.6.2/../../../../arm-none-eabi/lib/thumb/v7m\libc.a(lib_a-tolower.o)
 .ARM.attributes
                0x000012f4       0x2b c:/users/trent smith/desktop/sjsu_dev/yagarto/bin/../lib/gcc/arm-none-eabi/4.6.2/../../../../arm-none-eabi/lib/thumb/v7m\libc.a(lib_a-toupper.o)
 .ARM.attributes
                0x0000131f       0x2b c:/users/trent smith/desktop/sjsu_dev/yagarto/bin/../lib/gcc/arm-none-eabi/4.6.2/../../../../arm-none-eabi/lib/thumb/v7m\libc.a(lib_a-vsniprintf.o)
 .ARM.attributes
                0x0000134a       0x2b c:/users/trent smith/desktop/sjsu_dev/yagarto/bin/../lib/gcc/arm-none-eabi/4.6.2/../../../../arm-none-eabi/lib/thumb/v7m\libc.a(lib_a-wbuf.o)
 .ARM.attributes
                0x00001375       0x2b c:/users/trent smith/desktop/sjsu_dev/yagarto/bin/../lib/gcc/arm-none-eabi/4.6.2/../../../../arm-none-eabi/lib/thumb/v7m\libc.a(lib_a-writer.o)
 .ARM.attributes
                0x000013a0       0x2b c:/users/trent smith/desktop/sjsu_dev/yagarto/bin/../lib/gcc/arm-none-eabi/4.6.2/../../../../arm-none-eabi/lib/thumb/v7m\libc.a(lib_a-wsetup.o)
 .ARM.attributes
                0x000013cb       0x2b c:/users/trent smith/desktop/sjsu_dev/yagarto/bin/../lib/gcc/arm-none-eabi/4.6.2/../../../../arm-none-eabi/lib/thumb/v7m\libc.a(lib_a-ctype_.o)
 .ARM.attributes
                0x000013f6       0x2b c:/users/trent smith/desktop/sjsu_dev/yagarto/bin/../lib/gcc/arm-none-eabi/4.6.2/../../../../arm-none-eabi/lib/thumb/v7m\libc.a(lib_a-fflush.o)
 .ARM.attributes
                0x00001421       0x2b c:/users/trent smith/desktop/sjsu_dev/yagarto/bin/../lib/gcc/arm-none-eabi/4.6.2/../../../../arm-none-eabi/lib/thumb/v7m\libc.a(lib_a-findfp.o)
 .ARM.attributes
                0x0000144c       0x2b c:/users/trent smith/desktop/sjsu_dev/yagarto/bin/../lib/gcc/arm-none-eabi/4.6.2/../../../../arm-none-eabi/lib/thumb/v7m\libc.a(lib_a-fiprintf.o)
 .ARM.attributes
                0x00001477       0x2b c:/users/trent smith/desktop/sjsu_dev/yagarto/bin/../lib/gcc/arm-none-eabi/4.6.2/../../../../arm-none-eabi/lib/thumb/v7m\libc.a(lib_a-freer.o)
 .ARM.attributes
                0x000014a2       0x2b c:/users/trent smith/desktop/sjsu_dev/yagarto/bin/../lib/gcc/arm-none-eabi/4.6.2/../../../../arm-none-eabi/lib/thumb/v7m\libc.a(lib_a-fvwrite.o)
 .ARM.attributes
                0x000014cd       0x2b c:/users/trent smith/desktop/sjsu_dev/yagarto/bin/../lib/gcc/arm-none-eabi/4.6.2/../../../../arm-none-eabi/lib/thumb/v7m\libc.a(lib_a-fwalk.o)
 .ARM.attributes
                0x000014f8       0x2b c:/users/trent smith/desktop/sjsu_dev/yagarto/bin/../lib/gcc/arm-none-eabi/4.6.2/../../../../arm-none-eabi/lib/thumb/v7m\libc.a(lib_a-makebuf.o)
 .ARM.attributes
                0x00001523       0x2b c:/users/trent smith/desktop/sjsu_dev/yagarto/bin/../lib/gcc/arm-none-eabi/4.6.2/../../../../arm-none-eabi/lib/thumb/v7m\libc.a(lib_a-mallinfor.o)
 .ARM.attributes
                0x0000154e       0x2b c:/users/trent smith/desktop/sjsu_dev/yagarto/bin/../lib/gcc/arm-none-eabi/4.6.2/../../../../arm-none-eabi/lib/thumb/v7m\libc.a(lib_a-malloptr.o)
 .ARM.attributes
                0x00001579       0x2b c:/users/trent smith/desktop/sjsu_dev/yagarto/bin/../lib/gcc/arm-none-eabi/4.6.2/../../../../arm-none-eabi/lib/thumb/v7m\libc.a(lib_a-mallstatsr.o)
 .ARM.attributes
                0x000015a4       0x2b c:/users/trent smith/desktop/sjsu_dev/yagarto/bin/../lib/gcc/arm-none-eabi/4.6.2/../../../../arm-none-eabi/lib/thumb/v7m\libc.a(lib_a-memchr.o)
 .ARM.attributes
                0x000015cf       0x2b c:/users/trent smith/desktop/sjsu_dev/yagarto/bin/../lib/gcc/arm-none-eabi/4.6.2/../../../../arm-none-eabi/lib/thumb/v7m\libc.a(lib_a-putc.o)
 .ARM.attributes
                0x000015fa       0x2b c:/users/trent smith/desktop/sjsu_dev/yagarto/bin/../lib/gcc/arm-none-eabi/4.6.2/../../../../arm-none-eabi/lib/thumb/v7m\libc.a(lib_a-reent.o)
 .ARM.attributes
                0x00001625       0x2b c:/users/trent smith/desktop/sjsu_dev/yagarto/bin/../lib/gcc/arm-none-eabi/4.6.2/../../../../arm-none-eabi/lib/thumb/v7m\libc.a(lib_a-refill.o)
 .ARM.attributes
                0x00001650       0x2b c:/users/trent smith/desktop/sjsu_dev/yagarto/bin/../lib/gcc/arm-none-eabi/4.6.2/../../../../arm-none-eabi/lib/thumb/v7m\libc.a(lib_a-stdio.o)
 .ARM.attributes
                0x0000167b       0x2b c:/users/trent smith/desktop/sjsu_dev/yagarto/bin/../lib/gcc/arm-none-eabi/4.6.2/../../../../arm-none-eabi/lib/thumb/v7m\libc.a(lib_a-svfiprintf.o)
 .ARM.attributes
                0x000016a6       0x2b c:/users/trent smith/desktop/sjsu_dev/yagarto/bin/../lib/gcc/arm-none-eabi/4.6.2/../../../../arm-none-eabi/lib/thumb/v7m\libc.a(lib_a-vfiprintf.o)
 .ARM.attributes
                0x000016d1       0x2b c:/users/trent smith/desktop/sjsu_dev/yagarto/bin/../lib/gcc/arm-none-eabi/4.6.2/../../../../arm-none-eabi/lib/thumb/v7m\libc.a(lib_a-closer.o)
 .ARM.attributes
                0x000016fc       0x2b c:/users/trent smith/desktop/sjsu_dev/yagarto/bin/../lib/gcc/arm-none-eabi/4.6.2/../../../../arm-none-eabi/lib/thumb/v7m\libc.a(lib_a-fclose.o)
 .ARM.attributes
                0x00001727       0x2b c:/users/trent smith/desktop/sjsu_dev/yagarto/bin/../lib/gcc/arm-none-eabi/4.6.2/../../../../arm-none-eabi/lib/thumb/v7m\libc.a(lib_a-fputwc.o)
 .ARM.attributes
                0x00001752       0x2b c:/users/trent smith/desktop/sjsu_dev/yagarto/bin/../lib/gcc/arm-none-eabi/4.6.2/../../../../arm-none-eabi/lib/thumb/v7m\libc.a(lib_a-fstatr.o)
 .ARM.attributes
                0x0000177d       0x2b c:/users/trent smith/desktop/sjsu_dev/yagarto/bin/../lib/gcc/arm-none-eabi/4.6.2/../../../../arm-none-eabi/lib/thumb/v7m\libc.a(lib_a-isattyr.o)
 .ARM.attributes
                0x000017a8       0x2b c:/users/trent smith/desktop/sjsu_dev/yagarto/bin/../lib/gcc/arm-none-eabi/4.6.2/../../../../arm-none-eabi/lib/thumb/v7m\libc.a(lib_a-locale.o)
 .ARM.attributes
                0x000017d3       0x2b c:/users/trent smith/desktop/sjsu_dev/yagarto/bin/../lib/gcc/arm-none-eabi/4.6.2/../../../../arm-none-eabi/lib/thumb/v7m\libc.a(lib_a-lseekr.o)
 .ARM.attributes
                0x000017fe       0x2b c:/users/trent smith/desktop/sjsu_dev/yagarto/bin/../lib/gcc/arm-none-eabi/4.6.2/../../../../arm-none-eabi/lib/thumb/v7m\libc.a(lib_a-readr.o)
 .ARM.attributes
                0x00001829       0x2b c:/users/trent smith/desktop/sjsu_dev/yagarto/bin/../lib/gcc/arm-none-eabi/4.6.2/../../../../arm-none-eabi/lib/thumb/v7m\libc.a(lib_a-wcrtomb.o)
 .ARM.attributes
                0x00001854       0x2b c:/users/trent smith/desktop/sjsu_dev/yagarto/bin/../lib/gcc/arm-none-eabi/4.6.2/../../../../arm-none-eabi/lib/thumb/v7m\libc.a(lib_a-wctomb_r.o)
 .ARM.attributes
                0x0000187f       0x1d c:/users/trent smith/desktop/sjsu_dev/yagarto/bin/../lib/gcc/arm-none-eabi/4.6.2/thumb/v7m\libgcc.a(_udivsi3.o)
 .ARM.attributes
                0x0000189c       0x1d c:/users/trent smith/desktop/sjsu_dev/yagarto/bin/../lib/gcc/arm-none-eabi/4.6.2/thumb/v7m\libgcc.a(_dvmd_tls.o)

.debug_info     0x00000000    0x2b8cf
 .debug_info    0x00000000      0x521 c:/users/trent smith/desktop/sjsu_dev/yagarto/bin/../lib/gcc/arm-none-eabi/4.6.2/../../../../arm-none-eabi/lib/thumb/v7m\libstdc++.a(guard.o)
 .debug_info    0x00000521      0x168 c:/users/trent smith/desktop/sjsu_dev/yagarto/bin/../lib/gcc/arm-none-eabi/4.6.2/../../../../arm-none-eabi/lib/thumb/v7m\libstdc++.a(guard_error.o)
 .debug_info    0x00000689       0xb7 c:/users/trent smith/desktop/sjsu_dev/yagarto/bin/../lib/gcc/arm-none-eabi/4.6.2/../../../../arm-none-eabi/lib/thumb/v7m\libstdc++.a(pure.o)
 .debug_info    0x00000740      0x7f2 c:/users/trent smith/desktop/sjsu_dev/yagarto/bin/../lib/gcc/arm-none-eabi/4.6.2/../../../../arm-none-eabi/lib/thumb/v7m\libstdc++.a(si_class_type_info.o)
 .debug_info    0x00000f32      0x53a c:/users/trent smith/desktop/sjsu_dev/yagarto/bin/../lib/gcc/arm-none-eabi/4.6.2/../../../../arm-none-eabi/lib/thumb/v7m\libstdc++.a(tinfo.o)
 .debug_info    0x0000146c      0x8c5 c:/users/trent smith/desktop/sjsu_dev/yagarto/bin/../lib/gcc/arm-none-eabi/4.6.2/../../../../arm-none-eabi/lib/thumb/v7m\libstdc++.a(class_type_info.o)
 .debug_info    0x00001d31      0xfd4 c:/users/trent smith/desktop/sjsu_dev/yagarto/bin/../lib/gcc/arm-none-eabi/4.6.2/../../../../arm-none-eabi/lib/thumb/v7m\libstdc++.a(eh_alloc.o)
 .debug_info    0x00002d05      0x583 c:/users/trent smith/desktop/sjsu_dev/yagarto/bin/../lib/gcc/arm-none-eabi/4.6.2/../../../../arm-none-eabi/lib/thumb/v7m\libstdc++.a(eh_exception.o)
 .debug_info    0x00003288      0x788 c:/users/trent smith/desktop/sjsu_dev/yagarto/bin/../lib/gcc/arm-none-eabi/4.6.2/../../../../arm-none-eabi/lib/thumb/v7m\libstdc++.a(eh_globals.o)
 .debug_info    0x00003a10      0x5e3 c:/users/trent smith/desktop/sjsu_dev/yagarto/bin/../lib/gcc/arm-none-eabi/4.6.2/../../../../arm-none-eabi/lib/thumb/v7m\libstdc++.a(eh_terminate.o)
 .debug_info    0x00003ff3       0xa4 c:/users/trent smith/desktop/sjsu_dev/yagarto/bin/../lib/gcc/arm-none-eabi/4.6.2/../../../../arm-none-eabi/lib/thumb/v7m\libstdc++.a(eh_term_handler.o)
 .debug_info    0x00004097      0x62c c:/users/trent smith/desktop/sjsu_dev/yagarto/bin/../lib/gcc/arm-none-eabi/4.6.2/../../../../arm-none-eabi/lib/thumb/v7m\libstdc++.a(eh_throw.o)
 .debug_info    0x000046c3       0xa4 c:/users/trent smith/desktop/sjsu_dev/yagarto/bin/../lib/gcc/arm-none-eabi/4.6.2/../../../../arm-none-eabi/lib/thumb/v7m\libstdc++.a(eh_unex_handler.o)
 .debug_info    0x00004767      0x7fe c:/users/trent smith/desktop/sjsu_dev/yagarto/bin/../lib/gcc/arm-none-eabi/4.6.2/../../../../arm-none-eabi/lib/thumb/v7m\libstdc++.a(eh_arm.o)
 .debug_info    0x00004f65      0x561 c:/users/trent smith/desktop/sjsu_dev/yagarto/bin/../lib/gcc/arm-none-eabi/4.6.2/../../../../arm-none-eabi/lib/thumb/v7m\libstdc++.a(eh_aux_runtime.o)
 .debug_info    0x000054c6      0xc79 c:/users/trent smith/desktop/sjsu_dev/yagarto/bin/../lib/gcc/arm-none-eabi/4.6.2/../../../../arm-none-eabi/lib/thumb/v7m\libstdc++.a(eh_call.o)
 .debug_info    0x0000613f      0x983 c:/users/trent smith/desktop/sjsu_dev/yagarto/bin/../lib/gcc/arm-none-eabi/4.6.2/../../../../arm-none-eabi/lib/thumb/v7m\libstdc++.a(eh_catch.o)
 .debug_info    0x00006ac2     0x16cc c:/users/trent smith/desktop/sjsu_dev/yagarto/bin/../lib/gcc/arm-none-eabi/4.6.2/../../../../arm-none-eabi/lib/thumb/v7m\libstdc++.a(eh_personality.o)
 .debug_info    0x0000818e      0x1e6 c:/users/trent smith/desktop/sjsu_dev/yagarto/bin/../lib/gcc/arm-none-eabi/4.6.2/../../../../arm-none-eabi/lib/thumb/v7m\libstdc++.a(fundamental_type_info.o)
 .debug_info    0x00008374      0x40f c:/users/trent smith/desktop/sjsu_dev/yagarto/bin/../lib/gcc/arm-none-eabi/4.6.2/../../../../arm-none-eabi/lib/thumb/v7m\libstdc++.a(pointer_type_info.o)
 .debug_info    0x00008783      0x1a3 c:/users/trent smith/desktop/sjsu_dev/yagarto/bin/../lib/gcc/arm-none-eabi/4.6.2/../../../../arm-none-eabi/lib/thumb/v7m\libstdc++.a(bad_cast.o)
 .debug_info    0x00008926      0x1a3 c:/users/trent smith/desktop/sjsu_dev/yagarto/bin/../lib/gcc/arm-none-eabi/4.6.2/../../../../arm-none-eabi/lib/thumb/v7m\libstdc++.a(bad_typeid.o)
 .debug_info    0x00008ac9      0x4df c:/users/trent smith/desktop/sjsu_dev/yagarto/bin/../lib/gcc/arm-none-eabi/4.6.2/../../../../arm-none-eabi/lib/thumb/v7m\libstdc++.a(pbase_type_info.o)
 .debug_info    0x00008fa8       0xa7 c:/users/trent smith/desktop/sjsu_dev/yagarto/bin/../lib/gcc/arm-none-eabi/4.6.2/thumb/v7m\libgcc.a(_arm_addsubdf3.o)
 .debug_info    0x0000904f       0xa7 c:/users/trent smith/desktop/sjsu_dev/yagarto/bin/../lib/gcc/arm-none-eabi/4.6.2/thumb/v7m\libgcc.a(_arm_fixdfsi.o)
 .debug_info    0x000090f6       0xa7 c:/users/trent smith/desktop/sjsu_dev/yagarto/bin/../lib/gcc/arm-none-eabi/4.6.2/thumb/v7m\libgcc.a(_arm_fixunsdfsi.o)
 .debug_info    0x0000919d       0xa7 c:/users/trent smith/desktop/sjsu_dev/yagarto/bin/../lib/gcc/arm-none-eabi/4.6.2/thumb/v7m\libgcc.a(_arm_addsubsf3.o)
 .debug_info    0x00009244       0xa7 c:/users/trent smith/desktop/sjsu_dev/yagarto/bin/../lib/gcc/arm-none-eabi/4.6.2/thumb/v7m\libgcc.a(_arm_muldivsf3.o)
 .debug_info    0x000092eb       0xa7 c:/users/trent smith/desktop/sjsu_dev/yagarto/bin/../lib/gcc/arm-none-eabi/4.6.2/thumb/v7m\libgcc.a(_arm_fixsfsi.o)
 .debug_info    0x00009392       0xa7 c:/users/trent smith/desktop/sjsu_dev/yagarto/bin/../lib/gcc/arm-none-eabi/4.6.2/thumb/v7m\libgcc.a(_arm_fixunssfsi.o)
 .debug_info    0x00009439     0x123f c:/users/trent smith/desktop/sjsu_dev/yagarto/bin/../lib/gcc/arm-none-eabi/4.6.2/thumb/v7m\libgcc.a(unwind-arm.o)
 .debug_info    0x0000a678       0xa6 c:/users/trent smith/desktop/sjsu_dev/yagarto/bin/../lib/gcc/arm-none-eabi/4.6.2/thumb/v7m\libgcc.a(libunwind.o)
 .debug_info    0x0000a71e      0x5f5 c:/users/trent smith/desktop/sjsu_dev/yagarto/bin/../lib/gcc/arm-none-eabi/4.6.2/thumb/v7m\libgcc.a(pr-support.o)
 .debug_info    0x0000ad13       0x88 c:/users/trent smith/desktop/sjsu_dev/yagarto/bin/../lib/gcc/arm-none-eabi/4.6.2/../../../../arm-none-eabi/lib/thumb/v7m\libc.a(lib_a-abort.o)
 .debug_info    0x0000ad9b      0x989 c:/users/trent smith/desktop/sjsu_dev/yagarto/bin/../lib/gcc/arm-none-eabi/4.6.2/../../../../arm-none-eabi/lib/thumb/v7m\libc.a(lib_a-atoi.o)
 .debug_info    0x0000b724      0x966 c:/users/trent smith/desktop/sjsu_dev/yagarto/bin/../lib/gcc/arm-none-eabi/4.6.2/../../../../arm-none-eabi/lib/thumb/v7m\libc.a(lib_a-impure.o)
 .debug_info    0x0000c08a      0x12f c:/users/trent smith/desktop/sjsu_dev/yagarto/bin/../lib/gcc/arm-none-eabi/4.6.2/../../../../arm-none-eabi/lib/thumb/v7m\libc.a(lib_a-init.o)
 .debug_info    0x0000c1b9       0x83 c:/users/trent smith/desktop/sjsu_dev/yagarto/bin/../lib/gcc/arm-none-eabi/4.6.2/../../../../arm-none-eabi/lib/thumb/v7m\libc.a(lib_a-isalnum.o)
 .debug_info    0x0000c23c       0x83 c:/users/trent smith/desktop/sjsu_dev/yagarto/bin/../lib/gcc/arm-none-eabi/4.6.2/../../../../arm-none-eabi/lib/thumb/v7m\libc.a(lib_a-isalpha.o)
 .debug_info    0x0000c2bf      0x9a5 c:/users/trent smith/desktop/sjsu_dev/yagarto/bin/../lib/gcc/arm-none-eabi/4.6.2/../../../../arm-none-eabi/lib/thumb/v7m\libc.a(lib_a-malloc.o)
 .debug_info    0x0000cc64      0xd6b c:/users/trent smith/desktop/sjsu_dev/yagarto/bin/../lib/gcc/arm-none-eabi/4.6.2/../../../../arm-none-eabi/lib/thumb/v7m\libc.a(lib_a-mallocr.o)
 .debug_info    0x0000d9cf      0x110 c:/users/trent smith/desktop/sjsu_dev/yagarto/bin/../lib/gcc/arm-none-eabi/4.6.2/../../../../arm-none-eabi/lib/thumb/v7m\libc.a(lib_a-memcmp.o)
 .debug_info    0x0000dadf      0x130 c:/users/trent smith/desktop/sjsu_dev/yagarto/bin/../lib/gcc/arm-none-eabi/4.6.2/../../../../arm-none-eabi/lib/thumb/v7m\libc.a(lib_a-memcpy.o)
 .debug_info    0x0000dc0f      0x12e c:/users/trent smith/desktop/sjsu_dev/yagarto/bin/../lib/gcc/arm-none-eabi/4.6.2/../../../../arm-none-eabi/lib/thumb/v7m\libc.a(lib_a-memmove.o)
 .debug_info    0x0000dd3d      0x116 c:/users/trent smith/desktop/sjsu_dev/yagarto/bin/../lib/gcc/arm-none-eabi/4.6.2/../../../../arm-none-eabi/lib/thumb/v7m\libc.a(lib_a-memset.o)
 .debug_info    0x0000de53      0x980 c:/users/trent smith/desktop/sjsu_dev/yagarto/bin/../lib/gcc/arm-none-eabi/4.6.2/../../../../arm-none-eabi/lib/thumb/v7m\libc.a(lib_a-mlock.o)
 .debug_info    0x0000e7d3      0xa9f c:/users/trent smith/desktop/sjsu_dev/yagarto/bin/../lib/gcc/arm-none-eabi/4.6.2/../../../../arm-none-eabi/lib/thumb/v7m\libc.a(lib_a-mstats.o)
 .debug_info    0x0000f272      0x9aa c:/users/trent smith/desktop/sjsu_dev/yagarto/bin/../lib/gcc/arm-none-eabi/4.6.2/../../../../arm-none-eabi/lib/thumb/v7m\libc.a(lib_a-putchar.o)
 .debug_info    0x0000fc1c      0xa5c c:/users/trent smith/desktop/sjsu_dev/yagarto/bin/../lib/gcc/arm-none-eabi/4.6.2/../../../../arm-none-eabi/lib/thumb/v7m\libc.a(lib_a-puts.o)
 .debug_info    0x00010678      0x98b c:/users/trent smith/desktop/sjsu_dev/yagarto/bin/../lib/gcc/arm-none-eabi/4.6.2/../../../../arm-none-eabi/lib/thumb/v7m\libc.a(lib_a-realloc.o)
 .debug_info    0x00011003      0xc0c c:/users/trent smith/desktop/sjsu_dev/yagarto/bin/../lib/gcc/arm-none-eabi/4.6.2/../../../../arm-none-eabi/lib/thumb/v7m\libc.a(lib_a-reallocr.o)
 .debug_info    0x00011c0f      0x9be c:/users/trent smith/desktop/sjsu_dev/yagarto/bin/../lib/gcc/arm-none-eabi/4.6.2/../../../../arm-none-eabi/lib/thumb/v7m\libc.a(lib_a-rget.o)
 .debug_info    0x000125cd      0x9ac c:/users/trent smith/desktop/sjsu_dev/yagarto/bin/../lib/gcc/arm-none-eabi/4.6.2/../../../../arm-none-eabi/lib/thumb/v7m\libc.a(lib_a-sbrkr.o)
 .debug_info    0x00012f79      0x9d5 c:/users/trent smith/desktop/sjsu_dev/yagarto/bin/../lib/gcc/arm-none-eabi/4.6.2/../../../../arm-none-eabi/lib/thumb/v7m\libc.a(lib_a-setvbuf.o)
 .debug_info    0x0001394e      0xb5b c:/users/trent smith/desktop/sjsu_dev/yagarto/bin/../lib/gcc/arm-none-eabi/4.6.2/../../../../arm-none-eabi/lib/thumb/v7m\libc.a(lib_a-signal.o)
 .debug_info    0x000144a9      0x9f1 c:/users/trent smith/desktop/sjsu_dev/yagarto/bin/../lib/gcc/arm-none-eabi/4.6.2/../../../../arm-none-eabi/lib/thumb/v7m\libc.a(lib_a-signalr.o)
 .debug_info    0x00014e9a      0x15b c:/users/trent smith/desktop/sjsu_dev/yagarto/bin/../lib/gcc/arm-none-eabi/4.6.2/../../../../arm-none-eabi/lib/thumb/v7m\libc.a(lib_a-strcasecmp.o)
 .debug_info    0x00014ff5       0xe6 c:/users/trent smith/desktop/sjsu_dev/yagarto/bin/../lib/gcc/arm-none-eabi/4.6.2/../../../../arm-none-eabi/lib/thumb/v7m\libc.a(lib_a-strcat.o)
 .debug_info    0x000150db      0x113 c:/users/trent smith/desktop/sjsu_dev/yagarto/bin/../lib/gcc/arm-none-eabi/4.6.2/../../../../arm-none-eabi/lib/thumb/v7m\libc.a(lib_a-strchr.o)
 .debug_info    0x000151ee       0xe7 c:/users/trent smith/desktop/sjsu_dev/yagarto/bin/../lib/gcc/arm-none-eabi/4.6.2/../../../../arm-none-eabi/lib/thumb/v7m\libc.a(lib_a-strcmp.o)
 .debug_info    0x000152d5       0xb9 c:/users/trent smith/desktop/sjsu_dev/yagarto/bin/../lib/gcc/arm-none-eabi/4.6.2/../../../../arm-none-eabi/lib/thumb/v7m\libc.a(lib_a-strcpy.o)
 .debug_info    0x0001538e       0xb1 c:/users/trent smith/desktop/sjsu_dev/yagarto/bin/../lib/gcc/arm-none-eabi/4.6.2/../../../../arm-none-eabi/lib/thumb/v7m\libc.a(lib_a-strlen.o)
 .debug_info    0x0001543f      0x175 c:/users/trent smith/desktop/sjsu_dev/yagarto/bin/../lib/gcc/arm-none-eabi/4.6.2/../../../../arm-none-eabi/lib/thumb/v7m\libc.a(lib_a-strncasecmp.o)
 .debug_info    0x000155b4       0xf2 c:/users/trent smith/desktop/sjsu_dev/yagarto/bin/../lib/gcc/arm-none-eabi/4.6.2/../../../../arm-none-eabi/lib/thumb/v7m\libc.a(lib_a-strncmp.o)
 .debug_info    0x000156a6      0x125 c:/users/trent smith/desktop/sjsu_dev/yagarto/bin/../lib/gcc/arm-none-eabi/4.6.2/../../../../arm-none-eabi/lib/thumb/v7m\libc.a(lib_a-strncpy.o)
 .debug_info    0x000157cb       0xc7 c:/users/trent smith/desktop/sjsu_dev/yagarto/bin/../lib/gcc/arm-none-eabi/4.6.2/../../../../arm-none-eabi/lib/thumb/v7m\libc.a(lib_a-strpbrk.o)
 .debug_info    0x00015892       0xc7 c:/users/trent smith/desktop/sjsu_dev/yagarto/bin/../lib/gcc/arm-none-eabi/4.6.2/../../../../arm-none-eabi/lib/thumb/v7m\libc.a(lib_a-strrchr.o)
 .debug_info    0x00015959      0x3a0 c:/users/trent smith/desktop/sjsu_dev/yagarto/bin/../lib/gcc/arm-none-eabi/4.6.2/../../../../arm-none-eabi/lib/thumb/v7m\libc.a(lib_a-strstr.o)
 .debug_info    0x00015cf9      0xa79 c:/users/trent smith/desktop/sjsu_dev/yagarto/bin/../lib/gcc/arm-none-eabi/4.6.2/../../../../arm-none-eabi/lib/thumb/v7m\libc.a(lib_a-strtol.o)
 .debug_info    0x00016772      0x9a2 c:/users/trent smith/desktop/sjsu_dev/yagarto/bin/../lib/gcc/arm-none-eabi/4.6.2/../../../../arm-none-eabi/lib/thumb/v7m\libc.a(lib_a-syswrite.o)
 .debug_info    0x00017114       0x83 c:/users/trent smith/desktop/sjsu_dev/yagarto/bin/../lib/gcc/arm-none-eabi/4.6.2/../../../../arm-none-eabi/lib/thumb/v7m\libc.a(lib_a-tolower.o)
 .debug_info    0x00017197       0x83 c:/users/trent smith/desktop/sjsu_dev/yagarto/bin/../lib/gcc/arm-none-eabi/4.6.2/../../../../arm-none-eabi/lib/thumb/v7m\libc.a(lib_a-toupper.o)
 .debug_info    0x0001721a      0xa79 c:/users/trent smith/desktop/sjsu_dev/yagarto/bin/../lib/gcc/arm-none-eabi/4.6.2/../../../../arm-none-eabi/lib/thumb/v7m\libc.a(lib_a-vsniprintf.o)
 .debug_info    0x00017c93      0x9e5 c:/users/trent smith/desktop/sjsu_dev/yagarto/bin/../lib/gcc/arm-none-eabi/4.6.2/../../../../arm-none-eabi/lib/thumb/v7m\libc.a(lib_a-wbuf.o)
 .debug_info    0x00018678      0x9d6 c:/users/trent smith/desktop/sjsu_dev/yagarto/bin/../lib/gcc/arm-none-eabi/4.6.2/../../../../arm-none-eabi/lib/thumb/v7m\libc.a(lib_a-writer.o)
 .debug_info    0x0001904e      0x992 c:/users/trent smith/desktop/sjsu_dev/yagarto/bin/../lib/gcc/arm-none-eabi/4.6.2/../../../../arm-none-eabi/lib/thumb/v7m\libc.a(lib_a-wsetup.o)
 .debug_info    0x000199e0       0x8b c:/users/trent smith/desktop/sjsu_dev/yagarto/bin/../lib/gcc/arm-none-eabi/4.6.2/../../../../arm-none-eabi/lib/thumb/v7m\libc.a(lib_a-ctype_.o)
 .debug_info    0x00019a6b      0xaae c:/users/trent smith/desktop/sjsu_dev/yagarto/bin/../lib/gcc/arm-none-eabi/4.6.2/../../../../arm-none-eabi/lib/thumb/v7m\libc.a(lib_a-fflush.o)
 .debug_info    0x0001a519      0xbfa c:/users/trent smith/desktop/sjsu_dev/yagarto/bin/../lib/gcc/arm-none-eabi/4.6.2/../../../../arm-none-eabi/lib/thumb/v7m\libc.a(lib_a-findfp.o)
 .debug_info    0x0001b113      0xa41 c:/users/trent smith/desktop/sjsu_dev/yagarto/bin/../lib/gcc/arm-none-eabi/4.6.2/../../../../arm-none-eabi/lib/thumb/v7m\libc.a(lib_a-fiprintf.o)
 .debug_info    0x0001bb54      0xc40 c:/users/trent smith/desktop/sjsu_dev/yagarto/bin/../lib/gcc/arm-none-eabi/4.6.2/../../../../arm-none-eabi/lib/thumb/v7m\libc.a(lib_a-freer.o)
 .debug_info    0x0001c794      0xab7 c:/users/trent smith/desktop/sjsu_dev/yagarto/bin/../lib/gcc/arm-none-eabi/4.6.2/../../../../arm-none-eabi/lib/thumb/v7m\libc.a(lib_a-fvwrite.o)
 .debug_info    0x0001d24b      0xb36 c:/users/trent smith/desktop/sjsu_dev/yagarto/bin/../lib/gcc/arm-none-eabi/4.6.2/../../../../arm-none-eabi/lib/thumb/v7m\libc.a(lib_a-fwalk.o)
 .debug_info    0x0001dd81      0xb45 c:/users/trent smith/desktop/sjsu_dev/yagarto/bin/../lib/gcc/arm-none-eabi/4.6.2/../../../../arm-none-eabi/lib/thumb/v7m\libc.a(lib_a-makebuf.o)
 .debug_info    0x0001e8c6      0xb27 c:/users/trent smith/desktop/sjsu_dev/yagarto/bin/../lib/gcc/arm-none-eabi/4.6.2/../../../../arm-none-eabi/lib/thumb/v7m\libc.a(lib_a-mallinfor.o)
 .debug_info    0x0001f3ed      0x9b1 c:/users/trent smith/desktop/sjsu_dev/yagarto/bin/../lib/gcc/arm-none-eabi/4.6.2/../../../../arm-none-eabi/lib/thumb/v7m\libc.a(lib_a-malloptr.o)
 .debug_info    0x0001fd9e      0xa7f c:/users/trent smith/desktop/sjsu_dev/yagarto/bin/../lib/gcc/arm-none-eabi/4.6.2/../../../../arm-none-eabi/lib/thumb/v7m\libc.a(lib_a-mallstatsr.o)
 .debug_info    0x0002081d      0x122 c:/users/trent smith/desktop/sjsu_dev/yagarto/bin/../lib/gcc/arm-none-eabi/4.6.2/../../../../arm-none-eabi/lib/thumb/v7m\libc.a(lib_a-memchr.o)
 .debug_info    0x0002093f      0x9f7 c:/users/trent smith/desktop/sjsu_dev/yagarto/bin/../lib/gcc/arm-none-eabi/4.6.2/../../../../arm-none-eabi/lib/thumb/v7m\libc.a(lib_a-putc.o)
 .debug_info    0x00021336      0xa64 c:/users/trent smith/desktop/sjsu_dev/yagarto/bin/../lib/gcc/arm-none-eabi/4.6.2/../../../../arm-none-eabi/lib/thumb/v7m\libc.a(lib_a-reent.o)
 .debug_info    0x00021d9a      0x9c1 c:/users/trent smith/desktop/sjsu_dev/yagarto/bin/../lib/gcc/arm-none-eabi/4.6.2/../../../../arm-none-eabi/lib/thumb/v7m\libc.a(lib_a-refill.o)
 .debug_info    0x0002275b      0xb35 c:/users/trent smith/desktop/sjsu_dev/yagarto/bin/../lib/gcc/arm-none-eabi/4.6.2/../../../../arm-none-eabi/lib/thumb/v7m\libc.a(lib_a-stdio.o)
 .debug_info    0x00023290      0xd97 c:/users/trent smith/desktop/sjsu_dev/yagarto/bin/../lib/gcc/arm-none-eabi/4.6.2/../../../../arm-none-eabi/lib/thumb/v7m\libc.a(lib_a-svfiprintf.o)
 .debug_info    0x00024027      0xf50 c:/users/trent smith/desktop/sjsu_dev/yagarto/bin/../lib/gcc/arm-none-eabi/4.6.2/../../../../arm-none-eabi/lib/thumb/v7m\libc.a(lib_a-vfiprintf.o)
 .debug_info    0x00024f77      0x99b c:/users/trent smith/desktop/sjsu_dev/yagarto/bin/../lib/gcc/arm-none-eabi/4.6.2/../../../../arm-none-eabi/lib/thumb/v7m\libc.a(lib_a-closer.o)
 .debug_info    0x00025912      0x9cb c:/users/trent smith/desktop/sjsu_dev/yagarto/bin/../lib/gcc/arm-none-eabi/4.6.2/../../../../arm-none-eabi/lib/thumb/v7m\libc.a(lib_a-fclose.o)
 .debug_info    0x000262dd      0xaa5 c:/users/trent smith/desktop/sjsu_dev/yagarto/bin/../lib/gcc/arm-none-eabi/4.6.2/../../../../arm-none-eabi/lib/thumb/v7m\libc.a(lib_a-fputwc.o)
 .debug_info    0x00026d82      0xb3f c:/users/trent smith/desktop/sjsu_dev/yagarto/bin/../lib/gcc/arm-none-eabi/4.6.2/../../../../arm-none-eabi/lib/thumb/v7m\libc.a(lib_a-fstatr.o)
 .debug_info    0x000278c1      0x99b c:/users/trent smith/desktop/sjsu_dev/yagarto/bin/../lib/gcc/arm-none-eabi/4.6.2/../../../../arm-none-eabi/lib/thumb/v7m\libc.a(lib_a-isattyr.o)
 .debug_info    0x0002825c      0xc96 c:/users/trent smith/desktop/sjsu_dev/yagarto/bin/../lib/gcc/arm-none-eabi/4.6.2/../../../../arm-none-eabi/lib/thumb/v7m\libc.a(lib_a-locale.o)
 .debug_info    0x00028ef2      0x9c4 c:/users/trent smith/desktop/sjsu_dev/yagarto/bin/../lib/gcc/arm-none-eabi/4.6.2/../../../../arm-none-eabi/lib/thumb/v7m\libc.a(lib_a-lseekr.o)
 .debug_info    0x000298b6      0x9cf c:/users/trent smith/desktop/sjsu_dev/yagarto/bin/../lib/gcc/arm-none-eabi/4.6.2/../../../../arm-none-eabi/lib/thumb/v7m\libc.a(lib_a-readr.o)
 .debug_info    0x0002a285      0xa99 c:/users/trent smith/desktop/sjsu_dev/yagarto/bin/../lib/gcc/arm-none-eabi/4.6.2/../../../../arm-none-eabi/lib/thumb/v7m\libc.a(lib_a-wcrtomb.o)
 .debug_info    0x0002ad1e      0xa61 c:/users/trent smith/desktop/sjsu_dev/yagarto/bin/../lib/gcc/arm-none-eabi/4.6.2/../../../../arm-none-eabi/lib/thumb/v7m\libc.a(lib_a-wctomb_r.o)
 .debug_info    0x0002b77f       0xa8 c:/users/trent smith/desktop/sjsu_dev/yagarto/bin/../lib/gcc/arm-none-eabi/4.6.2/thumb/v7m\libgcc.a(_udivsi3.o)
 .debug_info    0x0002b827       0xa8 c:/users/trent smith/desktop/sjsu_dev/yagarto/bin/../lib/gcc/arm-none-eabi/4.6.2/thumb/v7m\libgcc.a(_dvmd_tls.o)

.debug_abbrev   0x00000000     0x99fa
 .debug_abbrev  0x00000000      0x2b5 c:/users/trent smith/desktop/sjsu_dev/yagarto/bin/../lib/gcc/arm-none-eabi/4.6.2/../../../../arm-none-eabi/lib/thumb/v7m\libstdc++.a(guard.o)
 .debug_abbrev  0x000002b5      0x11f c:/users/trent smith/desktop/sjsu_dev/yagarto/bin/../lib/gcc/arm-none-eabi/4.6.2/../../../../arm-none-eabi/lib/thumb/v7m\libstdc++.a(guard_error.o)
 .debug_abbrev  0x000003d4       0x6d c:/users/trent smith/desktop/sjsu_dev/yagarto/bin/../lib/gcc/arm-none-eabi/4.6.2/../../../../arm-none-eabi/lib/thumb/v7m\libstdc++.a(pure.o)
 .debug_abbrev  0x00000441      0x2f8 c:/users/trent smith/desktop/sjsu_dev/yagarto/bin/../lib/gcc/arm-none-eabi/4.6.2/../../../../arm-none-eabi/lib/thumb/v7m\libstdc++.a(si_class_type_info.o)
 .debug_abbrev  0x00000739      0x299 c:/users/trent smith/desktop/sjsu_dev/yagarto/bin/../lib/gcc/arm-none-eabi/4.6.2/../../../../arm-none-eabi/lib/thumb/v7m\libstdc++.a(tinfo.o)
 .debug_abbrev  0x000009d2      0x3a2 c:/users/trent smith/desktop/sjsu_dev/yagarto/bin/../lib/gcc/arm-none-eabi/4.6.2/../../../../arm-none-eabi/lib/thumb/v7m\libstdc++.a(class_type_info.o)
 .debug_abbrev  0x00000d74      0x44c c:/users/trent smith/desktop/sjsu_dev/yagarto/bin/../lib/gcc/arm-none-eabi/4.6.2/../../../../arm-none-eabi/lib/thumb/v7m\libstdc++.a(eh_alloc.o)
 .debug_abbrev  0x000011c0      0x226 c:/users/trent smith/desktop/sjsu_dev/yagarto/bin/../lib/gcc/arm-none-eabi/4.6.2/../../../../arm-none-eabi/lib/thumb/v7m\libstdc++.a(eh_exception.o)
 .debug_abbrev  0x000013e6      0x1b5 c:/users/trent smith/desktop/sjsu_dev/yagarto/bin/../lib/gcc/arm-none-eabi/4.6.2/../../../../arm-none-eabi/lib/thumb/v7m\libstdc++.a(eh_globals.o)
 .debug_abbrev  0x0000159b      0x219 c:/users/trent smith/desktop/sjsu_dev/yagarto/bin/../lib/gcc/arm-none-eabi/4.6.2/../../../../arm-none-eabi/lib/thumb/v7m\libstdc++.a(eh_terminate.o)
 .debug_abbrev  0x000017b4       0x7c c:/users/trent smith/desktop/sjsu_dev/yagarto/bin/../lib/gcc/arm-none-eabi/4.6.2/../../../../arm-none-eabi/lib/thumb/v7m\libstdc++.a(eh_term_handler.o)
 .debug_abbrev  0x00001830      0x25f c:/users/trent smith/desktop/sjsu_dev/yagarto/bin/../lib/gcc/arm-none-eabi/4.6.2/../../../../arm-none-eabi/lib/thumb/v7m\libstdc++.a(eh_throw.o)
 .debug_abbrev  0x00001a8f       0x7c c:/users/trent smith/desktop/sjsu_dev/yagarto/bin/../lib/gcc/arm-none-eabi/4.6.2/../../../../arm-none-eabi/lib/thumb/v7m\libstdc++.a(eh_unex_handler.o)
 .debug_abbrev  0x00001b0b      0x29a c:/users/trent smith/desktop/sjsu_dev/yagarto/bin/../lib/gcc/arm-none-eabi/4.6.2/../../../../arm-none-eabi/lib/thumb/v7m\libstdc++.a(eh_arm.o)
 .debug_abbrev  0x00001da5      0x190 c:/users/trent smith/desktop/sjsu_dev/yagarto/bin/../lib/gcc/arm-none-eabi/4.6.2/../../../../arm-none-eabi/lib/thumb/v7m\libstdc++.a(eh_aux_runtime.o)
 .debug_abbrev  0x00001f35      0x36e c:/users/trent smith/desktop/sjsu_dev/yagarto/bin/../lib/gcc/arm-none-eabi/4.6.2/../../../../arm-none-eabi/lib/thumb/v7m\libstdc++.a(eh_call.o)
 .debug_abbrev  0x000022a3      0x290 c:/users/trent smith/desktop/sjsu_dev/yagarto/bin/../lib/gcc/arm-none-eabi/4.6.2/../../../../arm-none-eabi/lib/thumb/v7m\libstdc++.a(eh_catch.o)
 .debug_abbrev  0x00002533      0x47b c:/users/trent smith/desktop/sjsu_dev/yagarto/bin/../lib/gcc/arm-none-eabi/4.6.2/../../../../arm-none-eabi/lib/thumb/v7m\libstdc++.a(eh_personality.o)
 .debug_abbrev  0x000029ae      0x164 c:/users/trent smith/desktop/sjsu_dev/yagarto/bin/../lib/gcc/arm-none-eabi/4.6.2/../../../../arm-none-eabi/lib/thumb/v7m\libstdc++.a(fundamental_type_info.o)
 .debug_abbrev  0x00002b12      0x208 c:/users/trent smith/desktop/sjsu_dev/yagarto/bin/../lib/gcc/arm-none-eabi/4.6.2/../../../../arm-none-eabi/lib/thumb/v7m\libstdc++.a(pointer_type_info.o)
 .debug_abbrev  0x00002d1a      0x136 c:/users/trent smith/desktop/sjsu_dev/yagarto/bin/../lib/gcc/arm-none-eabi/4.6.2/../../../../arm-none-eabi/lib/thumb/v7m\libstdc++.a(bad_cast.o)
 .debug_abbrev  0x00002e50      0x136 c:/users/trent smith/desktop/sjsu_dev/yagarto/bin/../lib/gcc/arm-none-eabi/4.6.2/../../../../arm-none-eabi/lib/thumb/v7m\libstdc++.a(bad_typeid.o)
 .debug_abbrev  0x00002f86      0x280 c:/users/trent smith/desktop/sjsu_dev/yagarto/bin/../lib/gcc/arm-none-eabi/4.6.2/../../../../arm-none-eabi/lib/thumb/v7m\libstdc++.a(pbase_type_info.o)
 .debug_abbrev  0x00003206       0x14 c:/users/trent smith/desktop/sjsu_dev/yagarto/bin/../lib/gcc/arm-none-eabi/4.6.2/thumb/v7m\libgcc.a(_arm_addsubdf3.o)
 .debug_abbrev  0x0000321a       0x14 c:/users/trent smith/desktop/sjsu_dev/yagarto/bin/../lib/gcc/arm-none-eabi/4.6.2/thumb/v7m\libgcc.a(_arm_fixdfsi.o)
 .debug_abbrev  0x0000322e       0x14 c:/users/trent smith/desktop/sjsu_dev/yagarto/bin/../lib/gcc/arm-none-eabi/4.6.2/thumb/v7m\libgcc.a(_arm_fixunsdfsi.o)
 .debug_abbrev  0x00003242       0x14 c:/users/trent smith/desktop/sjsu_dev/yagarto/bin/../lib/gcc/arm-none-eabi/4.6.2/thumb/v7m\libgcc.a(_arm_addsubsf3.o)
 .debug_abbrev  0x00003256       0x14 c:/users/trent smith/desktop/sjsu_dev/yagarto/bin/../lib/gcc/arm-none-eabi/4.6.2/thumb/v7m\libgcc.a(_arm_muldivsf3.o)
 .debug_abbrev  0x0000326a       0x14 c:/users/trent smith/desktop/sjsu_dev/yagarto/bin/../lib/gcc/arm-none-eabi/4.6.2/thumb/v7m\libgcc.a(_arm_fixsfsi.o)
 .debug_abbrev  0x0000327e       0x14 c:/users/trent smith/desktop/sjsu_dev/yagarto/bin/../lib/gcc/arm-none-eabi/4.6.2/thumb/v7m\libgcc.a(_arm_fixunssfsi.o)
 .debug_abbrev  0x00003292      0x2fc c:/users/trent smith/desktop/sjsu_dev/yagarto/bin/../lib/gcc/arm-none-eabi/4.6.2/thumb/v7m\libgcc.a(unwind-arm.o)
 .debug_abbrev  0x0000358e       0x14 c:/users/trent smith/desktop/sjsu_dev/yagarto/bin/../lib/gcc/arm-none-eabi/4.6.2/thumb/v7m\libgcc.a(libunwind.o)
 .debug_abbrev  0x000035a2      0x226 c:/users/trent smith/desktop/sjsu_dev/yagarto/bin/../lib/gcc/arm-none-eabi/4.6.2/thumb/v7m\libgcc.a(pr-support.o)
 .debug_abbrev  0x000037c8       0x3f c:/users/trent smith/desktop/sjsu_dev/yagarto/bin/../lib/gcc/arm-none-eabi/4.6.2/../../../../arm-none-eabi/lib/thumb/v7m\libc.a(lib_a-abort.o)
 .debug_abbrev  0x00003807      0x185 c:/users/trent smith/desktop/sjsu_dev/yagarto/bin/../lib/gcc/arm-none-eabi/4.6.2/../../../../arm-none-eabi/lib/thumb/v7m\libc.a(lib_a-atoi.o)
 .debug_abbrev  0x0000398c      0x166 c:/users/trent smith/desktop/sjsu_dev/yagarto/bin/../lib/gcc/arm-none-eabi/4.6.2/../../../../arm-none-eabi/lib/thumb/v7m\libc.a(lib_a-impure.o)
 .debug_abbrev  0x00003af2       0x9b c:/users/trent smith/desktop/sjsu_dev/yagarto/bin/../lib/gcc/arm-none-eabi/4.6.2/../../../../arm-none-eabi/lib/thumb/v7m\libc.a(lib_a-init.o)
 .debug_abbrev  0x00003b8d       0x73 c:/users/trent smith/desktop/sjsu_dev/yagarto/bin/../lib/gcc/arm-none-eabi/4.6.2/../../../../arm-none-eabi/lib/thumb/v7m\libc.a(lib_a-isalnum.o)
 .debug_abbrev  0x00003c00       0x73 c:/users/trent smith/desktop/sjsu_dev/yagarto/bin/../lib/gcc/arm-none-eabi/4.6.2/../../../../arm-none-eabi/lib/thumb/v7m\libc.a(lib_a-isalpha.o)
 .debug_abbrev  0x00003c73      0x196 c:/users/trent smith/desktop/sjsu_dev/yagarto/bin/../lib/gcc/arm-none-eabi/4.6.2/../../../../arm-none-eabi/lib/thumb/v7m\libc.a(lib_a-malloc.o)
 .debug_abbrev  0x00003e09      0x233 c:/users/trent smith/desktop/sjsu_dev/yagarto/bin/../lib/gcc/arm-none-eabi/4.6.2/../../../../arm-none-eabi/lib/thumb/v7m\libc.a(lib_a-mallocr.o)
 .debug_abbrev  0x0000403c       0x7c c:/users/trent smith/desktop/sjsu_dev/yagarto/bin/../lib/gcc/arm-none-eabi/4.6.2/../../../../arm-none-eabi/lib/thumb/v7m\libc.a(lib_a-memcmp.o)
 .debug_abbrev  0x000040b8       0x99 c:/users/trent smith/desktop/sjsu_dev/yagarto/bin/../lib/gcc/arm-none-eabi/4.6.2/../../../../arm-none-eabi/lib/thumb/v7m\libc.a(lib_a-memcpy.o)
 .debug_abbrev  0x00004151       0xa8 c:/users/trent smith/desktop/sjsu_dev/yagarto/bin/../lib/gcc/arm-none-eabi/4.6.2/../../../../arm-none-eabi/lib/thumb/v7m\libc.a(lib_a-memmove.o)
 .debug_abbrev  0x000041f9       0x8d c:/users/trent smith/desktop/sjsu_dev/yagarto/bin/../lib/gcc/arm-none-eabi/4.6.2/../../../../arm-none-eabi/lib/thumb/v7m\libc.a(lib_a-memset.o)
 .debug_abbrev  0x00004286      0x179 c:/users/trent smith/desktop/sjsu_dev/yagarto/bin/../lib/gcc/arm-none-eabi/4.6.2/../../../../arm-none-eabi/lib/thumb/v7m\libc.a(lib_a-mlock.o)
 .debug_abbrev  0x000043ff      0x1d9 c:/users/trent smith/desktop/sjsu_dev/yagarto/bin/../lib/gcc/arm-none-eabi/4.6.2/../../../../arm-none-eabi/lib/thumb/v7m\libc.a(lib_a-mstats.o)
 .debug_abbrev  0x000045d8      0x198 c:/users/trent smith/desktop/sjsu_dev/yagarto/bin/../lib/gcc/arm-none-eabi/4.6.2/../../../../arm-none-eabi/lib/thumb/v7m\libc.a(lib_a-putchar.o)
 .debug_abbrev  0x00004770      0x1bb c:/users/trent smith/desktop/sjsu_dev/yagarto/bin/../lib/gcc/arm-none-eabi/4.6.2/../../../../arm-none-eabi/lib/thumb/v7m\libc.a(lib_a-puts.o)
 .debug_abbrev  0x0000492b      0x18e c:/users/trent smith/desktop/sjsu_dev/yagarto/bin/../lib/gcc/arm-none-eabi/4.6.2/../../../../arm-none-eabi/lib/thumb/v7m\libc.a(lib_a-realloc.o)
 .debug_abbrev  0x00004ab9      0x1db c:/users/trent smith/desktop/sjsu_dev/yagarto/bin/../lib/gcc/arm-none-eabi/4.6.2/../../../../arm-none-eabi/lib/thumb/v7m\libc.a(lib_a-reallocr.o)
 .debug_abbrev  0x00004c94      0x198 c:/users/trent smith/desktop/sjsu_dev/yagarto/bin/../lib/gcc/arm-none-eabi/4.6.2/../../../../arm-none-eabi/lib/thumb/v7m\libc.a(lib_a-rget.o)
 .debug_abbrev  0x00004e2c      0x1b0 c:/users/trent smith/desktop/sjsu_dev/yagarto/bin/../lib/gcc/arm-none-eabi/4.6.2/../../../../arm-none-eabi/lib/thumb/v7m\libc.a(lib_a-sbrkr.o)
 .debug_abbrev  0x00004fdc      0x1aa c:/users/trent smith/desktop/sjsu_dev/yagarto/bin/../lib/gcc/arm-none-eabi/4.6.2/../../../../arm-none-eabi/lib/thumb/v7m\libc.a(lib_a-setvbuf.o)
 .debug_abbrev  0x00005186      0x23a c:/users/trent smith/desktop/sjsu_dev/yagarto/bin/../lib/gcc/arm-none-eabi/4.6.2/../../../../arm-none-eabi/lib/thumb/v7m\libc.a(lib_a-signal.o)
 .debug_abbrev  0x000053c0      0x1ca c:/users/trent smith/desktop/sjsu_dev/yagarto/bin/../lib/gcc/arm-none-eabi/4.6.2/../../../../arm-none-eabi/lib/thumb/v7m\libc.a(lib_a-signalr.o)
 .debug_abbrev  0x0000558a       0xb9 c:/users/trent smith/desktop/sjsu_dev/yagarto/bin/../lib/gcc/arm-none-eabi/4.6.2/../../../../arm-none-eabi/lib/thumb/v7m\libc.a(lib_a-strcasecmp.o)
 .debug_abbrev  0x00005643       0x87 c:/users/trent smith/desktop/sjsu_dev/yagarto/bin/../lib/gcc/arm-none-eabi/4.6.2/../../../../arm-none-eabi/lib/thumb/v7m\libc.a(lib_a-strcat.o)
 .debug_abbrev  0x000056ca       0x80 c:/users/trent smith/desktop/sjsu_dev/yagarto/bin/../lib/gcc/arm-none-eabi/4.6.2/../../../../arm-none-eabi/lib/thumb/v7m\libc.a(lib_a-strchr.o)
 .debug_abbrev  0x0000574a       0x86 c:/users/trent smith/desktop/sjsu_dev/yagarto/bin/../lib/gcc/arm-none-eabi/4.6.2/../../../../arm-none-eabi/lib/thumb/v7m\libc.a(lib_a-strcmp.o)
 .debug_abbrev  0x000057d0       0x6f c:/users/trent smith/desktop/sjsu_dev/yagarto/bin/../lib/gcc/arm-none-eabi/4.6.2/../../../../arm-none-eabi/lib/thumb/v7m\libc.a(lib_a-strcpy.o)
 .debug_abbrev  0x0000583f       0x6d c:/users/trent smith/desktop/sjsu_dev/yagarto/bin/../lib/gcc/arm-none-eabi/4.6.2/../../../../arm-none-eabi/lib/thumb/v7m\libc.a(lib_a-strlen.o)
 .debug_abbrev  0x000058ac       0xae c:/users/trent smith/desktop/sjsu_dev/yagarto/bin/../lib/gcc/arm-none-eabi/4.6.2/../../../../arm-none-eabi/lib/thumb/v7m\libc.a(lib_a-strncasecmp.o)
 .debug_abbrev  0x0000595a       0x7e c:/users/trent smith/desktop/sjsu_dev/yagarto/bin/../lib/gcc/arm-none-eabi/4.6.2/../../../../arm-none-eabi/lib/thumb/v7m\libc.a(lib_a-strncmp.o)
 .debug_abbrev  0x000059d8       0x9c c:/users/trent smith/desktop/sjsu_dev/yagarto/bin/../lib/gcc/arm-none-eabi/4.6.2/../../../../arm-none-eabi/lib/thumb/v7m\libc.a(lib_a-strncpy.o)
 .debug_abbrev  0x00005a74       0x6f c:/users/trent smith/desktop/sjsu_dev/yagarto/bin/../lib/gcc/arm-none-eabi/4.6.2/../../../../arm-none-eabi/lib/thumb/v7m\libc.a(lib_a-strpbrk.o)
 .debug_abbrev  0x00005ae3       0x6f c:/users/trent smith/desktop/sjsu_dev/yagarto/bin/../lib/gcc/arm-none-eabi/4.6.2/../../../../arm-none-eabi/lib/thumb/v7m\libc.a(lib_a-strrchr.o)
 .debug_abbrev  0x00005b52      0x186 c:/users/trent smith/desktop/sjsu_dev/yagarto/bin/../lib/gcc/arm-none-eabi/4.6.2/../../../../arm-none-eabi/lib/thumb/v7m\libc.a(lib_a-strstr.o)
 .debug_abbrev  0x00005cd8      0x1bd c:/users/trent smith/desktop/sjsu_dev/yagarto/bin/../lib/gcc/arm-none-eabi/4.6.2/../../../../arm-none-eabi/lib/thumb/v7m\libc.a(lib_a-strtol.o)
 .debug_abbrev  0x00005e95      0x184 c:/users/trent smith/desktop/sjsu_dev/yagarto/bin/../lib/gcc/arm-none-eabi/4.6.2/../../../../arm-none-eabi/lib/thumb/v7m\libc.a(lib_a-syswrite.o)
 .debug_abbrev  0x00006019       0x73 c:/users/trent smith/desktop/sjsu_dev/yagarto/bin/../lib/gcc/arm-none-eabi/4.6.2/../../../../arm-none-eabi/lib/thumb/v7m\libc.a(lib_a-tolower.o)
 .debug_abbrev  0x0000608c       0x73 c:/users/trent smith/desktop/sjsu_dev/yagarto/bin/../lib/gcc/arm-none-eabi/4.6.2/../../../../arm-none-eabi/lib/thumb/v7m\libc.a(lib_a-toupper.o)
 .debug_abbrev  0x000060ff      0x1de c:/users/trent smith/desktop/sjsu_dev/yagarto/bin/../lib/gcc/arm-none-eabi/4.6.2/../../../../arm-none-eabi/lib/thumb/v7m\libc.a(lib_a-vsniprintf.o)
 .debug_abbrev  0x000062dd      0x1a7 c:/users/trent smith/desktop/sjsu_dev/yagarto/bin/../lib/gcc/arm-none-eabi/4.6.2/../../../../arm-none-eabi/lib/thumb/v7m\libc.a(lib_a-wbuf.o)
 .debug_abbrev  0x00006484      0x1a9 c:/users/trent smith/desktop/sjsu_dev/yagarto/bin/../lib/gcc/arm-none-eabi/4.6.2/../../../../arm-none-eabi/lib/thumb/v7m\libc.a(lib_a-writer.o)
 .debug_abbrev  0x0000662d      0x17f c:/users/trent smith/desktop/sjsu_dev/yagarto/bin/../lib/gcc/arm-none-eabi/4.6.2/../../../../arm-none-eabi/lib/thumb/v7m\libc.a(lib_a-wsetup.o)
 .debug_abbrev  0x000067ac       0x63 c:/users/trent smith/desktop/sjsu_dev/yagarto/bin/../lib/gcc/arm-none-eabi/4.6.2/../../../../arm-none-eabi/lib/thumb/v7m\libc.a(lib_a-ctype_.o)
 .debug_abbrev  0x0000680f      0x1fe c:/users/trent smith/desktop/sjsu_dev/yagarto/bin/../lib/gcc/arm-none-eabi/4.6.2/../../../../arm-none-eabi/lib/thumb/v7m\libc.a(lib_a-fflush.o)
 .debug_abbrev  0x00006a0d      0x289 c:/users/trent smith/desktop/sjsu_dev/yagarto/bin/../lib/gcc/arm-none-eabi/4.6.2/../../../../arm-none-eabi/lib/thumb/v7m\libc.a(lib_a-findfp.o)
 .debug_abbrev  0x00006c96      0x1c8 c:/users/trent smith/desktop/sjsu_dev/yagarto/bin/../lib/gcc/arm-none-eabi/4.6.2/../../../../arm-none-eabi/lib/thumb/v7m\libc.a(lib_a-fiprintf.o)
 .debug_abbrev  0x00006e5e      0x1ea c:/users/trent smith/desktop/sjsu_dev/yagarto/bin/../lib/gcc/arm-none-eabi/4.6.2/../../../../arm-none-eabi/lib/thumb/v7m\libc.a(lib_a-freer.o)
 .debug_abbrev  0x00007048      0x1a7 c:/users/trent smith/desktop/sjsu_dev/yagarto/bin/../lib/gcc/arm-none-eabi/4.6.2/../../../../arm-none-eabi/lib/thumb/v7m\libc.a(lib_a-fvwrite.o)
 .debug_abbrev  0x000071ef      0x210 c:/users/trent smith/desktop/sjsu_dev/yagarto/bin/../lib/gcc/arm-none-eabi/4.6.2/../../../../arm-none-eabi/lib/thumb/v7m\libc.a(lib_a-fwalk.o)
 .debug_abbrev  0x000073ff      0x199 c:/users/trent smith/desktop/sjsu_dev/yagarto/bin/../lib/gcc/arm-none-eabi/4.6.2/../../../../arm-none-eabi/lib/thumb/v7m\libc.a(lib_a-makebuf.o)
 .debug_abbrev  0x00007598      0x1d7 c:/users/trent smith/desktop/sjsu_dev/yagarto/bin/../lib/gcc/arm-none-eabi/4.6.2/../../../../arm-none-eabi/lib/thumb/v7m\libc.a(lib_a-mallinfor.o)
 .debug_abbrev  0x0000776f      0x17f c:/users/trent smith/desktop/sjsu_dev/yagarto/bin/../lib/gcc/arm-none-eabi/4.6.2/../../../../arm-none-eabi/lib/thumb/v7m\libc.a(lib_a-malloptr.o)
 .debug_abbrev  0x000078ee      0x19b c:/users/trent smith/desktop/sjsu_dev/yagarto/bin/../lib/gcc/arm-none-eabi/4.6.2/../../../../arm-none-eabi/lib/thumb/v7m\libc.a(lib_a-mallstatsr.o)
 .debug_abbrev  0x00007a89       0xc4 c:/users/trent smith/desktop/sjsu_dev/yagarto/bin/../lib/gcc/arm-none-eabi/4.6.2/../../../../arm-none-eabi/lib/thumb/v7m\libc.a(lib_a-memchr.o)
 .debug_abbrev  0x00007b4d      0x1a7 c:/users/trent smith/desktop/sjsu_dev/yagarto/bin/../lib/gcc/arm-none-eabi/4.6.2/../../../../arm-none-eabi/lib/thumb/v7m\libc.a(lib_a-putc.o)
 .debug_abbrev  0x00007cf4      0x1e6 c:/users/trent smith/desktop/sjsu_dev/yagarto/bin/../lib/gcc/arm-none-eabi/4.6.2/../../../../arm-none-eabi/lib/thumb/v7m\libc.a(lib_a-reent.o)
 .debug_abbrev  0x00007eda      0x196 c:/users/trent smith/desktop/sjsu_dev/yagarto/bin/../lib/gcc/arm-none-eabi/4.6.2/../../../../arm-none-eabi/lib/thumb/v7m\libc.a(lib_a-refill.o)
 .debug_abbrev  0x00008070      0x1f6 c:/users/trent smith/desktop/sjsu_dev/yagarto/bin/../lib/gcc/arm-none-eabi/4.6.2/../../../../arm-none-eabi/lib/thumb/v7m\libc.a(lib_a-stdio.o)
 .debug_abbrev  0x00008266      0x262 c:/users/trent smith/desktop/sjsu_dev/yagarto/bin/../lib/gcc/arm-none-eabi/4.6.2/../../../../arm-none-eabi/lib/thumb/v7m\libc.a(lib_a-svfiprintf.o)
 .debug_abbrev  0x000084c8      0x31c c:/users/trent smith/desktop/sjsu_dev/yagarto/bin/../lib/gcc/arm-none-eabi/4.6.2/../../../../arm-none-eabi/lib/thumb/v7m\libc.a(lib_a-vfiprintf.o)
 .debug_abbrev  0x000087e4      0x1a4 c:/users/trent smith/desktop/sjsu_dev/yagarto/bin/../lib/gcc/arm-none-eabi/4.6.2/../../../../arm-none-eabi/lib/thumb/v7m\libc.a(lib_a-closer.o)
 .debug_abbrev  0x00008988      0x1b6 c:/users/trent smith/desktop/sjsu_dev/yagarto/bin/../lib/gcc/arm-none-eabi/4.6.2/../../../../arm-none-eabi/lib/thumb/v7m\libc.a(lib_a-fclose.o)
 .debug_abbrev  0x00008b3e      0x1f5 c:/users/trent smith/desktop/sjsu_dev/yagarto/bin/../lib/gcc/arm-none-eabi/4.6.2/../../../../arm-none-eabi/lib/thumb/v7m\libc.a(lib_a-fputwc.o)
 .debug_abbrev  0x00008d33      0x1b3 c:/users/trent smith/desktop/sjsu_dev/yagarto/bin/../lib/gcc/arm-none-eabi/4.6.2/../../../../arm-none-eabi/lib/thumb/v7m\libc.a(lib_a-fstatr.o)
 .debug_abbrev  0x00008ee6      0x1a4 c:/users/trent smith/desktop/sjsu_dev/yagarto/bin/../lib/gcc/arm-none-eabi/4.6.2/../../../../arm-none-eabi/lib/thumb/v7m\libc.a(lib_a-isattyr.o)
 .debug_abbrev  0x0000908a      0x25e c:/users/trent smith/desktop/sjsu_dev/yagarto/bin/../lib/gcc/arm-none-eabi/4.6.2/../../../../arm-none-eabi/lib/thumb/v7m\libc.a(lib_a-locale.o)
 .debug_abbrev  0x000092e8      0x1b3 c:/users/trent smith/desktop/sjsu_dev/yagarto/bin/../lib/gcc/arm-none-eabi/4.6.2/../../../../arm-none-eabi/lib/thumb/v7m\libc.a(lib_a-lseekr.o)
 .debug_abbrev  0x0000949b      0x1a4 c:/users/trent smith/desktop/sjsu_dev/yagarto/bin/../lib/gcc/arm-none-eabi/4.6.2/../../../../arm-none-eabi/lib/thumb/v7m\libc.a(lib_a-readr.o)
 .debug_abbrev  0x0000963f      0x1ae c:/users/trent smith/desktop/sjsu_dev/yagarto/bin/../lib/gcc/arm-none-eabi/4.6.2/../../../../arm-none-eabi/lib/thumb/v7m\libc.a(lib_a-wcrtomb.o)
 .debug_abbrev  0x000097ed      0x1e5 c:/users/trent smith/desktop/sjsu_dev/yagarto/bin/../lib/gcc/arm-none-eabi/4.6.2/../../../../arm-none-eabi/lib/thumb/v7m\libc.a(lib_a-wctomb_r.o)
 .debug_abbrev  0x000099d2       0x14 c:/users/trent smith/desktop/sjsu_dev/yagarto/bin/../lib/gcc/arm-none-eabi/4.6.2/thumb/v7m\libgcc.a(_udivsi3.o)
 .debug_abbrev  0x000099e6       0x14 c:/users/trent smith/desktop/sjsu_dev/yagarto/bin/../lib/gcc/arm-none-eabi/4.6.2/thumb/v7m\libgcc.a(_dvmd_tls.o)

.debug_loc      0x00000000     0xd9b2
 .debug_loc     0x00000000       0xac c:/users/trent smith/desktop/sjsu_dev/yagarto/bin/../lib/gcc/arm-none-eabi/4.6.2/../../../../arm-none-eabi/lib/thumb/v7m\libstdc++.a(guard.o)
 .debug_loc     0x000000ac       0x8f c:/users/trent smith/desktop/sjsu_dev/yagarto/bin/../lib/gcc/arm-none-eabi/4.6.2/../../../../arm-none-eabi/lib/thumb/v7m\libstdc++.a(guard_error.o)
 .debug_loc     0x0000013b       0x20 c:/users/trent smith/desktop/sjsu_dev/yagarto/bin/../lib/gcc/arm-none-eabi/4.6.2/../../../../arm-none-eabi/lib/thumb/v7m\libstdc++.a(pure.o)
 .debug_loc     0x0000015b      0x441 c:/users/trent smith/desktop/sjsu_dev/yagarto/bin/../lib/gcc/arm-none-eabi/4.6.2/../../../../arm-none-eabi/lib/thumb/v7m\libstdc++.a(si_class_type_info.o)
 .debug_loc     0x0000059c      0x13d c:/users/trent smith/desktop/sjsu_dev/yagarto/bin/../lib/gcc/arm-none-eabi/4.6.2/../../../../arm-none-eabi/lib/thumb/v7m\libstdc++.a(tinfo.o)
 .debug_loc     0x000006d9      0x341 c:/users/trent smith/desktop/sjsu_dev/yagarto/bin/../lib/gcc/arm-none-eabi/4.6.2/../../../../arm-none-eabi/lib/thumb/v7m\libstdc++.a(class_type_info.o)
 .debug_loc     0x00000a1a      0x2f6 c:/users/trent smith/desktop/sjsu_dev/yagarto/bin/../lib/gcc/arm-none-eabi/4.6.2/../../../../arm-none-eabi/lib/thumb/v7m\libstdc++.a(eh_alloc.o)
 .debug_loc     0x00000d10      0x175 c:/users/trent smith/desktop/sjsu_dev/yagarto/bin/../lib/gcc/arm-none-eabi/4.6.2/../../../../arm-none-eabi/lib/thumb/v7m\libstdc++.a(eh_exception.o)
 .debug_loc     0x00000e85       0xe4 c:/users/trent smith/desktop/sjsu_dev/yagarto/bin/../lib/gcc/arm-none-eabi/4.6.2/../../../../arm-none-eabi/lib/thumb/v7m\libstdc++.a(eh_terminate.o)
 .debug_loc     0x00000f69      0x1b0 c:/users/trent smith/desktop/sjsu_dev/yagarto/bin/../lib/gcc/arm-none-eabi/4.6.2/../../../../arm-none-eabi/lib/thumb/v7m\libstdc++.a(eh_throw.o)
 .debug_loc     0x00001119      0x2c0 c:/users/trent smith/desktop/sjsu_dev/yagarto/bin/../lib/gcc/arm-none-eabi/4.6.2/../../../../arm-none-eabi/lib/thumb/v7m\libstdc++.a(eh_arm.o)
 .debug_loc     0x000013d9       0x66 c:/users/trent smith/desktop/sjsu_dev/yagarto/bin/../lib/gcc/arm-none-eabi/4.6.2/../../../../arm-none-eabi/lib/thumb/v7m\libstdc++.a(eh_aux_runtime.o)
 .debug_loc     0x0000143f      0x3d7 c:/users/trent smith/desktop/sjsu_dev/yagarto/bin/../lib/gcc/arm-none-eabi/4.6.2/../../../../arm-none-eabi/lib/thumb/v7m\libstdc++.a(eh_call.o)
 .debug_loc     0x00001816      0x29a c:/users/trent smith/desktop/sjsu_dev/yagarto/bin/../lib/gcc/arm-none-eabi/4.6.2/../../../../arm-none-eabi/lib/thumb/v7m\libstdc++.a(eh_catch.o)
 .debug_loc     0x00001ab0     0x1643 c:/users/trent smith/desktop/sjsu_dev/yagarto/bin/../lib/gcc/arm-none-eabi/4.6.2/../../../../arm-none-eabi/lib/thumb/v7m\libstdc++.a(eh_personality.o)
 .debug_loc     0x000030f3       0x8f c:/users/trent smith/desktop/sjsu_dev/yagarto/bin/../lib/gcc/arm-none-eabi/4.6.2/../../../../arm-none-eabi/lib/thumb/v7m\libstdc++.a(fundamental_type_info.o)
 .debug_loc     0x00003182      0x1b5 c:/users/trent smith/desktop/sjsu_dev/yagarto/bin/../lib/gcc/arm-none-eabi/4.6.2/../../../../arm-none-eabi/lib/thumb/v7m\libstdc++.a(pointer_type_info.o)
 .debug_loc     0x00003337       0xa2 c:/users/trent smith/desktop/sjsu_dev/yagarto/bin/../lib/gcc/arm-none-eabi/4.6.2/../../../../arm-none-eabi/lib/thumb/v7m\libstdc++.a(bad_cast.o)
 .debug_loc     0x000033d9       0xad c:/users/trent smith/desktop/sjsu_dev/yagarto/bin/../lib/gcc/arm-none-eabi/4.6.2/../../../../arm-none-eabi/lib/thumb/v7m\libstdc++.a(bad_typeid.o)
 .debug_loc     0x00003486      0x26f c:/users/trent smith/desktop/sjsu_dev/yagarto/bin/../lib/gcc/arm-none-eabi/4.6.2/../../../../arm-none-eabi/lib/thumb/v7m\libstdc++.a(pbase_type_info.o)
 .debug_loc     0x000036f5     0x1377 c:/users/trent smith/desktop/sjsu_dev/yagarto/bin/../lib/gcc/arm-none-eabi/4.6.2/thumb/v7m\libgcc.a(unwind-arm.o)
 .debug_loc     0x00004a6c      0x58a c:/users/trent smith/desktop/sjsu_dev/yagarto/bin/../lib/gcc/arm-none-eabi/4.6.2/thumb/v7m\libgcc.a(pr-support.o)
 .debug_loc     0x00004ff6       0x20 c:/users/trent smith/desktop/sjsu_dev/yagarto/bin/../lib/gcc/arm-none-eabi/4.6.2/../../../../arm-none-eabi/lib/thumb/v7m\libc.a(lib_a-abort.o)
 .debug_loc     0x00005016       0x39 c:/users/trent smith/desktop/sjsu_dev/yagarto/bin/../lib/gcc/arm-none-eabi/4.6.2/../../../../arm-none-eabi/lib/thumb/v7m\libc.a(lib_a-atoi.o)
 .debug_loc     0x0000504f       0x7c c:/users/trent smith/desktop/sjsu_dev/yagarto/bin/../lib/gcc/arm-none-eabi/4.6.2/../../../../arm-none-eabi/lib/thumb/v7m\libc.a(lib_a-init.o)
 .debug_loc     0x000050cb       0x13 c:/users/trent smith/desktop/sjsu_dev/yagarto/bin/../lib/gcc/arm-none-eabi/4.6.2/../../../../arm-none-eabi/lib/thumb/v7m\libc.a(lib_a-isalnum.o)
 .debug_loc     0x000050de       0x13 c:/users/trent smith/desktop/sjsu_dev/yagarto/bin/../lib/gcc/arm-none-eabi/4.6.2/../../../../arm-none-eabi/lib/thumb/v7m\libc.a(lib_a-isalpha.o)
 .debug_loc     0x000050f1       0x3c c:/users/trent smith/desktop/sjsu_dev/yagarto/bin/../lib/gcc/arm-none-eabi/4.6.2/../../../../arm-none-eabi/lib/thumb/v7m\libc.a(lib_a-malloc.o)
 .debug_loc     0x0000512d      0x995 c:/users/trent smith/desktop/sjsu_dev/yagarto/bin/../lib/gcc/arm-none-eabi/4.6.2/../../../../arm-none-eabi/lib/thumb/v7m\libc.a(lib_a-mallocr.o)
 .debug_loc     0x00005ac2       0xd3 c:/users/trent smith/desktop/sjsu_dev/yagarto/bin/../lib/gcc/arm-none-eabi/4.6.2/../../../../arm-none-eabi/lib/thumb/v7m\libc.a(lib_a-memcmp.o)
 .debug_loc     0x00005b95      0x1cc c:/users/trent smith/desktop/sjsu_dev/yagarto/bin/../lib/gcc/arm-none-eabi/4.6.2/../../../../arm-none-eabi/lib/thumb/v7m\libc.a(lib_a-memcpy.o)
 .debug_loc     0x00005d61      0x251 c:/users/trent smith/desktop/sjsu_dev/yagarto/bin/../lib/gcc/arm-none-eabi/4.6.2/../../../../arm-none-eabi/lib/thumb/v7m\libc.a(lib_a-memmove.o)
 .debug_loc     0x00005fb2      0x1fb c:/users/trent smith/desktop/sjsu_dev/yagarto/bin/../lib/gcc/arm-none-eabi/4.6.2/../../../../arm-none-eabi/lib/thumb/v7m\libc.a(lib_a-memset.o)
 .debug_loc     0x000061ad       0xd6 c:/users/trent smith/desktop/sjsu_dev/yagarto/bin/../lib/gcc/arm-none-eabi/4.6.2/../../../../arm-none-eabi/lib/thumb/v7m\libc.a(lib_a-mstats.o)
 .debug_loc     0x00006283       0x44 c:/users/trent smith/desktop/sjsu_dev/yagarto/bin/../lib/gcc/arm-none-eabi/4.6.2/../../../../arm-none-eabi/lib/thumb/v7m\libc.a(lib_a-putchar.o)
 .debug_loc     0x000062c7       0xa5 c:/users/trent smith/desktop/sjsu_dev/yagarto/bin/../lib/gcc/arm-none-eabi/4.6.2/../../../../arm-none-eabi/lib/thumb/v7m\libc.a(lib_a-puts.o)
 .debug_loc     0x0000636c       0x3c c:/users/trent smith/desktop/sjsu_dev/yagarto/bin/../lib/gcc/arm-none-eabi/4.6.2/../../../../arm-none-eabi/lib/thumb/v7m\libc.a(lib_a-realloc.o)
 .debug_loc     0x000063a8      0xb8a c:/users/trent smith/desktop/sjsu_dev/yagarto/bin/../lib/gcc/arm-none-eabi/4.6.2/../../../../arm-none-eabi/lib/thumb/v7m\libc.a(lib_a-reallocr.o)
 .debug_loc     0x00006f32       0x7a c:/users/trent smith/desktop/sjsu_dev/yagarto/bin/../lib/gcc/arm-none-eabi/4.6.2/../../../../arm-none-eabi/lib/thumb/v7m\libc.a(lib_a-rget.o)
 .debug_loc     0x00006fac       0x51 c:/users/trent smith/desktop/sjsu_dev/yagarto/bin/../lib/gcc/arm-none-eabi/4.6.2/../../../../arm-none-eabi/lib/thumb/v7m\libc.a(lib_a-sbrkr.o)
 .debug_loc     0x00006ffd      0x14e c:/users/trent smith/desktop/sjsu_dev/yagarto/bin/../lib/gcc/arm-none-eabi/4.6.2/../../../../arm-none-eabi/lib/thumb/v7m\libc.a(lib_a-setvbuf.o)
 .debug_loc     0x0000714b      0x2ba c:/users/trent smith/desktop/sjsu_dev/yagarto/bin/../lib/gcc/arm-none-eabi/4.6.2/../../../../arm-none-eabi/lib/thumb/v7m\libc.a(lib_a-signal.o)
 .debug_loc     0x00007405       0x8d c:/users/trent smith/desktop/sjsu_dev/yagarto/bin/../lib/gcc/arm-none-eabi/4.6.2/../../../../arm-none-eabi/lib/thumb/v7m\libc.a(lib_a-signalr.o)
 .debug_loc     0x00007492       0xc6 c:/users/trent smith/desktop/sjsu_dev/yagarto/bin/../lib/gcc/arm-none-eabi/4.6.2/../../../../arm-none-eabi/lib/thumb/v7m\libc.a(lib_a-strcasecmp.o)
 .debug_loc     0x00007558       0xb9 c:/users/trent smith/desktop/sjsu_dev/yagarto/bin/../lib/gcc/arm-none-eabi/4.6.2/../../../../arm-none-eabi/lib/thumb/v7m\libc.a(lib_a-strcat.o)
 .debug_loc     0x00007611      0x15b c:/users/trent smith/desktop/sjsu_dev/yagarto/bin/../lib/gcc/arm-none-eabi/4.6.2/../../../../arm-none-eabi/lib/thumb/v7m\libc.a(lib_a-strchr.o)
 .debug_loc     0x0000776c       0x26 c:/users/trent smith/desktop/sjsu_dev/yagarto/bin/../lib/gcc/arm-none-eabi/4.6.2/../../../../arm-none-eabi/lib/thumb/v7m\libc.a(lib_a-strcmp.o)
 .debug_loc     0x00007792       0x13 c:/users/trent smith/desktop/sjsu_dev/yagarto/bin/../lib/gcc/arm-none-eabi/4.6.2/../../../../arm-none-eabi/lib/thumb/v7m\libc.a(lib_a-strcpy.o)
 .debug_loc     0x000077a5       0x13 c:/users/trent smith/desktop/sjsu_dev/yagarto/bin/../lib/gcc/arm-none-eabi/4.6.2/../../../../arm-none-eabi/lib/thumb/v7m\libc.a(lib_a-strlen.o)
 .debug_loc     0x000077b8      0x19a c:/users/trent smith/desktop/sjsu_dev/yagarto/bin/../lib/gcc/arm-none-eabi/4.6.2/../../../../arm-none-eabi/lib/thumb/v7m\libc.a(lib_a-strncasecmp.o)
 .debug_loc     0x00007952      0x16e c:/users/trent smith/desktop/sjsu_dev/yagarto/bin/../lib/gcc/arm-none-eabi/4.6.2/../../../../arm-none-eabi/lib/thumb/v7m\libc.a(lib_a-strncmp.o)
 .debug_loc     0x00007ac0       0xe3 c:/users/trent smith/desktop/sjsu_dev/yagarto/bin/../lib/gcc/arm-none-eabi/4.6.2/../../../../arm-none-eabi/lib/thumb/v7m\libc.a(lib_a-strncpy.o)
 .debug_loc     0x00007ba3       0x85 c:/users/trent smith/desktop/sjsu_dev/yagarto/bin/../lib/gcc/arm-none-eabi/4.6.2/../../../../arm-none-eabi/lib/thumb/v7m\libc.a(lib_a-strpbrk.o)
 .debug_loc     0x00007c28       0xb3 c:/users/trent smith/desktop/sjsu_dev/yagarto/bin/../lib/gcc/arm-none-eabi/4.6.2/../../../../arm-none-eabi/lib/thumb/v7m\libc.a(lib_a-strrchr.o)
 .debug_loc     0x00007cdb      0xb4b c:/users/trent smith/desktop/sjsu_dev/yagarto/bin/../lib/gcc/arm-none-eabi/4.6.2/../../../../arm-none-eabi/lib/thumb/v7m\libc.a(lib_a-strstr.o)
 .debug_loc     0x00008826      0x339 c:/users/trent smith/desktop/sjsu_dev/yagarto/bin/../lib/gcc/arm-none-eabi/4.6.2/../../../../arm-none-eabi/lib/thumb/v7m\libc.a(lib_a-strtol.o)
 .debug_loc     0x00008b5f       0x7a c:/users/trent smith/desktop/sjsu_dev/yagarto/bin/../lib/gcc/arm-none-eabi/4.6.2/../../../../arm-none-eabi/lib/thumb/v7m\libc.a(lib_a-syswrite.o)
 .debug_loc     0x00008bd9       0x13 c:/users/trent smith/desktop/sjsu_dev/yagarto/bin/../lib/gcc/arm-none-eabi/4.6.2/../../../../arm-none-eabi/lib/thumb/v7m\libc.a(lib_a-tolower.o)
 .debug_loc     0x00008bec       0x13 c:/users/trent smith/desktop/sjsu_dev/yagarto/bin/../lib/gcc/arm-none-eabi/4.6.2/../../../../arm-none-eabi/lib/thumb/v7m\libc.a(lib_a-toupper.o)
 .debug_loc     0x00008bff      0x17e c:/users/trent smith/desktop/sjsu_dev/yagarto/bin/../lib/gcc/arm-none-eabi/4.6.2/../../../../arm-none-eabi/lib/thumb/v7m\libc.a(lib_a-vsniprintf.o)
 .debug_loc     0x00008d7d      0x128 c:/users/trent smith/desktop/sjsu_dev/yagarto/bin/../lib/gcc/arm-none-eabi/4.6.2/../../../../arm-none-eabi/lib/thumb/v7m\libc.a(lib_a-wbuf.o)
 .debug_loc     0x00008ea5       0x98 c:/users/trent smith/desktop/sjsu_dev/yagarto/bin/../lib/gcc/arm-none-eabi/4.6.2/../../../../arm-none-eabi/lib/thumb/v7m\libc.a(lib_a-writer.o)
 .debug_loc     0x00008f3d       0x5c c:/users/trent smith/desktop/sjsu_dev/yagarto/bin/../lib/gcc/arm-none-eabi/4.6.2/../../../../arm-none-eabi/lib/thumb/v7m\libc.a(lib_a-wsetup.o)
 .debug_loc     0x00008f99      0x1f5 c:/users/trent smith/desktop/sjsu_dev/yagarto/bin/../lib/gcc/arm-none-eabi/4.6.2/../../../../arm-none-eabi/lib/thumb/v7m\libc.a(lib_a-fflush.o)
 .debug_loc     0x0000918e      0x256 c:/users/trent smith/desktop/sjsu_dev/yagarto/bin/../lib/gcc/arm-none-eabi/4.6.2/../../../../arm-none-eabi/lib/thumb/v7m\libc.a(lib_a-findfp.o)
 .debug_loc     0x000093e4       0xb4 c:/users/trent smith/desktop/sjsu_dev/yagarto/bin/../lib/gcc/arm-none-eabi/4.6.2/../../../../arm-none-eabi/lib/thumb/v7m\libc.a(lib_a-fiprintf.o)
 .debug_loc     0x00009498      0x421 c:/users/trent smith/desktop/sjsu_dev/yagarto/bin/../lib/gcc/arm-none-eabi/4.6.2/../../../../arm-none-eabi/lib/thumb/v7m\libc.a(lib_a-freer.o)
 .debug_loc     0x000098b9      0x5a8 c:/users/trent smith/desktop/sjsu_dev/yagarto/bin/../lib/gcc/arm-none-eabi/4.6.2/../../../../arm-none-eabi/lib/thumb/v7m\libc.a(lib_a-fvwrite.o)
 .debug_loc     0x00009e61      0x259 c:/users/trent smith/desktop/sjsu_dev/yagarto/bin/../lib/gcc/arm-none-eabi/4.6.2/../../../../arm-none-eabi/lib/thumb/v7m\libc.a(lib_a-fwalk.o)
 .debug_loc     0x0000a0ba      0x118 c:/users/trent smith/desktop/sjsu_dev/yagarto/bin/../lib/gcc/arm-none-eabi/4.6.2/../../../../arm-none-eabi/lib/thumb/v7m\libc.a(lib_a-makebuf.o)
 .debug_loc     0x0000a1d2      0x11d c:/users/trent smith/desktop/sjsu_dev/yagarto/bin/../lib/gcc/arm-none-eabi/4.6.2/../../../../arm-none-eabi/lib/thumb/v7m\libc.a(lib_a-mallinfor.o)
 .debug_loc     0x0000a2ef       0x7c c:/users/trent smith/desktop/sjsu_dev/yagarto/bin/../lib/gcc/arm-none-eabi/4.6.2/../../../../arm-none-eabi/lib/thumb/v7m\libc.a(lib_a-malloptr.o)
 .debug_loc     0x0000a36b       0xa7 c:/users/trent smith/desktop/sjsu_dev/yagarto/bin/../lib/gcc/arm-none-eabi/4.6.2/../../../../arm-none-eabi/lib/thumb/v7m\libc.a(lib_a-mallstatsr.o)
 .debug_loc     0x0000a412      0x13f c:/users/trent smith/desktop/sjsu_dev/yagarto/bin/../lib/gcc/arm-none-eabi/4.6.2/../../../../arm-none-eabi/lib/thumb/v7m\libc.a(lib_a-memchr.o)
 .debug_loc     0x0000a551       0xfc c:/users/trent smith/desktop/sjsu_dev/yagarto/bin/../lib/gcc/arm-none-eabi/4.6.2/../../../../arm-none-eabi/lib/thumb/v7m\libc.a(lib_a-putc.o)
 .debug_loc     0x0000a64d      0x1f3 c:/users/trent smith/desktop/sjsu_dev/yagarto/bin/../lib/gcc/arm-none-eabi/4.6.2/../../../../arm-none-eabi/lib/thumb/v7m\libc.a(lib_a-reent.o)
 .debug_loc     0x0000a840       0xb1 c:/users/trent smith/desktop/sjsu_dev/yagarto/bin/../lib/gcc/arm-none-eabi/4.6.2/../../../../arm-none-eabi/lib/thumb/v7m\libc.a(lib_a-refill.o)
 .debug_loc     0x0000a8f1      0x219 c:/users/trent smith/desktop/sjsu_dev/yagarto/bin/../lib/gcc/arm-none-eabi/4.6.2/../../../../arm-none-eabi/lib/thumb/v7m\libc.a(lib_a-stdio.o)
 .debug_loc     0x0000ab0a     0x121a c:/users/trent smith/desktop/sjsu_dev/yagarto/bin/../lib/gcc/arm-none-eabi/4.6.2/../../../../arm-none-eabi/lib/thumb/v7m\libc.a(lib_a-svfiprintf.o)
 .debug_loc     0x0000bd24     0x14dd c:/users/trent smith/desktop/sjsu_dev/yagarto/bin/../lib/gcc/arm-none-eabi/4.6.2/../../../../arm-none-eabi/lib/thumb/v7m\libc.a(lib_a-vfiprintf.o)
 .debug_loc     0x0000d201       0x51 c:/users/trent smith/desktop/sjsu_dev/yagarto/bin/../lib/gcc/arm-none-eabi/4.6.2/../../../../arm-none-eabi/lib/thumb/v7m\libc.a(lib_a-closer.o)
 .debug_loc     0x0000d252       0xa3 c:/users/trent smith/desktop/sjsu_dev/yagarto/bin/../lib/gcc/arm-none-eabi/4.6.2/../../../../arm-none-eabi/lib/thumb/v7m\libc.a(lib_a-fclose.o)
 .debug_loc     0x0000d2f5      0x173 c:/users/trent smith/desktop/sjsu_dev/yagarto/bin/../lib/gcc/arm-none-eabi/4.6.2/../../../../arm-none-eabi/lib/thumb/v7m\libc.a(lib_a-fputwc.o)
 .debug_loc     0x0000d468       0x7a c:/users/trent smith/desktop/sjsu_dev/yagarto/bin/../lib/gcc/arm-none-eabi/4.6.2/../../../../arm-none-eabi/lib/thumb/v7m\libc.a(lib_a-fstatr.o)
 .debug_loc     0x0000d4e2       0x51 c:/users/trent smith/desktop/sjsu_dev/yagarto/bin/../lib/gcc/arm-none-eabi/4.6.2/../../../../arm-none-eabi/lib/thumb/v7m\libc.a(lib_a-isattyr.o)
 .debug_loc     0x0000d533       0xb3 c:/users/trent smith/desktop/sjsu_dev/yagarto/bin/../lib/gcc/arm-none-eabi/4.6.2/../../../../arm-none-eabi/lib/thumb/v7m\libc.a(lib_a-locale.o)
 .debug_loc     0x0000d5e6       0x98 c:/users/trent smith/desktop/sjsu_dev/yagarto/bin/../lib/gcc/arm-none-eabi/4.6.2/../../../../arm-none-eabi/lib/thumb/v7m\libc.a(lib_a-lseekr.o)
 .debug_loc     0x0000d67e       0x98 c:/users/trent smith/desktop/sjsu_dev/yagarto/bin/../lib/gcc/arm-none-eabi/4.6.2/../../../../arm-none-eabi/lib/thumb/v7m\libc.a(lib_a-readr.o)
 .debug_loc     0x0000d716      0x1a1 c:/users/trent smith/desktop/sjsu_dev/yagarto/bin/../lib/gcc/arm-none-eabi/4.6.2/../../../../arm-none-eabi/lib/thumb/v7m\libc.a(lib_a-wcrtomb.o)
 .debug_loc     0x0000d8b7       0xfb c:/users/trent smith/desktop/sjsu_dev/yagarto/bin/../lib/gcc/arm-none-eabi/4.6.2/../../../../arm-none-eabi/lib/thumb/v7m\libc.a(lib_a-wctomb_r.o)

.debug_aranges  0x00000000      0xea8
 .debug_aranges
                0x00000000       0x30 c:/users/trent smith/desktop/sjsu_dev/yagarto/bin/../lib/gcc/arm-none-eabi/4.6.2/../../../../arm-none-eabi/lib/thumb/v7m\libstdc++.a(guard.o)
 .debug_aranges
                0x00000030       0x28 c:/users/trent smith/desktop/sjsu_dev/yagarto/bin/../lib/gcc/arm-none-eabi/4.6.2/../../../../arm-none-eabi/lib/thumb/v7m\libstdc++.a(guard_error.o)
 .debug_aranges
                0x00000058       0x20 c:/users/trent smith/desktop/sjsu_dev/yagarto/bin/../lib/gcc/arm-none-eabi/4.6.2/../../../../arm-none-eabi/lib/thumb/v7m\libstdc++.a(pure.o)
 .debug_aranges
                0x00000078       0x40 c:/users/trent smith/desktop/sjsu_dev/yagarto/bin/../lib/gcc/arm-none-eabi/4.6.2/../../../../arm-none-eabi/lib/thumb/v7m\libstdc++.a(si_class_type_info.o)
 .debug_aranges
                0x000000b8       0x50 c:/users/trent smith/desktop/sjsu_dev/yagarto/bin/../lib/gcc/arm-none-eabi/4.6.2/../../../../arm-none-eabi/lib/thumb/v7m\libstdc++.a(tinfo.o)
 .debug_aranges
                0x00000108       0x50 c:/users/trent smith/desktop/sjsu_dev/yagarto/bin/../lib/gcc/arm-none-eabi/4.6.2/../../../../arm-none-eabi/lib/thumb/v7m\libstdc++.a(class_type_info.o)
 .debug_aranges
                0x00000158       0x38 c:/users/trent smith/desktop/sjsu_dev/yagarto/bin/../lib/gcc/arm-none-eabi/4.6.2/../../../../arm-none-eabi/lib/thumb/v7m\libstdc++.a(eh_alloc.o)
 .debug_aranges
                0x00000190       0x68 c:/users/trent smith/desktop/sjsu_dev/yagarto/bin/../lib/gcc/arm-none-eabi/4.6.2/../../../../arm-none-eabi/lib/thumb/v7m\libstdc++.a(eh_exception.o)
 .debug_aranges
                0x000001f8       0x28 c:/users/trent smith/desktop/sjsu_dev/yagarto/bin/../lib/gcc/arm-none-eabi/4.6.2/../../../../arm-none-eabi/lib/thumb/v7m\libstdc++.a(eh_globals.o)
 .debug_aranges
                0x00000220       0x48 c:/users/trent smith/desktop/sjsu_dev/yagarto/bin/../lib/gcc/arm-none-eabi/4.6.2/../../../../arm-none-eabi/lib/thumb/v7m\libstdc++.a(eh_terminate.o)
 .debug_aranges
                0x00000268       0x30 c:/users/trent smith/desktop/sjsu_dev/yagarto/bin/../lib/gcc/arm-none-eabi/4.6.2/../../../../arm-none-eabi/lib/thumb/v7m\libstdc++.a(eh_throw.o)
 .debug_aranges
                0x00000298       0x30 c:/users/trent smith/desktop/sjsu_dev/yagarto/bin/../lib/gcc/arm-none-eabi/4.6.2/../../../../arm-none-eabi/lib/thumb/v7m\libstdc++.a(eh_arm.o)
 .debug_aranges
                0x000002c8       0x28 c:/users/trent smith/desktop/sjsu_dev/yagarto/bin/../lib/gcc/arm-none-eabi/4.6.2/../../../../arm-none-eabi/lib/thumb/v7m\libstdc++.a(eh_aux_runtime.o)
 .debug_aranges
                0x000002f0       0x28 c:/users/trent smith/desktop/sjsu_dev/yagarto/bin/../lib/gcc/arm-none-eabi/4.6.2/../../../../arm-none-eabi/lib/thumb/v7m\libstdc++.a(eh_call.o)
 .debug_aranges
                0x00000318       0x38 c:/users/trent smith/desktop/sjsu_dev/yagarto/bin/../lib/gcc/arm-none-eabi/4.6.2/../../../../arm-none-eabi/lib/thumb/v7m\libstdc++.a(eh_catch.o)
 .debug_aranges
                0x00000350       0x40 c:/users/trent smith/desktop/sjsu_dev/yagarto/bin/../lib/gcc/arm-none-eabi/4.6.2/../../../../arm-none-eabi/lib/thumb/v7m\libstdc++.a(eh_personality.o)
 .debug_aranges
                0x00000390       0x28 c:/users/trent smith/desktop/sjsu_dev/yagarto/bin/../lib/gcc/arm-none-eabi/4.6.2/../../../../arm-none-eabi/lib/thumb/v7m\libstdc++.a(fundamental_type_info.o)
 .debug_aranges
                0x000003b8       0x38 c:/users/trent smith/desktop/sjsu_dev/yagarto/bin/../lib/gcc/arm-none-eabi/4.6.2/../../../../arm-none-eabi/lib/thumb/v7m\libstdc++.a(pointer_type_info.o)
 .debug_aranges
                0x000003f0       0x30 c:/users/trent smith/desktop/sjsu_dev/yagarto/bin/../lib/gcc/arm-none-eabi/4.6.2/../../../../arm-none-eabi/lib/thumb/v7m\libstdc++.a(bad_cast.o)
 .debug_aranges
                0x00000420       0x30 c:/users/trent smith/desktop/sjsu_dev/yagarto/bin/../lib/gcc/arm-none-eabi/4.6.2/../../../../arm-none-eabi/lib/thumb/v7m\libstdc++.a(bad_typeid.o)
 .debug_aranges
                0x00000450       0x38 c:/users/trent smith/desktop/sjsu_dev/yagarto/bin/../lib/gcc/arm-none-eabi/4.6.2/../../../../arm-none-eabi/lib/thumb/v7m\libstdc++.a(pbase_type_info.o)
 .debug_aranges
                0x00000488       0x20 c:/users/trent smith/desktop/sjsu_dev/yagarto/bin/../lib/gcc/arm-none-eabi/4.6.2/thumb/v7m\libgcc.a(_arm_addsubdf3.o)
 .debug_aranges
                0x000004a8       0x20 c:/users/trent smith/desktop/sjsu_dev/yagarto/bin/../lib/gcc/arm-none-eabi/4.6.2/thumb/v7m\libgcc.a(_arm_fixdfsi.o)
 .debug_aranges
                0x000004c8       0x20 c:/users/trent smith/desktop/sjsu_dev/yagarto/bin/../lib/gcc/arm-none-eabi/4.6.2/thumb/v7m\libgcc.a(_arm_fixunsdfsi.o)
 .debug_aranges
                0x000004e8       0x20 c:/users/trent smith/desktop/sjsu_dev/yagarto/bin/../lib/gcc/arm-none-eabi/4.6.2/thumb/v7m\libgcc.a(_arm_addsubsf3.o)
 .debug_aranges
                0x00000508       0x20 c:/users/trent smith/desktop/sjsu_dev/yagarto/bin/../lib/gcc/arm-none-eabi/4.6.2/thumb/v7m\libgcc.a(_arm_muldivsf3.o)
 .debug_aranges
                0x00000528       0x20 c:/users/trent smith/desktop/sjsu_dev/yagarto/bin/../lib/gcc/arm-none-eabi/4.6.2/thumb/v7m\libgcc.a(_arm_fixsfsi.o)
 .debug_aranges
                0x00000548       0x20 c:/users/trent smith/desktop/sjsu_dev/yagarto/bin/../lib/gcc/arm-none-eabi/4.6.2/thumb/v7m\libgcc.a(_arm_fixunssfsi.o)
 .debug_aranges
                0x00000568       0x20 c:/users/trent smith/desktop/sjsu_dev/yagarto/bin/../lib/gcc/arm-none-eabi/4.6.2/thumb/v7m\libgcc.a(unwind-arm.o)
 .debug_aranges
                0x00000588       0x20 c:/users/trent smith/desktop/sjsu_dev/yagarto/bin/../lib/gcc/arm-none-eabi/4.6.2/thumb/v7m\libgcc.a(libunwind.o)
 .debug_aranges
                0x000005a8       0x20 c:/users/trent smith/desktop/sjsu_dev/yagarto/bin/../lib/gcc/arm-none-eabi/4.6.2/thumb/v7m\libgcc.a(pr-support.o)
 .debug_aranges
                0x000005c8       0x20 c:/users/trent smith/desktop/sjsu_dev/yagarto/bin/../lib/gcc/arm-none-eabi/4.6.2/../../../../arm-none-eabi/lib/thumb/v7m\libc.a(lib_a-abort.o)
 .debug_aranges
                0x000005e8       0x20 c:/users/trent smith/desktop/sjsu_dev/yagarto/bin/../lib/gcc/arm-none-eabi/4.6.2/../../../../arm-none-eabi/lib/thumb/v7m\libc.a(lib_a-atoi.o)
 .debug_aranges
                0x00000608       0x20 c:/users/trent smith/desktop/sjsu_dev/yagarto/bin/../lib/gcc/arm-none-eabi/4.6.2/../../../../arm-none-eabi/lib/thumb/v7m\libc.a(lib_a-init.o)
 .debug_aranges
                0x00000628       0x20 c:/users/trent smith/desktop/sjsu_dev/yagarto/bin/../lib/gcc/arm-none-eabi/4.6.2/../../../../arm-none-eabi/lib/thumb/v7m\libc.a(lib_a-isalnum.o)
 .debug_aranges
                0x00000648       0x20 c:/users/trent smith/desktop/sjsu_dev/yagarto/bin/../lib/gcc/arm-none-eabi/4.6.2/../../../../arm-none-eabi/lib/thumb/v7m\libc.a(lib_a-isalpha.o)
 .debug_aranges
                0x00000668       0x20 c:/users/trent smith/desktop/sjsu_dev/yagarto/bin/../lib/gcc/arm-none-eabi/4.6.2/../../../../arm-none-eabi/lib/thumb/v7m\libc.a(lib_a-malloc.o)
 .debug_aranges
                0x00000688       0x20 c:/users/trent smith/desktop/sjsu_dev/yagarto/bin/../lib/gcc/arm-none-eabi/4.6.2/../../../../arm-none-eabi/lib/thumb/v7m\libc.a(lib_a-mallocr.o)
 .debug_aranges
                0x000006a8       0x20 c:/users/trent smith/desktop/sjsu_dev/yagarto/bin/../lib/gcc/arm-none-eabi/4.6.2/../../../../arm-none-eabi/lib/thumb/v7m\libc.a(lib_a-memcmp.o)
 .debug_aranges
                0x000006c8       0x20 c:/users/trent smith/desktop/sjsu_dev/yagarto/bin/../lib/gcc/arm-none-eabi/4.6.2/../../../../arm-none-eabi/lib/thumb/v7m\libc.a(lib_a-memcpy.o)
 .debug_aranges
                0x000006e8       0x20 c:/users/trent smith/desktop/sjsu_dev/yagarto/bin/../lib/gcc/arm-none-eabi/4.6.2/../../../../arm-none-eabi/lib/thumb/v7m\libc.a(lib_a-memmove.o)
 .debug_aranges
                0x00000708       0x20 c:/users/trent smith/desktop/sjsu_dev/yagarto/bin/../lib/gcc/arm-none-eabi/4.6.2/../../../../arm-none-eabi/lib/thumb/v7m\libc.a(lib_a-memset.o)
 .debug_aranges
                0x00000728       0x20 c:/users/trent smith/desktop/sjsu_dev/yagarto/bin/../lib/gcc/arm-none-eabi/4.6.2/../../../../arm-none-eabi/lib/thumb/v7m\libc.a(lib_a-mlock.o)
 .debug_aranges
                0x00000748       0x20 c:/users/trent smith/desktop/sjsu_dev/yagarto/bin/../lib/gcc/arm-none-eabi/4.6.2/../../../../arm-none-eabi/lib/thumb/v7m\libc.a(lib_a-mstats.o)
 .debug_aranges
                0x00000768       0x20 c:/users/trent smith/desktop/sjsu_dev/yagarto/bin/../lib/gcc/arm-none-eabi/4.6.2/../../../../arm-none-eabi/lib/thumb/v7m\libc.a(lib_a-putchar.o)
 .debug_aranges
                0x00000788       0x20 c:/users/trent smith/desktop/sjsu_dev/yagarto/bin/../lib/gcc/arm-none-eabi/4.6.2/../../../../arm-none-eabi/lib/thumb/v7m\libc.a(lib_a-puts.o)
 .debug_aranges
                0x000007a8       0x20 c:/users/trent smith/desktop/sjsu_dev/yagarto/bin/../lib/gcc/arm-none-eabi/4.6.2/../../../../arm-none-eabi/lib/thumb/v7m\libc.a(lib_a-realloc.o)
 .debug_aranges
                0x000007c8       0x20 c:/users/trent smith/desktop/sjsu_dev/yagarto/bin/../lib/gcc/arm-none-eabi/4.6.2/../../../../arm-none-eabi/lib/thumb/v7m\libc.a(lib_a-reallocr.o)
 .debug_aranges
                0x000007e8       0x20 c:/users/trent smith/desktop/sjsu_dev/yagarto/bin/../lib/gcc/arm-none-eabi/4.6.2/../../../../arm-none-eabi/lib/thumb/v7m\libc.a(lib_a-rget.o)
 .debug_aranges
                0x00000808       0x20 c:/users/trent smith/desktop/sjsu_dev/yagarto/bin/../lib/gcc/arm-none-eabi/4.6.2/../../../../arm-none-eabi/lib/thumb/v7m\libc.a(lib_a-sbrkr.o)
 .debug_aranges
                0x00000828       0x20 c:/users/trent smith/desktop/sjsu_dev/yagarto/bin/../lib/gcc/arm-none-eabi/4.6.2/../../../../arm-none-eabi/lib/thumb/v7m\libc.a(lib_a-setvbuf.o)
 .debug_aranges
                0x00000848       0x20 c:/users/trent smith/desktop/sjsu_dev/yagarto/bin/../lib/gcc/arm-none-eabi/4.6.2/../../../../arm-none-eabi/lib/thumb/v7m\libc.a(lib_a-signal.o)
 .debug_aranges
                0x00000868       0x20 c:/users/trent smith/desktop/sjsu_dev/yagarto/bin/../lib/gcc/arm-none-eabi/4.6.2/../../../../arm-none-eabi/lib/thumb/v7m\libc.a(lib_a-signalr.o)
 .debug_aranges
                0x00000888       0x20 c:/users/trent smith/desktop/sjsu_dev/yagarto/bin/../lib/gcc/arm-none-eabi/4.6.2/../../../../arm-none-eabi/lib/thumb/v7m\libc.a(lib_a-strcasecmp.o)
 .debug_aranges
                0x000008a8       0x20 c:/users/trent smith/desktop/sjsu_dev/yagarto/bin/../lib/gcc/arm-none-eabi/4.6.2/../../../../arm-none-eabi/lib/thumb/v7m\libc.a(lib_a-strcat.o)
 .debug_aranges
                0x000008c8       0x20 c:/users/trent smith/desktop/sjsu_dev/yagarto/bin/../lib/gcc/arm-none-eabi/4.6.2/../../../../arm-none-eabi/lib/thumb/v7m\libc.a(lib_a-strchr.o)
 .debug_aranges
                0x000008e8       0x20 c:/users/trent smith/desktop/sjsu_dev/yagarto/bin/../lib/gcc/arm-none-eabi/4.6.2/../../../../arm-none-eabi/lib/thumb/v7m\libc.a(lib_a-strcmp.o)
 .debug_aranges
                0x00000908       0x20 c:/users/trent smith/desktop/sjsu_dev/yagarto/bin/../lib/gcc/arm-none-eabi/4.6.2/../../../../arm-none-eabi/lib/thumb/v7m\libc.a(lib_a-strcpy.o)
 .debug_aranges
                0x00000928       0x20 c:/users/trent smith/desktop/sjsu_dev/yagarto/bin/../lib/gcc/arm-none-eabi/4.6.2/../../../../arm-none-eabi/lib/thumb/v7m\libc.a(lib_a-strlen.o)
 .debug_aranges
                0x00000948       0x20 c:/users/trent smith/desktop/sjsu_dev/yagarto/bin/../lib/gcc/arm-none-eabi/4.6.2/../../../../arm-none-eabi/lib/thumb/v7m\libc.a(lib_a-strncasecmp.o)
 .debug_aranges
                0x00000968       0x20 c:/users/trent smith/desktop/sjsu_dev/yagarto/bin/../lib/gcc/arm-none-eabi/4.6.2/../../../../arm-none-eabi/lib/thumb/v7m\libc.a(lib_a-strncmp.o)
 .debug_aranges
                0x00000988       0x20 c:/users/trent smith/desktop/sjsu_dev/yagarto/bin/../lib/gcc/arm-none-eabi/4.6.2/../../../../arm-none-eabi/lib/thumb/v7m\libc.a(lib_a-strncpy.o)
 .debug_aranges
                0x000009a8       0x20 c:/users/trent smith/desktop/sjsu_dev/yagarto/bin/../lib/gcc/arm-none-eabi/4.6.2/../../../../arm-none-eabi/lib/thumb/v7m\libc.a(lib_a-strpbrk.o)
 .debug_aranges
                0x000009c8       0x20 c:/users/trent smith/desktop/sjsu_dev/yagarto/bin/../lib/gcc/arm-none-eabi/4.6.2/../../../../arm-none-eabi/lib/thumb/v7m\libc.a(lib_a-strrchr.o)
 .debug_aranges
                0x000009e8       0x20 c:/users/trent smith/desktop/sjsu_dev/yagarto/bin/../lib/gcc/arm-none-eabi/4.6.2/../../../../arm-none-eabi/lib/thumb/v7m\libc.a(lib_a-strstr.o)
 .debug_aranges
                0x00000a08       0x20 c:/users/trent smith/desktop/sjsu_dev/yagarto/bin/../lib/gcc/arm-none-eabi/4.6.2/../../../../arm-none-eabi/lib/thumb/v7m\libc.a(lib_a-strtol.o)
 .debug_aranges
                0x00000a28       0x20 c:/users/trent smith/desktop/sjsu_dev/yagarto/bin/../lib/gcc/arm-none-eabi/4.6.2/../../../../arm-none-eabi/lib/thumb/v7m\libc.a(lib_a-syswrite.o)
 .debug_aranges
                0x00000a48       0x20 c:/users/trent smith/desktop/sjsu_dev/yagarto/bin/../lib/gcc/arm-none-eabi/4.6.2/../../../../arm-none-eabi/lib/thumb/v7m\libc.a(lib_a-tolower.o)
 .debug_aranges
                0x00000a68       0x20 c:/users/trent smith/desktop/sjsu_dev/yagarto/bin/../lib/gcc/arm-none-eabi/4.6.2/../../../../arm-none-eabi/lib/thumb/v7m\libc.a(lib_a-toupper.o)
 .debug_aranges
                0x00000a88       0x20 c:/users/trent smith/desktop/sjsu_dev/yagarto/bin/../lib/gcc/arm-none-eabi/4.6.2/../../../../arm-none-eabi/lib/thumb/v7m\libc.a(lib_a-vsniprintf.o)
 .debug_aranges
                0x00000aa8       0x20 c:/users/trent smith/desktop/sjsu_dev/yagarto/bin/../lib/gcc/arm-none-eabi/4.6.2/../../../../arm-none-eabi/lib/thumb/v7m\libc.a(lib_a-wbuf.o)
 .debug_aranges
                0x00000ac8       0x20 c:/users/trent smith/desktop/sjsu_dev/yagarto/bin/../lib/gcc/arm-none-eabi/4.6.2/../../../../arm-none-eabi/lib/thumb/v7m\libc.a(lib_a-writer.o)
 .debug_aranges
                0x00000ae8       0x20 c:/users/trent smith/desktop/sjsu_dev/yagarto/bin/../lib/gcc/arm-none-eabi/4.6.2/../../../../arm-none-eabi/lib/thumb/v7m\libc.a(lib_a-wsetup.o)
 .debug_aranges
                0x00000b08       0x20 c:/users/trent smith/desktop/sjsu_dev/yagarto/bin/../lib/gcc/arm-none-eabi/4.6.2/../../../../arm-none-eabi/lib/thumb/v7m\libc.a(lib_a-fflush.o)
 .debug_aranges
                0x00000b28       0x20 c:/users/trent smith/desktop/sjsu_dev/yagarto/bin/../lib/gcc/arm-none-eabi/4.6.2/../../../../arm-none-eabi/lib/thumb/v7m\libc.a(lib_a-findfp.o)
 .debug_aranges
                0x00000b48       0x20 c:/users/trent smith/desktop/sjsu_dev/yagarto/bin/../lib/gcc/arm-none-eabi/4.6.2/../../../../arm-none-eabi/lib/thumb/v7m\libc.a(lib_a-fiprintf.o)
 .debug_aranges
                0x00000b68       0x20 c:/users/trent smith/desktop/sjsu_dev/yagarto/bin/../lib/gcc/arm-none-eabi/4.6.2/../../../../arm-none-eabi/lib/thumb/v7m\libc.a(lib_a-freer.o)
 .debug_aranges
                0x00000b88       0x20 c:/users/trent smith/desktop/sjsu_dev/yagarto/bin/../lib/gcc/arm-none-eabi/4.6.2/../../../../arm-none-eabi/lib/thumb/v7m\libc.a(lib_a-fvwrite.o)
 .debug_aranges
                0x00000ba8       0x20 c:/users/trent smith/desktop/sjsu_dev/yagarto/bin/../lib/gcc/arm-none-eabi/4.6.2/../../../../arm-none-eabi/lib/thumb/v7m\libc.a(lib_a-fwalk.o)
 .debug_aranges
                0x00000bc8       0x20 c:/users/trent smith/desktop/sjsu_dev/yagarto/bin/../lib/gcc/arm-none-eabi/4.6.2/../../../../arm-none-eabi/lib/thumb/v7m\libc.a(lib_a-makebuf.o)
 .debug_aranges
                0x00000be8       0x20 c:/users/trent smith/desktop/sjsu_dev/yagarto/bin/../lib/gcc/arm-none-eabi/4.6.2/../../../../arm-none-eabi/lib/thumb/v7m\libc.a(lib_a-mallinfor.o)
 .debug_aranges
                0x00000c08       0x20 c:/users/trent smith/desktop/sjsu_dev/yagarto/bin/../lib/gcc/arm-none-eabi/4.6.2/../../../../arm-none-eabi/lib/thumb/v7m\libc.a(lib_a-malloptr.o)
 .debug_aranges
                0x00000c28       0x20 c:/users/trent smith/desktop/sjsu_dev/yagarto/bin/../lib/gcc/arm-none-eabi/4.6.2/../../../../arm-none-eabi/lib/thumb/v7m\libc.a(lib_a-mallstatsr.o)
 .debug_aranges
                0x00000c48       0x20 c:/users/trent smith/desktop/sjsu_dev/yagarto/bin/../lib/gcc/arm-none-eabi/4.6.2/../../../../arm-none-eabi/lib/thumb/v7m\libc.a(lib_a-memchr.o)
 .debug_aranges
                0x00000c68       0x20 c:/users/trent smith/desktop/sjsu_dev/yagarto/bin/../lib/gcc/arm-none-eabi/4.6.2/../../../../arm-none-eabi/lib/thumb/v7m\libc.a(lib_a-putc.o)
 .debug_aranges
                0x00000c88       0x20 c:/users/trent smith/desktop/sjsu_dev/yagarto/bin/../lib/gcc/arm-none-eabi/4.6.2/../../../../arm-none-eabi/lib/thumb/v7m\libc.a(lib_a-reent.o)
 .debug_aranges
                0x00000ca8       0x20 c:/users/trent smith/desktop/sjsu_dev/yagarto/bin/../lib/gcc/arm-none-eabi/4.6.2/../../../../arm-none-eabi/lib/thumb/v7m\libc.a(lib_a-refill.o)
 .debug_aranges
                0x00000cc8       0x20 c:/users/trent smith/desktop/sjsu_dev/yagarto/bin/../lib/gcc/arm-none-eabi/4.6.2/../../../../arm-none-eabi/lib/thumb/v7m\libc.a(lib_a-stdio.o)
 .debug_aranges
                0x00000ce8       0x20 c:/users/trent smith/desktop/sjsu_dev/yagarto/bin/../lib/gcc/arm-none-eabi/4.6.2/../../../../arm-none-eabi/lib/thumb/v7m\libc.a(lib_a-svfiprintf.o)
 .debug_aranges
                0x00000d08       0x20 c:/users/trent smith/desktop/sjsu_dev/yagarto/bin/../lib/gcc/arm-none-eabi/4.6.2/../../../../arm-none-eabi/lib/thumb/v7m\libc.a(lib_a-vfiprintf.o)
 .debug_aranges
                0x00000d28       0x20 c:/users/trent smith/desktop/sjsu_dev/yagarto/bin/../lib/gcc/arm-none-eabi/4.6.2/../../../../arm-none-eabi/lib/thumb/v7m\libc.a(lib_a-closer.o)
 .debug_aranges
                0x00000d48       0x20 c:/users/trent smith/desktop/sjsu_dev/yagarto/bin/../lib/gcc/arm-none-eabi/4.6.2/../../../../arm-none-eabi/lib/thumb/v7m\libc.a(lib_a-fclose.o)
 .debug_aranges
                0x00000d68       0x20 c:/users/trent smith/desktop/sjsu_dev/yagarto/bin/../lib/gcc/arm-none-eabi/4.6.2/../../../../arm-none-eabi/lib/thumb/v7m\libc.a(lib_a-fputwc.o)
 .debug_aranges
                0x00000d88       0x20 c:/users/trent smith/desktop/sjsu_dev/yagarto/bin/../lib/gcc/arm-none-eabi/4.6.2/../../../../arm-none-eabi/lib/thumb/v7m\libc.a(lib_a-fstatr.o)
 .debug_aranges
                0x00000da8       0x20 c:/users/trent smith/desktop/sjsu_dev/yagarto/bin/../lib/gcc/arm-none-eabi/4.6.2/../../../../arm-none-eabi/lib/thumb/v7m\libc.a(lib_a-isattyr.o)
 .debug_aranges
                0x00000dc8       0x20 c:/users/trent smith/desktop/sjsu_dev/yagarto/bin/../lib/gcc/arm-none-eabi/4.6.2/../../../../arm-none-eabi/lib/thumb/v7m\libc.a(lib_a-locale.o)
 .debug_aranges
                0x00000de8       0x20 c:/users/trent smith/desktop/sjsu_dev/yagarto/bin/../lib/gcc/arm-none-eabi/4.6.2/../../../../arm-none-eabi/lib/thumb/v7m\libc.a(lib_a-lseekr.o)
 .debug_aranges
                0x00000e08       0x20 c:/users/trent smith/desktop/sjsu_dev/yagarto/bin/../lib/gcc/arm-none-eabi/4.6.2/../../../../arm-none-eabi/lib/thumb/v7m\libc.a(lib_a-readr.o)
 .debug_aranges
                0x00000e28       0x20 c:/users/trent smith/desktop/sjsu_dev/yagarto/bin/../lib/gcc/arm-none-eabi/4.6.2/../../../../arm-none-eabi/lib/thumb/v7m\libc.a(lib_a-wcrtomb.o)
 .debug_aranges
                0x00000e48       0x20 c:/users/trent smith/desktop/sjsu_dev/yagarto/bin/../lib/gcc/arm-none-eabi/4.6.2/../../../../arm-none-eabi/lib/thumb/v7m\libc.a(lib_a-wctomb_r.o)
 .debug_aranges
                0x00000e68       0x20 c:/users/trent smith/desktop/sjsu_dev/yagarto/bin/../lib/gcc/arm-none-eabi/4.6.2/thumb/v7m\libgcc.a(_udivsi3.o)
 .debug_aranges
                0x00000e88       0x20 c:/users/trent smith/desktop/sjsu_dev/yagarto/bin/../lib/gcc/arm-none-eabi/4.6.2/thumb/v7m\libgcc.a(_dvmd_tls.o)

.debug_ranges   0x00000000     0x10a8
 .debug_ranges  0x00000000       0x50 c:/users/trent smith/desktop/sjsu_dev/yagarto/bin/../lib/gcc/arm-none-eabi/4.6.2/../../../../arm-none-eabi/lib/thumb/v7m\libstdc++.a(guard.o)
 .debug_ranges  0x00000050       0x30 c:/users/trent smith/desktop/sjsu_dev/yagarto/bin/../lib/gcc/arm-none-eabi/4.6.2/../../../../arm-none-eabi/lib/thumb/v7m\libstdc++.a(guard_error.o)
 .debug_ranges  0x00000080       0x10 c:/users/trent smith/desktop/sjsu_dev/yagarto/bin/../lib/gcc/arm-none-eabi/4.6.2/../../../../arm-none-eabi/lib/thumb/v7m\libstdc++.a(pure.o)
 .debug_ranges  0x00000090       0x60 c:/users/trent smith/desktop/sjsu_dev/yagarto/bin/../lib/gcc/arm-none-eabi/4.6.2/../../../../arm-none-eabi/lib/thumb/v7m\libstdc++.a(si_class_type_info.o)
 .debug_ranges  0x000000f0       0x58 c:/users/trent smith/desktop/sjsu_dev/yagarto/bin/../lib/gcc/arm-none-eabi/4.6.2/../../../../arm-none-eabi/lib/thumb/v7m\libstdc++.a(tinfo.o)
 .debug_ranges  0x00000148       0x90 c:/users/trent smith/desktop/sjsu_dev/yagarto/bin/../lib/gcc/arm-none-eabi/4.6.2/../../../../arm-none-eabi/lib/thumb/v7m\libstdc++.a(class_type_info.o)
 .debug_ranges  0x000001d8       0x98 c:/users/trent smith/desktop/sjsu_dev/yagarto/bin/../lib/gcc/arm-none-eabi/4.6.2/../../../../arm-none-eabi/lib/thumb/v7m\libstdc++.a(eh_alloc.o)
 .debug_ranges  0x00000270       0xd0 c:/users/trent smith/desktop/sjsu_dev/yagarto/bin/../lib/gcc/arm-none-eabi/4.6.2/../../../../arm-none-eabi/lib/thumb/v7m\libstdc++.a(eh_exception.o)
 .debug_ranges  0x00000340       0x18 c:/users/trent smith/desktop/sjsu_dev/yagarto/bin/../lib/gcc/arm-none-eabi/4.6.2/../../../../arm-none-eabi/lib/thumb/v7m\libstdc++.a(eh_globals.o)
 .debug_ranges  0x00000358       0x38 c:/users/trent smith/desktop/sjsu_dev/yagarto/bin/../lib/gcc/arm-none-eabi/4.6.2/../../../../arm-none-eabi/lib/thumb/v7m\libstdc++.a(eh_terminate.o)
 .debug_ranges  0x00000390       0xc8 c:/users/trent smith/desktop/sjsu_dev/yagarto/bin/../lib/gcc/arm-none-eabi/4.6.2/../../../../arm-none-eabi/lib/thumb/v7m\libstdc++.a(eh_throw.o)
 .debug_ranges  0x00000458      0x110 c:/users/trent smith/desktop/sjsu_dev/yagarto/bin/../lib/gcc/arm-none-eabi/4.6.2/../../../../arm-none-eabi/lib/thumb/v7m\libstdc++.a(eh_arm.o)
 .debug_ranges  0x00000568       0x48 c:/users/trent smith/desktop/sjsu_dev/yagarto/bin/../lib/gcc/arm-none-eabi/4.6.2/../../../../arm-none-eabi/lib/thumb/v7m\libstdc++.a(eh_aux_runtime.o)
 .debug_ranges  0x000005b0       0xb8 c:/users/trent smith/desktop/sjsu_dev/yagarto/bin/../lib/gcc/arm-none-eabi/4.6.2/../../../../arm-none-eabi/lib/thumb/v7m\libstdc++.a(eh_call.o)
 .debug_ranges  0x00000668       0xb8 c:/users/trent smith/desktop/sjsu_dev/yagarto/bin/../lib/gcc/arm-none-eabi/4.6.2/../../../../arm-none-eabi/lib/thumb/v7m\libstdc++.a(eh_catch.o)
 .debug_ranges  0x00000720      0x308 c:/users/trent smith/desktop/sjsu_dev/yagarto/bin/../lib/gcc/arm-none-eabi/4.6.2/../../../../arm-none-eabi/lib/thumb/v7m\libstdc++.a(eh_personality.o)
 .debug_ranges  0x00000a28       0x30 c:/users/trent smith/desktop/sjsu_dev/yagarto/bin/../lib/gcc/arm-none-eabi/4.6.2/../../../../arm-none-eabi/lib/thumb/v7m\libstdc++.a(fundamental_type_info.o)
 .debug_ranges  0x00000a58       0x40 c:/users/trent smith/desktop/sjsu_dev/yagarto/bin/../lib/gcc/arm-none-eabi/4.6.2/../../../../arm-none-eabi/lib/thumb/v7m\libstdc++.a(pointer_type_info.o)
 .debug_ranges  0x00000a98       0x38 c:/users/trent smith/desktop/sjsu_dev/yagarto/bin/../lib/gcc/arm-none-eabi/4.6.2/../../../../arm-none-eabi/lib/thumb/v7m\libstdc++.a(bad_cast.o)
 .debug_ranges  0x00000ad0       0x38 c:/users/trent smith/desktop/sjsu_dev/yagarto/bin/../lib/gcc/arm-none-eabi/4.6.2/../../../../arm-none-eabi/lib/thumb/v7m\libstdc++.a(bad_typeid.o)
 .debug_ranges  0x00000b08       0x60 c:/users/trent smith/desktop/sjsu_dev/yagarto/bin/../lib/gcc/arm-none-eabi/4.6.2/../../../../arm-none-eabi/lib/thumb/v7m\libstdc++.a(pbase_type_info.o)
 .debug_ranges  0x00000b68      0x140 c:/users/trent smith/desktop/sjsu_dev/yagarto/bin/../lib/gcc/arm-none-eabi/4.6.2/thumb/v7m\libgcc.a(unwind-arm.o)
 .debug_ranges  0x00000ca8       0x30 c:/users/trent smith/desktop/sjsu_dev/yagarto/bin/../lib/gcc/arm-none-eabi/4.6.2/thumb/v7m\libgcc.a(pr-support.o)
 .debug_ranges  0x00000cd8       0x40 c:/users/trent smith/desktop/sjsu_dev/yagarto/bin/../lib/gcc/arm-none-eabi/4.6.2/../../../../arm-none-eabi/lib/thumb/v7m\libc.a(lib_a-mallocr.o)
 .debug_ranges  0x00000d18       0xd0 c:/users/trent smith/desktop/sjsu_dev/yagarto/bin/../lib/gcc/arm-none-eabi/4.6.2/../../../../arm-none-eabi/lib/thumb/v7m\libc.a(lib_a-reallocr.o)
 .debug_ranges  0x00000de8       0x40 c:/users/trent smith/desktop/sjsu_dev/yagarto/bin/../lib/gcc/arm-none-eabi/4.6.2/../../../../arm-none-eabi/lib/thumb/v7m\libc.a(lib_a-strcasecmp.o)
 .debug_ranges  0x00000e28       0x20 c:/users/trent smith/desktop/sjsu_dev/yagarto/bin/../lib/gcc/arm-none-eabi/4.6.2/../../../../arm-none-eabi/lib/thumb/v7m\libc.a(lib_a-strcat.o)
 .debug_ranges  0x00000e48       0x58 c:/users/trent smith/desktop/sjsu_dev/yagarto/bin/../lib/gcc/arm-none-eabi/4.6.2/../../../../arm-none-eabi/lib/thumb/v7m\libc.a(lib_a-strncasecmp.o)
 .debug_ranges  0x00000ea0       0xa8 c:/users/trent smith/desktop/sjsu_dev/yagarto/bin/../lib/gcc/arm-none-eabi/4.6.2/../../../../arm-none-eabi/lib/thumb/v7m\libc.a(lib_a-strstr.o)
 .debug_ranges  0x00000f48       0x68 c:/users/trent smith/desktop/sjsu_dev/yagarto/bin/../lib/gcc/arm-none-eabi/4.6.2/../../../../arm-none-eabi/lib/thumb/v7m\libc.a(lib_a-fflush.o)
 .debug_ranges  0x00000fb0       0x48 c:/users/trent smith/desktop/sjsu_dev/yagarto/bin/../lib/gcc/arm-none-eabi/4.6.2/../../../../arm-none-eabi/lib/thumb/v7m\libc.a(lib_a-svfiprintf.o)
 .debug_ranges  0x00000ff8       0x80 c:/users/trent smith/desktop/sjsu_dev/yagarto/bin/../lib/gcc/arm-none-eabi/4.6.2/../../../../arm-none-eabi/lib/thumb/v7m\libc.a(lib_a-vfiprintf.o)
 .debug_ranges  0x00001078       0x30 c:/users/trent smith/desktop/sjsu_dev/yagarto/bin/../lib/gcc/arm-none-eabi/4.6.2/../../../../arm-none-eabi/lib/thumb/v7m\libc.a(lib_a-fputwc.o)

.debug_line     0x00000000     0xaa76
 .debug_line    0x00000000      0x201 c:/users/trent smith/desktop/sjsu_dev/yagarto/bin/../lib/gcc/arm-none-eabi/4.6.2/../../../../arm-none-eabi/lib/thumb/v7m\libstdc++.a(guard.o)
 .debug_line    0x00000201       0xe3 c:/users/trent smith/desktop/sjsu_dev/yagarto/bin/../lib/gcc/arm-none-eabi/4.6.2/../../../../arm-none-eabi/lib/thumb/v7m\libstdc++.a(guard_error.o)
 .debug_line    0x000002e4       0xc2 c:/users/trent smith/desktop/sjsu_dev/yagarto/bin/../lib/gcc/arm-none-eabi/4.6.2/../../../../arm-none-eabi/lib/thumb/v7m\libstdc++.a(pure.o)
 .debug_line    0x000003a6      0x186 c:/users/trent smith/desktop/sjsu_dev/yagarto/bin/../lib/gcc/arm-none-eabi/4.6.2/../../../../arm-none-eabi/lib/thumb/v7m\libstdc++.a(si_class_type_info.o)
 .debug_line    0x0000052c      0x15a c:/users/trent smith/desktop/sjsu_dev/yagarto/bin/../lib/gcc/arm-none-eabi/4.6.2/../../../../arm-none-eabi/lib/thumb/v7m\libstdc++.a(tinfo.o)
 .debug_line    0x00000686      0x1d6 c:/users/trent smith/desktop/sjsu_dev/yagarto/bin/../lib/gcc/arm-none-eabi/4.6.2/../../../../arm-none-eabi/lib/thumb/v7m\libstdc++.a(class_type_info.o)
 .debug_line    0x0000085c      0x34f c:/users/trent smith/desktop/sjsu_dev/yagarto/bin/../lib/gcc/arm-none-eabi/4.6.2/../../../../arm-none-eabi/lib/thumb/v7m\libstdc++.a(eh_alloc.o)
 .debug_line    0x00000bab      0x1d3 c:/users/trent smith/desktop/sjsu_dev/yagarto/bin/../lib/gcc/arm-none-eabi/4.6.2/../../../../arm-none-eabi/lib/thumb/v7m\libstdc++.a(eh_exception.o)
 .debug_line    0x00000d7e      0x1d9 c:/users/trent smith/desktop/sjsu_dev/yagarto/bin/../lib/gcc/arm-none-eabi/4.6.2/../../../../arm-none-eabi/lib/thumb/v7m\libstdc++.a(eh_globals.o)
 .debug_line    0x00000f57      0x213 c:/users/trent smith/desktop/sjsu_dev/yagarto/bin/../lib/gcc/arm-none-eabi/4.6.2/../../../../arm-none-eabi/lib/thumb/v7m\libstdc++.a(eh_terminate.o)
 .debug_line    0x0000116a       0xbb c:/users/trent smith/desktop/sjsu_dev/yagarto/bin/../lib/gcc/arm-none-eabi/4.6.2/../../../../arm-none-eabi/lib/thumb/v7m\libstdc++.a(eh_term_handler.o)
 .debug_line    0x00001225      0x226 c:/users/trent smith/desktop/sjsu_dev/yagarto/bin/../lib/gcc/arm-none-eabi/4.6.2/../../../../arm-none-eabi/lib/thumb/v7m\libstdc++.a(eh_throw.o)
 .debug_line    0x0000144b       0xbb c:/users/trent smith/desktop/sjsu_dev/yagarto/bin/../lib/gcc/arm-none-eabi/4.6.2/../../../../arm-none-eabi/lib/thumb/v7m\libstdc++.a(eh_unex_handler.o)
 .debug_line    0x00001506      0x224 c:/users/trent smith/desktop/sjsu_dev/yagarto/bin/../lib/gcc/arm-none-eabi/4.6.2/../../../../arm-none-eabi/lib/thumb/v7m\libstdc++.a(eh_arm.o)
 .debug_line    0x0000172a      0x1ef c:/users/trent smith/desktop/sjsu_dev/yagarto/bin/../lib/gcc/arm-none-eabi/4.6.2/../../../../arm-none-eabi/lib/thumb/v7m\libstdc++.a(eh_aux_runtime.o)
 .debug_line    0x00001919      0x27f c:/users/trent smith/desktop/sjsu_dev/yagarto/bin/../lib/gcc/arm-none-eabi/4.6.2/../../../../arm-none-eabi/lib/thumb/v7m\libstdc++.a(eh_call.o)
 .debug_line    0x00001b98      0x280 c:/users/trent smith/desktop/sjsu_dev/yagarto/bin/../lib/gcc/arm-none-eabi/4.6.2/../../../../arm-none-eabi/lib/thumb/v7m\libstdc++.a(eh_catch.o)
 .debug_line    0x00001e18      0x5b1 c:/users/trent smith/desktop/sjsu_dev/yagarto/bin/../lib/gcc/arm-none-eabi/4.6.2/../../../../arm-none-eabi/lib/thumb/v7m\libstdc++.a(eh_personality.o)
 .debug_line    0x000023c9       0xf3 c:/users/trent smith/desktop/sjsu_dev/yagarto/bin/../lib/gcc/arm-none-eabi/4.6.2/../../../../arm-none-eabi/lib/thumb/v7m\libstdc++.a(fundamental_type_info.o)
 .debug_line    0x000024bc      0x128 c:/users/trent smith/desktop/sjsu_dev/yagarto/bin/../lib/gcc/arm-none-eabi/4.6.2/../../../../arm-none-eabi/lib/thumb/v7m\libstdc++.a(pointer_type_info.o)
 .debug_line    0x000025e4       0xe4 c:/users/trent smith/desktop/sjsu_dev/yagarto/bin/../lib/gcc/arm-none-eabi/4.6.2/../../../../arm-none-eabi/lib/thumb/v7m\libstdc++.a(bad_cast.o)
 .debug_line    0x000026c8       0xe6 c:/users/trent smith/desktop/sjsu_dev/yagarto/bin/../lib/gcc/arm-none-eabi/4.6.2/../../../../arm-none-eabi/lib/thumb/v7m\libstdc++.a(bad_typeid.o)
 .debug_line    0x000027ae      0x14f c:/users/trent smith/desktop/sjsu_dev/yagarto/bin/../lib/gcc/arm-none-eabi/4.6.2/../../../../arm-none-eabi/lib/thumb/v7m\libstdc++.a(pbase_type_info.o)
 .debug_line    0x000028fd      0x20d c:/users/trent smith/desktop/sjsu_dev/yagarto/bin/../lib/gcc/arm-none-eabi/4.6.2/thumb/v7m\libgcc.a(_arm_addsubdf3.o)
 .debug_line    0x00002b0a       0x87 c:/users/trent smith/desktop/sjsu_dev/yagarto/bin/../lib/gcc/arm-none-eabi/4.6.2/thumb/v7m\libgcc.a(_arm_fixdfsi.o)
 .debug_line    0x00002b91       0x83 c:/users/trent smith/desktop/sjsu_dev/yagarto/bin/../lib/gcc/arm-none-eabi/4.6.2/thumb/v7m\libgcc.a(_arm_fixunsdfsi.o)
 .debug_line    0x00002c14      0x129 c:/users/trent smith/desktop/sjsu_dev/yagarto/bin/../lib/gcc/arm-none-eabi/4.6.2/thumb/v7m\libgcc.a(_arm_addsubsf3.o)
 .debug_line    0x00002d3d      0x14a c:/users/trent smith/desktop/sjsu_dev/yagarto/bin/../lib/gcc/arm-none-eabi/4.6.2/thumb/v7m\libgcc.a(_arm_muldivsf3.o)
 .debug_line    0x00002e87       0x87 c:/users/trent smith/desktop/sjsu_dev/yagarto/bin/../lib/gcc/arm-none-eabi/4.6.2/thumb/v7m\libgcc.a(_arm_fixsfsi.o)
 .debug_line    0x00002f0e       0x83 c:/users/trent smith/desktop/sjsu_dev/yagarto/bin/../lib/gcc/arm-none-eabi/4.6.2/thumb/v7m\libgcc.a(_arm_fixunssfsi.o)
 .debug_line    0x00002f91      0x4aa c:/users/trent smith/desktop/sjsu_dev/yagarto/bin/../lib/gcc/arm-none-eabi/4.6.2/thumb/v7m\libgcc.a(unwind-arm.o)
 .debug_line    0x0000343b       0xbd c:/users/trent smith/desktop/sjsu_dev/yagarto/bin/../lib/gcc/arm-none-eabi/4.6.2/thumb/v7m\libgcc.a(libunwind.o)
 .debug_line    0x000034f8      0x1d5 c:/users/trent smith/desktop/sjsu_dev/yagarto/bin/../lib/gcc/arm-none-eabi/4.6.2/thumb/v7m\libgcc.a(pr-support.o)
 .debug_line    0x000036cd       0xb6 c:/users/trent smith/desktop/sjsu_dev/yagarto/bin/../lib/gcc/arm-none-eabi/4.6.2/../../../../arm-none-eabi/lib/thumb/v7m\libc.a(lib_a-abort.o)
 .debug_line    0x00003783      0x173 c:/users/trent smith/desktop/sjsu_dev/yagarto/bin/../lib/gcc/arm-none-eabi/4.6.2/../../../../arm-none-eabi/lib/thumb/v7m\libc.a(lib_a-atoi.o)
 .debug_line    0x000038f6      0x116 c:/users/trent smith/desktop/sjsu_dev/yagarto/bin/../lib/gcc/arm-none-eabi/4.6.2/../../../../arm-none-eabi/lib/thumb/v7m\libc.a(lib_a-impure.o)
 .debug_line    0x00003a0c       0xf0 c:/users/trent smith/desktop/sjsu_dev/yagarto/bin/../lib/gcc/arm-none-eabi/4.6.2/../../../../arm-none-eabi/lib/thumb/v7m\libc.a(lib_a-init.o)
 .debug_line    0x00003afc       0xb6 c:/users/trent smith/desktop/sjsu_dev/yagarto/bin/../lib/gcc/arm-none-eabi/4.6.2/../../../../arm-none-eabi/lib/thumb/v7m\libc.a(lib_a-isalnum.o)
 .debug_line    0x00003bb2       0xb6 c:/users/trent smith/desktop/sjsu_dev/yagarto/bin/../lib/gcc/arm-none-eabi/4.6.2/../../../../arm-none-eabi/lib/thumb/v7m\libc.a(lib_a-isalpha.o)
 .debug_line    0x00003c68      0x179 c:/users/trent smith/desktop/sjsu_dev/yagarto/bin/../lib/gcc/arm-none-eabi/4.6.2/../../../../arm-none-eabi/lib/thumb/v7m\libc.a(lib_a-malloc.o)
 .debug_line    0x00003de1      0x309 c:/users/trent smith/desktop/sjsu_dev/yagarto/bin/../lib/gcc/arm-none-eabi/4.6.2/../../../../arm-none-eabi/lib/thumb/v7m\libc.a(lib_a-mallocr.o)
 .debug_line    0x000040ea      0x147 c:/users/trent smith/desktop/sjsu_dev/yagarto/bin/../lib/gcc/arm-none-eabi/4.6.2/../../../../arm-none-eabi/lib/thumb/v7m\libc.a(lib_a-memcmp.o)
 .debug_line    0x00004231      0x175 c:/users/trent smith/desktop/sjsu_dev/yagarto/bin/../lib/gcc/arm-none-eabi/4.6.2/../../../../arm-none-eabi/lib/thumb/v7m\libc.a(lib_a-memcpy.o)
 .debug_line    0x000043a6      0x19d c:/users/trent smith/desktop/sjsu_dev/yagarto/bin/../lib/gcc/arm-none-eabi/4.6.2/../../../../arm-none-eabi/lib/thumb/v7m\libc.a(lib_a-memmove.o)
 .debug_line    0x00004543      0x183 c:/users/trent smith/desktop/sjsu_dev/yagarto/bin/../lib/gcc/arm-none-eabi/4.6.2/../../../../arm-none-eabi/lib/thumb/v7m\libc.a(lib_a-memset.o)
 .debug_line    0x000046c6      0x128 c:/users/trent smith/desktop/sjsu_dev/yagarto/bin/../lib/gcc/arm-none-eabi/4.6.2/../../../../arm-none-eabi/lib/thumb/v7m\libc.a(lib_a-mlock.o)
 .debug_line    0x000047ee      0x192 c:/users/trent smith/desktop/sjsu_dev/yagarto/bin/../lib/gcc/arm-none-eabi/4.6.2/../../../../arm-none-eabi/lib/thumb/v7m\libc.a(lib_a-mstats.o)
 .debug_line    0x00004980      0x176 c:/users/trent smith/desktop/sjsu_dev/yagarto/bin/../lib/gcc/arm-none-eabi/4.6.2/../../../../arm-none-eabi/lib/thumb/v7m\libc.a(lib_a-putchar.o)
 .debug_line    0x00004af6      0x19b c:/users/trent smith/desktop/sjsu_dev/yagarto/bin/../lib/gcc/arm-none-eabi/4.6.2/../../../../arm-none-eabi/lib/thumb/v7m\libc.a(lib_a-puts.o)
 .debug_line    0x00004c91      0x175 c:/users/trent smith/desktop/sjsu_dev/yagarto/bin/../lib/gcc/arm-none-eabi/4.6.2/../../../../arm-none-eabi/lib/thumb/v7m\libc.a(lib_a-realloc.o)
 .debug_line    0x00004e06      0x28d c:/users/trent smith/desktop/sjsu_dev/yagarto/bin/../lib/gcc/arm-none-eabi/4.6.2/../../../../arm-none-eabi/lib/thumb/v7m\libc.a(lib_a-reallocr.o)
 .debug_line    0x00005093      0x183 c:/users/trent smith/desktop/sjsu_dev/yagarto/bin/../lib/gcc/arm-none-eabi/4.6.2/../../../../arm-none-eabi/lib/thumb/v7m\libc.a(lib_a-rget.o)
 .debug_line    0x00005216      0x177 c:/users/trent smith/desktop/sjsu_dev/yagarto/bin/../lib/gcc/arm-none-eabi/4.6.2/../../../../arm-none-eabi/lib/thumb/v7m\libc.a(lib_a-sbrkr.o)
 .debug_line    0x0000538d      0x1d6 c:/users/trent smith/desktop/sjsu_dev/yagarto/bin/../lib/gcc/arm-none-eabi/4.6.2/../../../../arm-none-eabi/lib/thumb/v7m\libc.a(lib_a-setvbuf.o)
 .debug_line    0x00005563      0x20a c:/users/trent smith/desktop/sjsu_dev/yagarto/bin/../lib/gcc/arm-none-eabi/4.6.2/../../../../arm-none-eabi/lib/thumb/v7m\libc.a(lib_a-signal.o)
 .debug_line    0x0000576d      0x17f c:/users/trent smith/desktop/sjsu_dev/yagarto/bin/../lib/gcc/arm-none-eabi/4.6.2/../../../../arm-none-eabi/lib/thumb/v7m\libc.a(lib_a-signalr.o)
 .debug_line    0x000058ec       0xd6 c:/users/trent smith/desktop/sjsu_dev/yagarto/bin/../lib/gcc/arm-none-eabi/4.6.2/../../../../arm-none-eabi/lib/thumb/v7m\libc.a(lib_a-strcasecmp.o)
 .debug_line    0x000059c2       0xf2 c:/users/trent smith/desktop/sjsu_dev/yagarto/bin/../lib/gcc/arm-none-eabi/4.6.2/../../../../arm-none-eabi/lib/thumb/v7m\libc.a(lib_a-strcat.o)
 .debug_line    0x00005ab4      0x113 c:/users/trent smith/desktop/sjsu_dev/yagarto/bin/../lib/gcc/arm-none-eabi/4.6.2/../../../../arm-none-eabi/lib/thumb/v7m\libc.a(lib_a-strchr.o)
 .debug_line    0x00005bc7       0xca c:/users/trent smith/desktop/sjsu_dev/yagarto/bin/../lib/gcc/arm-none-eabi/4.6.2/../../../../arm-none-eabi/lib/thumb/v7m\libc.a(lib_a-strcmp.o)
 .debug_line    0x00005c91       0xbe c:/users/trent smith/desktop/sjsu_dev/yagarto/bin/../lib/gcc/arm-none-eabi/4.6.2/../../../../arm-none-eabi/lib/thumb/v7m\libc.a(lib_a-strcpy.o)
 .debug_line    0x00005d4f      0x117 c:/users/trent smith/desktop/sjsu_dev/yagarto/bin/../lib/gcc/arm-none-eabi/4.6.2/../../../../arm-none-eabi/lib/thumb/v7m\libc.a(lib_a-strlen.o)
 .debug_line    0x00005e66      0x131 c:/users/trent smith/desktop/sjsu_dev/yagarto/bin/../lib/gcc/arm-none-eabi/4.6.2/../../../../arm-none-eabi/lib/thumb/v7m\libc.a(lib_a-strncasecmp.o)
 .debug_line    0x00005f97      0x186 c:/users/trent smith/desktop/sjsu_dev/yagarto/bin/../lib/gcc/arm-none-eabi/4.6.2/../../../../arm-none-eabi/lib/thumb/v7m\libc.a(lib_a-strncmp.o)
 .debug_line    0x0000611d      0x13d c:/users/trent smith/desktop/sjsu_dev/yagarto/bin/../lib/gcc/arm-none-eabi/4.6.2/../../../../arm-none-eabi/lib/thumb/v7m\libc.a(lib_a-strncpy.o)
 .debug_line    0x0000625a       0xe1 c:/users/trent smith/desktop/sjsu_dev/yagarto/bin/../lib/gcc/arm-none-eabi/4.6.2/../../../../arm-none-eabi/lib/thumb/v7m\libc.a(lib_a-strpbrk.o)
 .debug_line    0x0000633b       0xc2 c:/users/trent smith/desktop/sjsu_dev/yagarto/bin/../lib/gcc/arm-none-eabi/4.6.2/../../../../arm-none-eabi/lib/thumb/v7m\libc.a(lib_a-strrchr.o)
 .debug_line    0x000063fd      0x359 c:/users/trent smith/desktop/sjsu_dev/yagarto/bin/../lib/gcc/arm-none-eabi/4.6.2/../../../../arm-none-eabi/lib/thumb/v7m\libc.a(lib_a-strstr.o)
 .debug_line    0x00006756      0x1fc c:/users/trent smith/desktop/sjsu_dev/yagarto/bin/../lib/gcc/arm-none-eabi/4.6.2/../../../../arm-none-eabi/lib/thumb/v7m\libc.a(lib_a-strtol.o)
 .debug_line    0x00006952      0x13b c:/users/trent smith/desktop/sjsu_dev/yagarto/bin/../lib/gcc/arm-none-eabi/4.6.2/../../../../arm-none-eabi/lib/thumb/v7m\libc.a(lib_a-syswrite.o)
 .debug_line    0x00006a8d       0xb8 c:/users/trent smith/desktop/sjsu_dev/yagarto/bin/../lib/gcc/arm-none-eabi/4.6.2/../../../../arm-none-eabi/lib/thumb/v7m\libc.a(lib_a-tolower.o)
 .debug_line    0x00006b45       0xb8 c:/users/trent smith/desktop/sjsu_dev/yagarto/bin/../lib/gcc/arm-none-eabi/4.6.2/../../../../arm-none-eabi/lib/thumb/v7m\libc.a(lib_a-toupper.o)
 .debug_line    0x00006bfd      0x1a9 c:/users/trent smith/desktop/sjsu_dev/yagarto/bin/../lib/gcc/arm-none-eabi/4.6.2/../../../../arm-none-eabi/lib/thumb/v7m\libc.a(lib_a-vsniprintf.o)
 .debug_line    0x00006da6      0x1c8 c:/users/trent smith/desktop/sjsu_dev/yagarto/bin/../lib/gcc/arm-none-eabi/4.6.2/../../../../arm-none-eabi/lib/thumb/v7m\libc.a(lib_a-wbuf.o)
 .debug_line    0x00006f6e      0x17a c:/users/trent smith/desktop/sjsu_dev/yagarto/bin/../lib/gcc/arm-none-eabi/4.6.2/../../../../arm-none-eabi/lib/thumb/v7m\libc.a(lib_a-writer.o)
 .debug_line    0x000070e8      0x1ac c:/users/trent smith/desktop/sjsu_dev/yagarto/bin/../lib/gcc/arm-none-eabi/4.6.2/../../../../arm-none-eabi/lib/thumb/v7m\libc.a(lib_a-wsetup.o)
 .debug_line    0x00007294       0x63 c:/users/trent smith/desktop/sjsu_dev/yagarto/bin/../lib/gcc/arm-none-eabi/4.6.2/../../../../arm-none-eabi/lib/thumb/v7m\libc.a(lib_a-ctype_.o)
 .debug_line    0x000072f7      0x20f c:/users/trent smith/desktop/sjsu_dev/yagarto/bin/../lib/gcc/arm-none-eabi/4.6.2/../../../../arm-none-eabi/lib/thumb/v7m\libc.a(lib_a-fflush.o)
 .debug_line    0x00007506      0x231 c:/users/trent smith/desktop/sjsu_dev/yagarto/bin/../lib/gcc/arm-none-eabi/4.6.2/../../../../arm-none-eabi/lib/thumb/v7m\libc.a(lib_a-findfp.o)
 .debug_line    0x00007737      0x196 c:/users/trent smith/desktop/sjsu_dev/yagarto/bin/../lib/gcc/arm-none-eabi/4.6.2/../../../../arm-none-eabi/lib/thumb/v7m\libc.a(lib_a-fiprintf.o)
 .debug_line    0x000078cd      0x1ef c:/users/trent smith/desktop/sjsu_dev/yagarto/bin/../lib/gcc/arm-none-eabi/4.6.2/../../../../arm-none-eabi/lib/thumb/v7m\libc.a(lib_a-freer.o)
 .debug_line    0x00007abc      0x29b c:/users/trent smith/desktop/sjsu_dev/yagarto/bin/../lib/gcc/arm-none-eabi/4.6.2/../../../../arm-none-eabi/lib/thumb/v7m\libc.a(lib_a-fvwrite.o)
 .debug_line    0x00007d57      0x196 c:/users/trent smith/desktop/sjsu_dev/yagarto/bin/../lib/gcc/arm-none-eabi/4.6.2/../../../../arm-none-eabi/lib/thumb/v7m\libc.a(lib_a-fwalk.o)
 .debug_line    0x00007eed      0x1ed c:/users/trent smith/desktop/sjsu_dev/yagarto/bin/../lib/gcc/arm-none-eabi/4.6.2/../../../../arm-none-eabi/lib/thumb/v7m\libc.a(lib_a-makebuf.o)
 .debug_line    0x000080da      0x180 c:/users/trent smith/desktop/sjsu_dev/yagarto/bin/../lib/gcc/arm-none-eabi/4.6.2/../../../../arm-none-eabi/lib/thumb/v7m\libc.a(lib_a-mallinfor.o)
 .debug_line    0x0000825a      0x13a c:/users/trent smith/desktop/sjsu_dev/yagarto/bin/../lib/gcc/arm-none-eabi/4.6.2/../../../../arm-none-eabi/lib/thumb/v7m\libc.a(lib_a-malloptr.o)
 .debug_line    0x00008394      0x186 c:/users/trent smith/desktop/sjsu_dev/yagarto/bin/../lib/gcc/arm-none-eabi/4.6.2/../../../../arm-none-eabi/lib/thumb/v7m\libc.a(lib_a-mallstatsr.o)
 .debug_line    0x0000851a      0x151 c:/users/trent smith/desktop/sjsu_dev/yagarto/bin/../lib/gcc/arm-none-eabi/4.6.2/../../../../arm-none-eabi/lib/thumb/v7m\libc.a(lib_a-memchr.o)
 .debug_line    0x0000866b      0x20d c:/users/trent smith/desktop/sjsu_dev/yagarto/bin/../lib/gcc/arm-none-eabi/4.6.2/../../../../arm-none-eabi/lib/thumb/v7m\libc.a(lib_a-putc.o)
 .debug_line    0x00008878      0x16e c:/users/trent smith/desktop/sjsu_dev/yagarto/bin/../lib/gcc/arm-none-eabi/4.6.2/../../../../arm-none-eabi/lib/thumb/v7m\libc.a(lib_a-reent.o)
 .debug_line    0x000089e6      0x1e9 c:/users/trent smith/desktop/sjsu_dev/yagarto/bin/../lib/gcc/arm-none-eabi/4.6.2/../../../../arm-none-eabi/lib/thumb/v7m\libc.a(lib_a-refill.o)
 .debug_line    0x00008bcf      0x19f c:/users/trent smith/desktop/sjsu_dev/yagarto/bin/../lib/gcc/arm-none-eabi/4.6.2/../../../../arm-none-eabi/lib/thumb/v7m\libc.a(lib_a-stdio.o)
 .debug_line    0x00008d6e      0x607 c:/users/trent smith/desktop/sjsu_dev/yagarto/bin/../lib/gcc/arm-none-eabi/4.6.2/../../../../arm-none-eabi/lib/thumb/v7m\libc.a(lib_a-svfiprintf.o)
 .debug_line    0x00009375      0x63d c:/users/trent smith/desktop/sjsu_dev/yagarto/bin/../lib/gcc/arm-none-eabi/4.6.2/../../../../arm-none-eabi/lib/thumb/v7m\libc.a(lib_a-vfiprintf.o)
 .debug_line    0x000099b2      0x178 c:/users/trent smith/desktop/sjsu_dev/yagarto/bin/../lib/gcc/arm-none-eabi/4.6.2/../../../../arm-none-eabi/lib/thumb/v7m\libc.a(lib_a-closer.o)
 .debug_line    0x00009b2a      0x1b6 c:/users/trent smith/desktop/sjsu_dev/yagarto/bin/../lib/gcc/arm-none-eabi/4.6.2/../../../../arm-none-eabi/lib/thumb/v7m\libc.a(lib_a-fclose.o)
 .debug_line    0x00009ce0      0x1b5 c:/users/trent smith/desktop/sjsu_dev/yagarto/bin/../lib/gcc/arm-none-eabi/4.6.2/../../../../arm-none-eabi/lib/thumb/v7m\libc.a(lib_a-fputwc.o)
 .debug_line    0x00009e95      0x18e c:/users/trent smith/desktop/sjsu_dev/yagarto/bin/../lib/gcc/arm-none-eabi/4.6.2/../../../../arm-none-eabi/lib/thumb/v7m\libc.a(lib_a-fstatr.o)
 .debug_line    0x0000a023      0x179 c:/users/trent smith/desktop/sjsu_dev/yagarto/bin/../lib/gcc/arm-none-eabi/4.6.2/../../../../arm-none-eabi/lib/thumb/v7m\libc.a(lib_a-isattyr.o)
 .debug_line    0x0000a19c      0x1aa c:/users/trent smith/desktop/sjsu_dev/yagarto/bin/../lib/gcc/arm-none-eabi/4.6.2/../../../../arm-none-eabi/lib/thumb/v7m\libc.a(lib_a-locale.o)
 .debug_line    0x0000a346      0x17a c:/users/trent smith/desktop/sjsu_dev/yagarto/bin/../lib/gcc/arm-none-eabi/4.6.2/../../../../arm-none-eabi/lib/thumb/v7m\libc.a(lib_a-lseekr.o)
 .debug_line    0x0000a4c0      0x179 c:/users/trent smith/desktop/sjsu_dev/yagarto/bin/../lib/gcc/arm-none-eabi/4.6.2/../../../../arm-none-eabi/lib/thumb/v7m\libc.a(lib_a-readr.o)
 .debug_line    0x0000a639      0x19c c:/users/trent smith/desktop/sjsu_dev/yagarto/bin/../lib/gcc/arm-none-eabi/4.6.2/../../../../arm-none-eabi/lib/thumb/v7m\libc.a(lib_a-wcrtomb.o)
 .debug_line    0x0000a7d5      0x19e c:/users/trent smith/desktop/sjsu_dev/yagarto/bin/../lib/gcc/arm-none-eabi/4.6.2/../../../../arm-none-eabi/lib/thumb/v7m\libc.a(lib_a-wctomb_r.o)
 .debug_line    0x0000a973       0x93 c:/users/trent smith/desktop/sjsu_dev/yagarto/bin/../lib/gcc/arm-none-eabi/4.6.2/thumb/v7m\libgcc.a(_udivsi3.o)
 .debug_line    0x0000aa06       0x70 c:/users/trent smith/desktop/sjsu_dev/yagarto/bin/../lib/gcc/arm-none-eabi/4.6.2/thumb/v7m\libgcc.a(_dvmd_tls.o)

.debug_str      0x00000000     0x4d96
 .debug_str     0x00000000      0x26d c:/users/trent smith/desktop/sjsu_dev/yagarto/bin/../lib/gcc/arm-none-eabi/4.6.2/../../../../arm-none-eabi/lib/thumb/v7m\libstdc++.a(guard.o)
                                0x317 (size before relaxing)
 .debug_str     0x0000026d       0x58 c:/users/trent smith/desktop/sjsu_dev/yagarto/bin/../lib/gcc/arm-none-eabi/4.6.2/../../../../arm-none-eabi/lib/thumb/v7m\libstdc++.a(guard_error.o)
                                0x116 (size before relaxing)
 .debug_str     0x000002c5       0x4e c:/users/trent smith/desktop/sjsu_dev/yagarto/bin/../lib/gcc/arm-none-eabi/4.6.2/../../../../arm-none-eabi/lib/thumb/v7m\libstdc++.a(pure.o)
                                0x147 (size before relaxing)
 .debug_str     0x00000313      0x491 c:/users/trent smith/desktop/sjsu_dev/yagarto/bin/../lib/gcc/arm-none-eabi/4.6.2/../../../../arm-none-eabi/lib/thumb/v7m\libstdc++.a(si_class_type_info.o)
                                0x579 (size before relaxing)
 .debug_str     0x000007a4      0x1ec c:/users/trent smith/desktop/sjsu_dev/yagarto/bin/../lib/gcc/arm-none-eabi/4.6.2/../../../../arm-none-eabi/lib/thumb/v7m\libstdc++.a(tinfo.o)
                                0x33b (size before relaxing)
 .debug_str     0x00000990      0x27b c:/users/trent smith/desktop/sjsu_dev/yagarto/bin/../lib/gcc/arm-none-eabi/4.6.2/../../../../arm-none-eabi/lib/thumb/v7m\libstdc++.a(class_type_info.o)
                                0x5eb (size before relaxing)
 .debug_str     0x00000c0b      0x577 c:/users/trent smith/desktop/sjsu_dev/yagarto/bin/../lib/gcc/arm-none-eabi/4.6.2/../../../../arm-none-eabi/lib/thumb/v7m\libstdc++.a(eh_alloc.o)
                                0x887 (size before relaxing)
 .debug_str     0x00001182      0x16b c:/users/trent smith/desktop/sjsu_dev/yagarto/bin/../lib/gcc/arm-none-eabi/4.6.2/../../../../arm-none-eabi/lib/thumb/v7m\libstdc++.a(eh_exception.o)
                                0x256 (size before relaxing)
 .debug_str     0x000012ed       0x6a c:/users/trent smith/desktop/sjsu_dev/yagarto/bin/../lib/gcc/arm-none-eabi/4.6.2/../../../../arm-none-eabi/lib/thumb/v7m\libstdc++.a(eh_globals.o)
                                0x4d1 (size before relaxing)
 .debug_str     0x00001357      0x167 c:/users/trent smith/desktop/sjsu_dev/yagarto/bin/../lib/gcc/arm-none-eabi/4.6.2/../../../../arm-none-eabi/lib/thumb/v7m\libstdc++.a(eh_terminate.o)
                                0x357 (size before relaxing)
 .debug_str     0x000014be       0x46 c:/users/trent smith/desktop/sjsu_dev/yagarto/bin/../lib/gcc/arm-none-eabi/4.6.2/../../../../arm-none-eabi/lib/thumb/v7m\libstdc++.a(eh_term_handler.o)
                                0x162 (size before relaxing)
 .debug_str     0x00001504      0x144 c:/users/trent smith/desktop/sjsu_dev/yagarto/bin/../lib/gcc/arm-none-eabi/4.6.2/../../../../arm-none-eabi/lib/thumb/v7m\libstdc++.a(eh_throw.o)
                                0x551 (size before relaxing)
 .debug_str     0x00001648       0x46 c:/users/trent smith/desktop/sjsu_dev/yagarto/bin/../lib/gcc/arm-none-eabi/4.6.2/../../../../arm-none-eabi/lib/thumb/v7m\libstdc++.a(eh_unex_handler.o)
                                0x165 (size before relaxing)
 .debug_str     0x0000168e      0x1fb c:/users/trent smith/desktop/sjsu_dev/yagarto/bin/../lib/gcc/arm-none-eabi/4.6.2/../../../../arm-none-eabi/lib/thumb/v7m\libstdc++.a(eh_arm.o)
                                0x641 (size before relaxing)
 .debug_str     0x00001889       0x65 c:/users/trent smith/desktop/sjsu_dev/yagarto/bin/../lib/gcc/arm-none-eabi/4.6.2/../../../../arm-none-eabi/lib/thumb/v7m\libstdc++.a(eh_aux_runtime.o)
                                0x231 (size before relaxing)
 .debug_str     0x000018ee      0x14c c:/users/trent smith/desktop/sjsu_dev/yagarto/bin/../lib/gcc/arm-none-eabi/4.6.2/../../../../arm-none-eabi/lib/thumb/v7m\libstdc++.a(eh_call.o)
                                0x6ed (size before relaxing)
 .debug_str     0x00001a3a       0xd7 c:/users/trent smith/desktop/sjsu_dev/yagarto/bin/../lib/gcc/arm-none-eabi/4.6.2/../../../../arm-none-eabi/lib/thumb/v7m\libstdc++.a(eh_catch.o)
                                0x58b (size before relaxing)
 .debug_str     0x00001b11      0x4da c:/users/trent smith/desktop/sjsu_dev/yagarto/bin/../lib/gcc/arm-none-eabi/4.6.2/../../../../arm-none-eabi/lib/thumb/v7m\libstdc++.a(eh_personality.o)
                                0xa77 (size before relaxing)
 .debug_str     0x00001feb       0x65 c:/users/trent smith/desktop/sjsu_dev/yagarto/bin/../lib/gcc/arm-none-eabi/4.6.2/../../../../arm-none-eabi/lib/thumb/v7m\libstdc++.a(fundamental_type_info.o)
                                0x1b1 (size before relaxing)
 .debug_str     0x00002050      0x145 c:/users/trent smith/desktop/sjsu_dev/yagarto/bin/../lib/gcc/arm-none-eabi/4.6.2/../../../../arm-none-eabi/lib/thumb/v7m\libstdc++.a(pointer_type_info.o)
                                0x2bc (size before relaxing)
 .debug_str     0x00002195       0x60 c:/users/trent smith/desktop/sjsu_dev/yagarto/bin/../lib/gcc/arm-none-eabi/4.6.2/../../../../arm-none-eabi/lib/thumb/v7m\libstdc++.a(bad_cast.o)
                                 0xec (size before relaxing)
 .debug_str     0x000021f5       0x67 c:/users/trent smith/desktop/sjsu_dev/yagarto/bin/../lib/gcc/arm-none-eabi/4.6.2/../../../../arm-none-eabi/lib/thumb/v7m\libstdc++.a(bad_typeid.o)
                                 0xf5 (size before relaxing)
 .debug_str     0x0000225c      0x138 c:/users/trent smith/desktop/sjsu_dev/yagarto/bin/../lib/gcc/arm-none-eabi/4.6.2/../../../../arm-none-eabi/lib/thumb/v7m\libstdc++.a(pbase_type_info.o)
                                0x32e (size before relaxing)
 .debug_str     0x00002394      0x505 c:/users/trent smith/desktop/sjsu_dev/yagarto/bin/../lib/gcc/arm-none-eabi/4.6.2/thumb/v7m\libgcc.a(unwind-arm.o)
                                0x930 (size before relaxing)
 .debug_str     0x00002899       0xfc c:/users/trent smith/desktop/sjsu_dev/yagarto/bin/../lib/gcc/arm-none-eabi/4.6.2/thumb/v7m\libgcc.a(pr-support.o)
                                0x467 (size before relaxing)
 .debug_str     0x00002995       0x8f c:/users/trent smith/desktop/sjsu_dev/yagarto/bin/../lib/gcc/arm-none-eabi/4.6.2/../../../../arm-none-eabi/lib/thumb/v7m\libc.a(lib_a-abort.o)
                                0x12a (size before relaxing)
 .debug_str     0x00002a24      0x3a4 c:/users/trent smith/desktop/sjsu_dev/yagarto/bin/../lib/gcc/arm-none-eabi/4.6.2/../../../../arm-none-eabi/lib/thumb/v7m\libc.a(lib_a-atoi.o)
                                0x4df (size before relaxing)
 .debug_str     0x00002dc8       0xad c:/users/trent smith/desktop/sjsu_dev/yagarto/bin/../lib/gcc/arm-none-eabi/4.6.2/../../../../arm-none-eabi/lib/thumb/v7m\libc.a(lib_a-impure.o)
                                0x4fd (size before relaxing)
 .debug_str     0x00002e75       0xea c:/users/trent smith/desktop/sjsu_dev/yagarto/bin/../lib/gcc/arm-none-eabi/4.6.2/../../../../arm-none-eabi/lib/thumb/v7m\libc.a(lib_a-init.o)
                                0x18c (size before relaxing)
 .debug_str     0x00002f5f       0xa5 c:/users/trent smith/desktop/sjsu_dev/yagarto/bin/../lib/gcc/arm-none-eabi/4.6.2/../../../../arm-none-eabi/lib/thumb/v7m\libc.a(lib_a-isalnum.o)
                                 0xb6 (size before relaxing)
 .debug_str     0x00003004       0x47 c:/users/trent smith/desktop/sjsu_dev/yagarto/bin/../lib/gcc/arm-none-eabi/4.6.2/../../../../arm-none-eabi/lib/thumb/v7m\libc.a(lib_a-isalpha.o)
                                 0xb6 (size before relaxing)
 .debug_str     0x0000304b       0x50 c:/users/trent smith/desktop/sjsu_dev/yagarto/bin/../lib/gcc/arm-none-eabi/4.6.2/../../../../arm-none-eabi/lib/thumb/v7m\libc.a(lib_a-malloc.o)
                                0x4ff (size before relaxing)
 .debug_str     0x0000309b      0x20c c:/users/trent smith/desktop/sjsu_dev/yagarto/bin/../lib/gcc/arm-none-eabi/4.6.2/../../../../arm-none-eabi/lib/thumb/v7m\libc.a(lib_a-mallocr.o)
                                0x6d4 (size before relaxing)
 .debug_str     0x000032a7       0x97 c:/users/trent smith/desktop/sjsu_dev/yagarto/bin/../lib/gcc/arm-none-eabi/4.6.2/../../../../arm-none-eabi/lib/thumb/v7m\libc.a(lib_a-memcmp.o)
                                0x133 (size before relaxing)
 .debug_str     0x0000333e       0x6d c:/users/trent smith/desktop/sjsu_dev/yagarto/bin/../lib/gcc/arm-none-eabi/4.6.2/../../../../arm-none-eabi/lib/thumb/v7m\libc.a(lib_a-memcpy.o)
                                0x15a (size before relaxing)
 .debug_str     0x000033ab       0x5a c:/users/trent smith/desktop/sjsu_dev/yagarto/bin/../lib/gcc/arm-none-eabi/4.6.2/../../../../arm-none-eabi/lib/thumb/v7m\libc.a(lib_a-memmove.o)
                                0x166 (size before relaxing)
 .debug_str     0x00003405       0x53 c:/users/trent smith/desktop/sjsu_dev/yagarto/bin/../lib/gcc/arm-none-eabi/4.6.2/../../../../arm-none-eabi/lib/thumb/v7m\libc.a(lib_a-memset.o)
                                0x147 (size before relaxing)
 .debug_str     0x00003458       0x71 c:/users/trent smith/desktop/sjsu_dev/yagarto/bin/../lib/gcc/arm-none-eabi/4.6.2/../../../../arm-none-eabi/lib/thumb/v7m\libc.a(lib_a-mlock.o)
                                0x506 (size before relaxing)
 .debug_str     0x000034c9       0x65 c:/users/trent smith/desktop/sjsu_dev/yagarto/bin/../lib/gcc/arm-none-eabi/4.6.2/../../../../arm-none-eabi/lib/thumb/v7m\libc.a(lib_a-mstats.o)
                                0x55c (size before relaxing)
 .debug_str     0x0000352e       0xa2 c:/users/trent smith/desktop/sjsu_dev/yagarto/bin/../lib/gcc/arm-none-eabi/4.6.2/../../../../arm-none-eabi/lib/thumb/v7m\libc.a(lib_a-putchar.o)
                                0x4f2 (size before relaxing)
 .debug_str     0x000035d0       0x85 c:/users/trent smith/desktop/sjsu_dev/yagarto/bin/../lib/gcc/arm-none-eabi/4.6.2/../../../../arm-none-eabi/lib/thumb/v7m\libc.a(lib_a-puts.o)
                                0x52c (size before relaxing)
 .debug_str     0x00003655       0x48 c:/users/trent smith/desktop/sjsu_dev/yagarto/bin/../lib/gcc/arm-none-eabi/4.6.2/../../../../arm-none-eabi/lib/thumb/v7m\libc.a(lib_a-realloc.o)
                                0x4f7 (size before relaxing)
 .debug_str     0x0000369d       0x5c c:/users/trent smith/desktop/sjsu_dev/yagarto/bin/../lib/gcc/arm-none-eabi/4.6.2/../../../../arm-none-eabi/lib/thumb/v7m\libc.a(lib_a-reallocr.o)
                                0x5a6 (size before relaxing)
 .debug_str     0x000036f9       0x4e c:/users/trent smith/desktop/sjsu_dev/yagarto/bin/../lib/gcc/arm-none-eabi/4.6.2/../../../../arm-none-eabi/lib/thumb/v7m\libc.a(lib_a-rget.o)
                                0x4f3 (size before relaxing)
 .debug_str     0x00003747       0x50 c:/users/trent smith/desktop/sjsu_dev/yagarto/bin/../lib/gcc/arm-none-eabi/4.6.2/../../../../arm-none-eabi/lib/thumb/v7m\libc.a(lib_a-sbrkr.o)
                                0x4f4 (size before relaxing)
 .debug_str     0x00003797       0x47 c:/users/trent smith/desktop/sjsu_dev/yagarto/bin/../lib/gcc/arm-none-eabi/4.6.2/../../../../arm-none-eabi/lib/thumb/v7m\libc.a(lib_a-setvbuf.o)
                                0x4fd (size before relaxing)
 .debug_str     0x000037de       0xea c:/users/trent smith/desktop/sjsu_dev/yagarto/bin/../lib/gcc/arm-none-eabi/4.6.2/../../../../arm-none-eabi/lib/thumb/v7m\libc.a(lib_a-signal.o)
                                0x550 (size before relaxing)
 .debug_str     0x000038c8       0x5f c:/users/trent smith/desktop/sjsu_dev/yagarto/bin/../lib/gcc/arm-none-eabi/4.6.2/../../../../arm-none-eabi/lib/thumb/v7m\libc.a(lib_a-signalr.o)
                                0x4f9 (size before relaxing)
 .debug_str     0x00003927       0x58 c:/users/trent smith/desktop/sjsu_dev/yagarto/bin/../lib/gcc/arm-none-eabi/4.6.2/../../../../arm-none-eabi/lib/thumb/v7m\libc.a(lib_a-strcasecmp.o)
                                0x14c (size before relaxing)
 .debug_str     0x0000397f       0x51 c:/users/trent smith/desktop/sjsu_dev/yagarto/bin/../lib/gcc/arm-none-eabi/4.6.2/../../../../arm-none-eabi/lib/thumb/v7m\libc.a(lib_a-strcat.o)
                                0x137 (size before relaxing)
 .debug_str     0x000039d0       0x46 c:/users/trent smith/desktop/sjsu_dev/yagarto/bin/../lib/gcc/arm-none-eabi/4.6.2/../../../../arm-none-eabi/lib/thumb/v7m\libc.a(lib_a-strchr.o)
                                0x13e (size before relaxing)
 .debug_str     0x00003a16       0xb5 c:/users/trent smith/desktop/sjsu_dev/yagarto/bin/../lib/gcc/arm-none-eabi/4.6.2/../../../../arm-none-eabi/lib/thumb/v7m\libc.a(lib_a-strcmp.o)
                                0x14a (size before relaxing)
 .debug_str     0x00003acb       0x4e c:/users/trent smith/desktop/sjsu_dev/yagarto/bin/../lib/gcc/arm-none-eabi/4.6.2/../../../../arm-none-eabi/lib/thumb/v7m\libc.a(lib_a-strcpy.o)
                                0x139 (size before relaxing)
 .debug_str     0x00003b19       0x4e c:/users/trent smith/desktop/sjsu_dev/yagarto/bin/../lib/gcc/arm-none-eabi/4.6.2/../../../../arm-none-eabi/lib/thumb/v7m\libc.a(lib_a-strlen.o)
                                0x140 (size before relaxing)
 .debug_str     0x00003b67       0x50 c:/users/trent smith/desktop/sjsu_dev/yagarto/bin/../lib/gcc/arm-none-eabi/4.6.2/../../../../arm-none-eabi/lib/thumb/v7m\libc.a(lib_a-strncasecmp.o)
                                0x155 (size before relaxing)
 .debug_str     0x00003bb7       0x48 c:/users/trent smith/desktop/sjsu_dev/yagarto/bin/../lib/gcc/arm-none-eabi/4.6.2/../../../../arm-none-eabi/lib/thumb/v7m\libc.a(lib_a-strncmp.o)
                                0x135 (size before relaxing)
 .debug_str     0x00003bff       0x48 c:/users/trent smith/desktop/sjsu_dev/yagarto/bin/../lib/gcc/arm-none-eabi/4.6.2/../../../../arm-none-eabi/lib/thumb/v7m\libc.a(lib_a-strncpy.o)
                                0x15d (size before relaxing)
 .debug_str     0x00003c47       0x48 c:/users/trent smith/desktop/sjsu_dev/yagarto/bin/../lib/gcc/arm-none-eabi/4.6.2/../../../../arm-none-eabi/lib/thumb/v7m\libc.a(lib_a-strpbrk.o)
                                0x12e (size before relaxing)
 .debug_str     0x00003c8f       0x48 c:/users/trent smith/desktop/sjsu_dev/yagarto/bin/../lib/gcc/arm-none-eabi/4.6.2/../../../../arm-none-eabi/lib/thumb/v7m\libc.a(lib_a-strrchr.o)
                                0x133 (size before relaxing)
 .debug_str     0x00003cd7       0xec c:/users/trent smith/desktop/sjsu_dev/yagarto/bin/../lib/gcc/arm-none-eabi/4.6.2/../../../../arm-none-eabi/lib/thumb/v7m\libc.a(lib_a-strstr.o)
                                0x1ed (size before relaxing)
 .debug_str     0x00003dc3       0x63 c:/users/trent smith/desktop/sjsu_dev/yagarto/bin/../lib/gcc/arm-none-eabi/4.6.2/../../../../arm-none-eabi/lib/thumb/v7m\libc.a(lib_a-strtol.o)
                                0x523 (size before relaxing)
 .debug_str     0x00003e26       0x96 c:/users/trent smith/desktop/sjsu_dev/yagarto/bin/../lib/gcc/arm-none-eabi/4.6.2/../../../../arm-none-eabi/lib/thumb/v7m\libc.a(lib_a-syswrite.o)
                                0x4f3 (size before relaxing)
 .debug_str     0x00003ebc       0x47 c:/users/trent smith/desktop/sjsu_dev/yagarto/bin/../lib/gcc/arm-none-eabi/4.6.2/../../../../arm-none-eabi/lib/thumb/v7m\libc.a(lib_a-tolower.o)
                                 0xb6 (size before relaxing)
 .debug_str     0x00003f03       0x47 c:/users/trent smith/desktop/sjsu_dev/yagarto/bin/../lib/gcc/arm-none-eabi/4.6.2/../../../../arm-none-eabi/lib/thumb/v7m\libc.a(lib_a-toupper.o)
                                 0xb6 (size before relaxing)
 .debug_str     0x00003f4a       0x87 c:/users/trent smith/desktop/sjsu_dev/yagarto/bin/../lib/gcc/arm-none-eabi/4.6.2/../../../../arm-none-eabi/lib/thumb/v7m\libc.a(lib_a-vsniprintf.o)
                                0x540 (size before relaxing)
 .debug_str     0x00003fd1       0x4e c:/users/trent smith/desktop/sjsu_dev/yagarto/bin/../lib/gcc/arm-none-eabi/4.6.2/../../../../arm-none-eabi/lib/thumb/v7m\libc.a(lib_a-wbuf.o)
                                0x4f3 (size before relaxing)
 .debug_str     0x0000401f       0x50 c:/users/trent smith/desktop/sjsu_dev/yagarto/bin/../lib/gcc/arm-none-eabi/4.6.2/../../../../arm-none-eabi/lib/thumb/v7m\libc.a(lib_a-writer.o)
                                0x4f1 (size before relaxing)
 .debug_str     0x0000406f       0x4a c:/users/trent smith/desktop/sjsu_dev/yagarto/bin/../lib/gcc/arm-none-eabi/4.6.2/../../../../arm-none-eabi/lib/thumb/v7m\libc.a(lib_a-wsetup.o)
                                0x4ef (size before relaxing)
 .debug_str     0x000040b9       0x46 c:/users/trent smith/desktop/sjsu_dev/yagarto/bin/../lib/gcc/arm-none-eabi/4.6.2/../../../../arm-none-eabi/lib/thumb/v7m\libc.a(lib_a-ctype_.o)
                                 0xc2 (size before relaxing)
 .debug_str     0x000040ff       0x60 c:/users/trent smith/desktop/sjsu_dev/yagarto/bin/../lib/gcc/arm-none-eabi/4.6.2/../../../../arm-none-eabi/lib/thumb/v7m\libc.a(lib_a-fflush.o)
                                0x51f (size before relaxing)
 .debug_str     0x0000415f      0x106 c:/users/trent smith/desktop/sjsu_dev/yagarto/bin/../lib/gcc/arm-none-eabi/4.6.2/../../../../arm-none-eabi/lib/thumb/v7m\libc.a(lib_a-findfp.o)
                                0x5d7 (size before relaxing)
 .debug_str     0x00004265       0x4c c:/users/trent smith/desktop/sjsu_dev/yagarto/bin/../lib/gcc/arm-none-eabi/4.6.2/../../../../arm-none-eabi/lib/thumb/v7m\libc.a(lib_a-fiprintf.o)
                                0x520 (size before relaxing)
 .debug_str     0x000042b1       0x3c c:/users/trent smith/desktop/sjsu_dev/yagarto/bin/../lib/gcc/arm-none-eabi/4.6.2/../../../../arm-none-eabi/lib/thumb/v7m\libc.a(lib_a-freer.o)
                                0x626 (size before relaxing)
 .debug_str     0x000042ed       0x62 c:/users/trent smith/desktop/sjsu_dev/yagarto/bin/../lib/gcc/arm-none-eabi/4.6.2/../../../../arm-none-eabi/lib/thumb/v7m\libc.a(lib_a-fvwrite.o)
                                0x546 (size before relaxing)
 .debug_str     0x0000434f       0x62 c:/users/trent smith/desktop/sjsu_dev/yagarto/bin/../lib/gcc/arm-none-eabi/4.6.2/../../../../arm-none-eabi/lib/thumb/v7m\libc.a(lib_a-fwalk.o)
                                0x518 (size before relaxing)
 .debug_str     0x000043b1      0x127 c:/users/trent smith/desktop/sjsu_dev/yagarto/bin/../lib/gcc/arm-none-eabi/4.6.2/../../../../arm-none-eabi/lib/thumb/v7m\libc.a(lib_a-makebuf.o)
                                0x5e9 (size before relaxing)
 .debug_str     0x000044d8       0x2c c:/users/trent smith/desktop/sjsu_dev/yagarto/bin/../lib/gcc/arm-none-eabi/4.6.2/../../../../arm-none-eabi/lib/thumb/v7m\libc.a(lib_a-mallinfor.o)
                                0x5c3 (size before relaxing)
 .debug_str     0x00004504       0x18 c:/users/trent smith/desktop/sjsu_dev/yagarto/bin/../lib/gcc/arm-none-eabi/4.6.2/../../../../arm-none-eabi/lib/thumb/v7m\libc.a(lib_a-malloptr.o)
                                0x526 (size before relaxing)
 .debug_str     0x0000451c       0x44 c:/users/trent smith/desktop/sjsu_dev/yagarto/bin/../lib/gcc/arm-none-eabi/4.6.2/../../../../arm-none-eabi/lib/thumb/v7m\libc.a(lib_a-mallstatsr.o)
                                0x5af (size before relaxing)
 .debug_str     0x00004560       0x4b c:/users/trent smith/desktop/sjsu_dev/yagarto/bin/../lib/gcc/arm-none-eabi/4.6.2/../../../../arm-none-eabi/lib/thumb/v7m\libc.a(lib_a-memchr.o)
                                0x14d (size before relaxing)
 .debug_str     0x000045ab       0x49 c:/users/trent smith/desktop/sjsu_dev/yagarto/bin/../lib/gcc/arm-none-eabi/4.6.2/../../../../arm-none-eabi/lib/thumb/v7m\libc.a(lib_a-putc.o)
                                0x4f5 (size before relaxing)
 .debug_str     0x000045f4       0x77 c:/users/trent smith/desktop/sjsu_dev/yagarto/bin/../lib/gcc/arm-none-eabi/4.6.2/../../../../arm-none-eabi/lib/thumb/v7m\libc.a(lib_a-reent.o)
                                0x522 (size before relaxing)
 .debug_str     0x0000466b       0x51 c:/users/trent smith/desktop/sjsu_dev/yagarto/bin/../lib/gcc/arm-none-eabi/4.6.2/../../../../arm-none-eabi/lib/thumb/v7m\libc.a(lib_a-refill.o)
                                0x4fd (size before relaxing)
 .debug_str     0x000046bc       0x71 c:/users/trent smith/desktop/sjsu_dev/yagarto/bin/../lib/gcc/arm-none-eabi/4.6.2/../../../../arm-none-eabi/lib/thumb/v7m\libc.a(lib_a-stdio.o)
                                0x524 (size before relaxing)
 .debug_str     0x0000472d       0xe9 c:/users/trent smith/desktop/sjsu_dev/yagarto/bin/../lib/gcc/arm-none-eabi/4.6.2/../../../../arm-none-eabi/lib/thumb/v7m\libc.a(lib_a-svfiprintf.o)
                                0x63b (size before relaxing)
 .debug_str     0x00004816       0x32 c:/users/trent smith/desktop/sjsu_dev/yagarto/bin/../lib/gcc/arm-none-eabi/4.6.2/../../../../arm-none-eabi/lib/thumb/v7m\libc.a(lib_a-vfiprintf.o)
                                0x664 (size before relaxing)
 .debug_str     0x00004848       0x47 c:/users/trent smith/desktop/sjsu_dev/yagarto/bin/../lib/gcc/arm-none-eabi/4.6.2/../../../../arm-none-eabi/lib/thumb/v7m\libc.a(lib_a-closer.o)
                                0x4e1 (size before relaxing)
 .debug_str     0x0000488f       0x4f c:/users/trent smith/desktop/sjsu_dev/yagarto/bin/../lib/gcc/arm-none-eabi/4.6.2/../../../../arm-none-eabi/lib/thumb/v7m\libc.a(lib_a-fclose.o)
                                0x4f9 (size before relaxing)
 .debug_str     0x000048de       0x51 c:/users/trent smith/desktop/sjsu_dev/yagarto/bin/../lib/gcc/arm-none-eabi/4.6.2/../../../../arm-none-eabi/lib/thumb/v7m\libc.a(lib_a-fputwc.o)
                                0x50c (size before relaxing)
 .debug_str     0x0000492f       0x54 c:/users/trent smith/desktop/sjsu_dev/yagarto/bin/../lib/gcc/arm-none-eabi/4.6.2/../../../../arm-none-eabi/lib/thumb/v7m\libc.a(lib_a-fstatr.o)
                                0x5db (size before relaxing)
 .debug_str     0x00004983       0x51 c:/users/trent smith/desktop/sjsu_dev/yagarto/bin/../lib/gcc/arm-none-eabi/4.6.2/../../../../arm-none-eabi/lib/thumb/v7m\libc.a(lib_a-isattyr.o)
                                0x4eb (size before relaxing)
 .debug_str     0x000049d4      0x26b c:/users/trent smith/desktop/sjsu_dev/yagarto/bin/../lib/gcc/arm-none-eabi/4.6.2/../../../../arm-none-eabi/lib/thumb/v7m\libc.a(lib_a-locale.o)
                                0x753 (size before relaxing)
 .debug_str     0x00004c3f       0x4e c:/users/trent smith/desktop/sjsu_dev/yagarto/bin/../lib/gcc/arm-none-eabi/4.6.2/../../../../arm-none-eabi/lib/thumb/v7m\libc.a(lib_a-lseekr.o)
                                0x4f6 (size before relaxing)
 .debug_str     0x00004c8d       0x45 c:/users/trent smith/desktop/sjsu_dev/yagarto/bin/../lib/gcc/arm-none-eabi/4.6.2/../../../../arm-none-eabi/lib/thumb/v7m\libc.a(lib_a-readr.o)
                                0x4ef (size before relaxing)
 .debug_str     0x00004cd2       0x63 c:/users/trent smith/desktop/sjsu_dev/yagarto/bin/../lib/gcc/arm-none-eabi/4.6.2/../../../../arm-none-eabi/lib/thumb/v7m\libc.a(lib_a-wcrtomb.o)
                                0x51d (size before relaxing)
 .debug_str     0x00004d35       0x61 c:/users/trent smith/desktop/sjsu_dev/yagarto/bin/../lib/gcc/arm-none-eabi/4.6.2/../../../../arm-none-eabi/lib/thumb/v7m\libc.a(lib_a-wctomb_r.o)
                                0x52c (size before relaxing)

.debug_frame    0x00000000     0x1da4
 .debug_frame   0x00000000       0x48 c:/users/trent smith/desktop/sjsu_dev/yagarto/bin/../lib/gcc/arm-none-eabi/4.6.2/../../../../arm-none-eabi/lib/thumb/v7m\libstdc++.a(guard.o)
 .debug_frame   0x00000048       0x40 c:/users/trent smith/desktop/sjsu_dev/yagarto/bin/../lib/gcc/arm-none-eabi/4.6.2/../../../../arm-none-eabi/lib/thumb/v7m\libstdc++.a(guard_error.o)
 .debug_frame   0x00000088       0x28 c:/users/trent smith/desktop/sjsu_dev/yagarto/bin/../lib/gcc/arm-none-eabi/4.6.2/../../../../arm-none-eabi/lib/thumb/v7m\libstdc++.a(pure.o)
 .debug_frame   0x000000b0       0xa8 c:/users/trent smith/desktop/sjsu_dev/yagarto/bin/../lib/gcc/arm-none-eabi/4.6.2/../../../../arm-none-eabi/lib/thumb/v7m\libstdc++.a(si_class_type_info.o)
 .debug_frame   0x00000158       0x90 c:/users/trent smith/desktop/sjsu_dev/yagarto/bin/../lib/gcc/arm-none-eabi/4.6.2/../../../../arm-none-eabi/lib/thumb/v7m\libstdc++.a(tinfo.o)
 .debug_frame   0x000001e8       0xcc c:/users/trent smith/desktop/sjsu_dev/yagarto/bin/../lib/gcc/arm-none-eabi/4.6.2/../../../../arm-none-eabi/lib/thumb/v7m\libstdc++.a(class_type_info.o)
 .debug_frame   0x000002b4       0x6c c:/users/trent smith/desktop/sjsu_dev/yagarto/bin/../lib/gcc/arm-none-eabi/4.6.2/../../../../arm-none-eabi/lib/thumb/v7m\libstdc++.a(eh_alloc.o)
 .debug_frame   0x00000320       0xd0 c:/users/trent smith/desktop/sjsu_dev/yagarto/bin/../lib/gcc/arm-none-eabi/4.6.2/../../../../arm-none-eabi/lib/thumb/v7m\libstdc++.a(eh_exception.o)
 .debug_frame   0x000003f0       0x30 c:/users/trent smith/desktop/sjsu_dev/yagarto/bin/../lib/gcc/arm-none-eabi/4.6.2/../../../../arm-none-eabi/lib/thumb/v7m\libstdc++.a(eh_globals.o)
 .debug_frame   0x00000420       0x90 c:/users/trent smith/desktop/sjsu_dev/yagarto/bin/../lib/gcc/arm-none-eabi/4.6.2/../../../../arm-none-eabi/lib/thumb/v7m\libstdc++.a(eh_terminate.o)
 .debug_frame   0x000004b0       0x60 c:/users/trent smith/desktop/sjsu_dev/yagarto/bin/../lib/gcc/arm-none-eabi/4.6.2/../../../../arm-none-eabi/lib/thumb/v7m\libstdc++.a(eh_throw.o)
 .debug_frame   0x00000510       0x60 c:/users/trent smith/desktop/sjsu_dev/yagarto/bin/../lib/gcc/arm-none-eabi/4.6.2/../../../../arm-none-eabi/lib/thumb/v7m\libstdc++.a(eh_arm.o)
 .debug_frame   0x00000570       0x40 c:/users/trent smith/desktop/sjsu_dev/yagarto/bin/../lib/gcc/arm-none-eabi/4.6.2/../../../../arm-none-eabi/lib/thumb/v7m\libstdc++.a(eh_aux_runtime.o)
 .debug_frame   0x000005b0       0x50 c:/users/trent smith/desktop/sjsu_dev/yagarto/bin/../lib/gcc/arm-none-eabi/4.6.2/../../../../arm-none-eabi/lib/thumb/v7m\libstdc++.a(eh_call.o)
 .debug_frame   0x00000600       0x6c c:/users/trent smith/desktop/sjsu_dev/yagarto/bin/../lib/gcc/arm-none-eabi/4.6.2/../../../../arm-none-eabi/lib/thumb/v7m\libstdc++.a(eh_catch.o)
 .debug_frame   0x0000066c       0xac c:/users/trent smith/desktop/sjsu_dev/yagarto/bin/../lib/gcc/arm-none-eabi/4.6.2/../../../../arm-none-eabi/lib/thumb/v7m\libstdc++.a(eh_personality.o)
 .debug_frame   0x00000718       0x40 c:/users/trent smith/desktop/sjsu_dev/yagarto/bin/../lib/gcc/arm-none-eabi/4.6.2/../../../../arm-none-eabi/lib/thumb/v7m\libstdc++.a(fundamental_type_info.o)
 .debug_frame   0x00000758       0x6c c:/users/trent smith/desktop/sjsu_dev/yagarto/bin/../lib/gcc/arm-none-eabi/4.6.2/../../../../arm-none-eabi/lib/thumb/v7m\libstdc++.a(pointer_type_info.o)
 .debug_frame   0x000007c4       0x50 c:/users/trent smith/desktop/sjsu_dev/yagarto/bin/../lib/gcc/arm-none-eabi/4.6.2/../../../../arm-none-eabi/lib/thumb/v7m\libstdc++.a(bad_cast.o)
 .debug_frame   0x00000814       0x50 c:/users/trent smith/desktop/sjsu_dev/yagarto/bin/../lib/gcc/arm-none-eabi/4.6.2/../../../../arm-none-eabi/lib/thumb/v7m\libstdc++.a(bad_typeid.o)
 .debug_frame   0x00000864       0x78 c:/users/trent smith/desktop/sjsu_dev/yagarto/bin/../lib/gcc/arm-none-eabi/4.6.2/../../../../arm-none-eabi/lib/thumb/v7m\libstdc++.a(pbase_type_info.o)
 .debug_frame   0x000008dc      0x268 c:/users/trent smith/desktop/sjsu_dev/yagarto/bin/../lib/gcc/arm-none-eabi/4.6.2/thumb/v7m\libgcc.a(unwind-arm.o)
 .debug_frame   0x00000b44       0xec c:/users/trent smith/desktop/sjsu_dev/yagarto/bin/../lib/gcc/arm-none-eabi/4.6.2/thumb/v7m\libgcc.a(pr-support.o)
 .debug_frame   0x00000c30       0x28 c:/users/trent smith/desktop/sjsu_dev/yagarto/bin/../lib/gcc/arm-none-eabi/4.6.2/../../../../arm-none-eabi/lib/thumb/v7m\libc.a(lib_a-abort.o)
 .debug_frame   0x00000c58       0x30 c:/users/trent smith/desktop/sjsu_dev/yagarto/bin/../lib/gcc/arm-none-eabi/4.6.2/../../../../arm-none-eabi/lib/thumb/v7m\libc.a(lib_a-atoi.o)
 .debug_frame   0x00000c88       0x2c c:/users/trent smith/desktop/sjsu_dev/yagarto/bin/../lib/gcc/arm-none-eabi/4.6.2/../../../../arm-none-eabi/lib/thumb/v7m\libc.a(lib_a-init.o)
 .debug_frame   0x00000cb4       0x20 c:/users/trent smith/desktop/sjsu_dev/yagarto/bin/../lib/gcc/arm-none-eabi/4.6.2/../../../../arm-none-eabi/lib/thumb/v7m\libc.a(lib_a-isalnum.o)
 .debug_frame   0x00000cd4       0x20 c:/users/trent smith/desktop/sjsu_dev/yagarto/bin/../lib/gcc/arm-none-eabi/4.6.2/../../../../arm-none-eabi/lib/thumb/v7m\libc.a(lib_a-isalpha.o)
 .debug_frame   0x00000cf4       0x30 c:/users/trent smith/desktop/sjsu_dev/yagarto/bin/../lib/gcc/arm-none-eabi/4.6.2/../../../../arm-none-eabi/lib/thumb/v7m\libc.a(lib_a-malloc.o)
 .debug_frame   0x00000d24       0x38 c:/users/trent smith/desktop/sjsu_dev/yagarto/bin/../lib/gcc/arm-none-eabi/4.6.2/../../../../arm-none-eabi/lib/thumb/v7m\libc.a(lib_a-mallocr.o)
 .debug_frame   0x00000d5c       0x2c c:/users/trent smith/desktop/sjsu_dev/yagarto/bin/../lib/gcc/arm-none-eabi/4.6.2/../../../../arm-none-eabi/lib/thumb/v7m\libc.a(lib_a-memcmp.o)
 .debug_frame   0x00000d88       0x2c c:/users/trent smith/desktop/sjsu_dev/yagarto/bin/../lib/gcc/arm-none-eabi/4.6.2/../../../../arm-none-eabi/lib/thumb/v7m\libc.a(lib_a-memcpy.o)
 .debug_frame   0x00000db4       0x2c c:/users/trent smith/desktop/sjsu_dev/yagarto/bin/../lib/gcc/arm-none-eabi/4.6.2/../../../../arm-none-eabi/lib/thumb/v7m\libc.a(lib_a-memmove.o)
 .debug_frame   0x00000de0       0x2c c:/users/trent smith/desktop/sjsu_dev/yagarto/bin/../lib/gcc/arm-none-eabi/4.6.2/../../../../arm-none-eabi/lib/thumb/v7m\libc.a(lib_a-memset.o)
 .debug_frame   0x00000e0c       0x30 c:/users/trent smith/desktop/sjsu_dev/yagarto/bin/../lib/gcc/arm-none-eabi/4.6.2/../../../../arm-none-eabi/lib/thumb/v7m\libc.a(lib_a-mlock.o)
 .debug_frame   0x00000e3c       0x70 c:/users/trent smith/desktop/sjsu_dev/yagarto/bin/../lib/gcc/arm-none-eabi/4.6.2/../../../../arm-none-eabi/lib/thumb/v7m\libc.a(lib_a-mstats.o)
 .debug_frame   0x00000eac       0x30 c:/users/trent smith/desktop/sjsu_dev/yagarto/bin/../lib/gcc/arm-none-eabi/4.6.2/../../../../arm-none-eabi/lib/thumb/v7m\libc.a(lib_a-putchar.o)
 .debug_frame   0x00000edc       0x3c c:/users/trent smith/desktop/sjsu_dev/yagarto/bin/../lib/gcc/arm-none-eabi/4.6.2/../../../../arm-none-eabi/lib/thumb/v7m\libc.a(lib_a-puts.o)
 .debug_frame   0x00000f18       0x20 c:/users/trent smith/desktop/sjsu_dev/yagarto/bin/../lib/gcc/arm-none-eabi/4.6.2/../../../../arm-none-eabi/lib/thumb/v7m\libc.a(lib_a-realloc.o)
 .debug_frame   0x00000f38       0x38 c:/users/trent smith/desktop/sjsu_dev/yagarto/bin/../lib/gcc/arm-none-eabi/4.6.2/../../../../arm-none-eabi/lib/thumb/v7m\libc.a(lib_a-reallocr.o)
 .debug_frame   0x00000f70       0x3c c:/users/trent smith/desktop/sjsu_dev/yagarto/bin/../lib/gcc/arm-none-eabi/4.6.2/../../../../arm-none-eabi/lib/thumb/v7m\libc.a(lib_a-rget.o)
 .debug_frame   0x00000fac       0x2c c:/users/trent smith/desktop/sjsu_dev/yagarto/bin/../lib/gcc/arm-none-eabi/4.6.2/../../../../arm-none-eabi/lib/thumb/v7m\libc.a(lib_a-sbrkr.o)
 .debug_frame   0x00000fd8       0x34 c:/users/trent smith/desktop/sjsu_dev/yagarto/bin/../lib/gcc/arm-none-eabi/4.6.2/../../../../arm-none-eabi/lib/thumb/v7m\libc.a(lib_a-setvbuf.o)
 .debug_frame   0x0000100c       0xc0 c:/users/trent smith/desktop/sjsu_dev/yagarto/bin/../lib/gcc/arm-none-eabi/4.6.2/../../../../arm-none-eabi/lib/thumb/v7m\libc.a(lib_a-signal.o)
 .debug_frame   0x000010cc       0x3c c:/users/trent smith/desktop/sjsu_dev/yagarto/bin/../lib/gcc/arm-none-eabi/4.6.2/../../../../arm-none-eabi/lib/thumb/v7m\libc.a(lib_a-signalr.o)
 .debug_frame   0x00001108       0x2c c:/users/trent smith/desktop/sjsu_dev/yagarto/bin/../lib/gcc/arm-none-eabi/4.6.2/../../../../arm-none-eabi/lib/thumb/v7m\libc.a(lib_a-strcasecmp.o)
 .debug_frame   0x00001134       0x2c c:/users/trent smith/desktop/sjsu_dev/yagarto/bin/../lib/gcc/arm-none-eabi/4.6.2/../../../../arm-none-eabi/lib/thumb/v7m\libc.a(lib_a-strcat.o)
 .debug_frame   0x00001160       0x2c c:/users/trent smith/desktop/sjsu_dev/yagarto/bin/../lib/gcc/arm-none-eabi/4.6.2/../../../../arm-none-eabi/lib/thumb/v7m\libc.a(lib_a-strchr.o)
 .debug_frame   0x0000118c       0x30 c:/users/trent smith/desktop/sjsu_dev/yagarto/bin/../lib/gcc/arm-none-eabi/4.6.2/../../../../arm-none-eabi/lib/thumb/v7m\libc.a(lib_a-strcmp.o)
 .debug_frame   0x000011bc       0x20 c:/users/trent smith/desktop/sjsu_dev/yagarto/bin/../lib/gcc/arm-none-eabi/4.6.2/../../../../arm-none-eabi/lib/thumb/v7m\libc.a(lib_a-strcpy.o)
 .debug_frame   0x000011dc       0x20 c:/users/trent smith/desktop/sjsu_dev/yagarto/bin/../lib/gcc/arm-none-eabi/4.6.2/../../../../arm-none-eabi/lib/thumb/v7m\libc.a(lib_a-strlen.o)
 .debug_frame   0x000011fc       0x2c c:/users/trent smith/desktop/sjsu_dev/yagarto/bin/../lib/gcc/arm-none-eabi/4.6.2/../../../../arm-none-eabi/lib/thumb/v7m\libc.a(lib_a-strncasecmp.o)
 .debug_frame   0x00001228       0x30 c:/users/trent smith/desktop/sjsu_dev/yagarto/bin/../lib/gcc/arm-none-eabi/4.6.2/../../../../arm-none-eabi/lib/thumb/v7m\libc.a(lib_a-strncmp.o)
 .debug_frame   0x00001258       0x2c c:/users/trent smith/desktop/sjsu_dev/yagarto/bin/../lib/gcc/arm-none-eabi/4.6.2/../../../../arm-none-eabi/lib/thumb/v7m\libc.a(lib_a-strncpy.o)
 .debug_frame   0x00001284       0x2c c:/users/trent smith/desktop/sjsu_dev/yagarto/bin/../lib/gcc/arm-none-eabi/4.6.2/../../../../arm-none-eabi/lib/thumb/v7m\libc.a(lib_a-strpbrk.o)
 .debug_frame   0x000012b0       0x2c c:/users/trent smith/desktop/sjsu_dev/yagarto/bin/../lib/gcc/arm-none-eabi/4.6.2/../../../../arm-none-eabi/lib/thumb/v7m\libc.a(lib_a-strrchr.o)
 .debug_frame   0x000012dc       0x8c c:/users/trent smith/desktop/sjsu_dev/yagarto/bin/../lib/gcc/arm-none-eabi/4.6.2/../../../../arm-none-eabi/lib/thumb/v7m\libc.a(lib_a-strstr.o)
 .debug_frame   0x00001368       0x50 c:/users/trent smith/desktop/sjsu_dev/yagarto/bin/../lib/gcc/arm-none-eabi/4.6.2/../../../../arm-none-eabi/lib/thumb/v7m\libc.a(lib_a-strtol.o)
 .debug_frame   0x000013b8       0x28 c:/users/trent smith/desktop/sjsu_dev/yagarto/bin/../lib/gcc/arm-none-eabi/4.6.2/../../../../arm-none-eabi/lib/thumb/v7m\libc.a(lib_a-syswrite.o)
 .debug_frame   0x000013e0       0x20 c:/users/trent smith/desktop/sjsu_dev/yagarto/bin/../lib/gcc/arm-none-eabi/4.6.2/../../../../arm-none-eabi/lib/thumb/v7m\libc.a(lib_a-tolower.o)
 .debug_frame   0x00001400       0x20 c:/users/trent smith/desktop/sjsu_dev/yagarto/bin/../lib/gcc/arm-none-eabi/4.6.2/../../../../arm-none-eabi/lib/thumb/v7m\libc.a(lib_a-toupper.o)
 .debug_frame   0x00001420       0x50 c:/users/trent smith/desktop/sjsu_dev/yagarto/bin/../lib/gcc/arm-none-eabi/4.6.2/../../../../arm-none-eabi/lib/thumb/v7m\libc.a(lib_a-vsniprintf.o)
 .debug_frame   0x00001470       0x3c c:/users/trent smith/desktop/sjsu_dev/yagarto/bin/../lib/gcc/arm-none-eabi/4.6.2/../../../../arm-none-eabi/lib/thumb/v7m\libc.a(lib_a-wbuf.o)
 .debug_frame   0x000014ac       0x2c c:/users/trent smith/desktop/sjsu_dev/yagarto/bin/../lib/gcc/arm-none-eabi/4.6.2/../../../../arm-none-eabi/lib/thumb/v7m\libc.a(lib_a-writer.o)
 .debug_frame   0x000014d8       0x2c c:/users/trent smith/desktop/sjsu_dev/yagarto/bin/../lib/gcc/arm-none-eabi/4.6.2/../../../../arm-none-eabi/lib/thumb/v7m\libc.a(lib_a-wsetup.o)
 .debug_frame   0x00001504       0x40 c:/users/trent smith/desktop/sjsu_dev/yagarto/bin/../lib/gcc/arm-none-eabi/4.6.2/../../../../arm-none-eabi/lib/thumb/v7m\libc.a(lib_a-fflush.o)
 .debug_frame   0x00001544      0x120 c:/users/trent smith/desktop/sjsu_dev/yagarto/bin/../lib/gcc/arm-none-eabi/4.6.2/../../../../arm-none-eabi/lib/thumb/v7m\libc.a(lib_a-findfp.o)
 .debug_frame   0x00001664       0x58 c:/users/trent smith/desktop/sjsu_dev/yagarto/bin/../lib/gcc/arm-none-eabi/4.6.2/../../../../arm-none-eabi/lib/thumb/v7m\libc.a(lib_a-fiprintf.o)
 .debug_frame   0x000016bc       0x50 c:/users/trent smith/desktop/sjsu_dev/yagarto/bin/../lib/gcc/arm-none-eabi/4.6.2/../../../../arm-none-eabi/lib/thumb/v7m\libc.a(lib_a-freer.o)
 .debug_frame   0x0000170c       0x38 c:/users/trent smith/desktop/sjsu_dev/yagarto/bin/../lib/gcc/arm-none-eabi/4.6.2/../../../../arm-none-eabi/lib/thumb/v7m\libc.a(lib_a-fvwrite.o)
 .debug_frame   0x00001744       0x54 c:/users/trent smith/desktop/sjsu_dev/yagarto/bin/../lib/gcc/arm-none-eabi/4.6.2/../../../../arm-none-eabi/lib/thumb/v7m\libc.a(lib_a-fwalk.o)
 .debug_frame   0x00001798       0x30 c:/users/trent smith/desktop/sjsu_dev/yagarto/bin/../lib/gcc/arm-none-eabi/4.6.2/../../../../arm-none-eabi/lib/thumb/v7m\libc.a(lib_a-makebuf.o)
 .debug_frame   0x000017c8       0x4c c:/users/trent smith/desktop/sjsu_dev/yagarto/bin/../lib/gcc/arm-none-eabi/4.6.2/../../../../arm-none-eabi/lib/thumb/v7m\libc.a(lib_a-mallinfor.o)
 .debug_frame   0x00001814       0x2c c:/users/trent smith/desktop/sjsu_dev/yagarto/bin/../lib/gcc/arm-none-eabi/4.6.2/../../../../arm-none-eabi/lib/thumb/v7m\libc.a(lib_a-malloptr.o)
 .debug_frame   0x00001840       0x30 c:/users/trent smith/desktop/sjsu_dev/yagarto/bin/../lib/gcc/arm-none-eabi/4.6.2/../../../../arm-none-eabi/lib/thumb/v7m\libc.a(lib_a-mallstatsr.o)
 .debug_frame   0x00001870       0x2c c:/users/trent smith/desktop/sjsu_dev/yagarto/bin/../lib/gcc/arm-none-eabi/4.6.2/../../../../arm-none-eabi/lib/thumb/v7m\libc.a(lib_a-memchr.o)
 .debug_frame   0x0000189c       0x48 c:/users/trent smith/desktop/sjsu_dev/yagarto/bin/../lib/gcc/arm-none-eabi/4.6.2/../../../../arm-none-eabi/lib/thumb/v7m\libc.a(lib_a-putc.o)
 .debug_frame   0x000018e4       0x68 c:/users/trent smith/desktop/sjsu_dev/yagarto/bin/../lib/gcc/arm-none-eabi/4.6.2/../../../../arm-none-eabi/lib/thumb/v7m\libc.a(lib_a-reent.o)
 .debug_frame   0x0000194c       0x3c c:/users/trent smith/desktop/sjsu_dev/yagarto/bin/../lib/gcc/arm-none-eabi/4.6.2/../../../../arm-none-eabi/lib/thumb/v7m\libc.a(lib_a-refill.o)
 .debug_frame   0x00001988       0x80 c:/users/trent smith/desktop/sjsu_dev/yagarto/bin/../lib/gcc/arm-none-eabi/4.6.2/../../../../arm-none-eabi/lib/thumb/v7m\libc.a(lib_a-stdio.o)
 .debug_frame   0x00001a08       0x64 c:/users/trent smith/desktop/sjsu_dev/yagarto/bin/../lib/gcc/arm-none-eabi/4.6.2/../../../../arm-none-eabi/lib/thumb/v7m\libc.a(lib_a-svfiprintf.o)
 .debug_frame   0x00001a6c       0x7c c:/users/trent smith/desktop/sjsu_dev/yagarto/bin/../lib/gcc/arm-none-eabi/4.6.2/../../../../arm-none-eabi/lib/thumb/v7m\libc.a(lib_a-vfiprintf.o)
 .debug_frame   0x00001ae8       0x2c c:/users/trent smith/desktop/sjsu_dev/yagarto/bin/../lib/gcc/arm-none-eabi/4.6.2/../../../../arm-none-eabi/lib/thumb/v7m\libc.a(lib_a-closer.o)
 .debug_frame   0x00001b14       0x3c c:/users/trent smith/desktop/sjsu_dev/yagarto/bin/../lib/gcc/arm-none-eabi/4.6.2/../../../../arm-none-eabi/lib/thumb/v7m\libc.a(lib_a-fclose.o)
 .debug_frame   0x00001b50       0x50 c:/users/trent smith/desktop/sjsu_dev/yagarto/bin/../lib/gcc/arm-none-eabi/4.6.2/../../../../arm-none-eabi/lib/thumb/v7m\libc.a(lib_a-fputwc.o)
 .debug_frame   0x00001ba0       0x2c c:/users/trent smith/desktop/sjsu_dev/yagarto/bin/../lib/gcc/arm-none-eabi/4.6.2/../../../../arm-none-eabi/lib/thumb/v7m\libc.a(lib_a-fstatr.o)
 .debug_frame   0x00001bcc       0x2c c:/users/trent smith/desktop/sjsu_dev/yagarto/bin/../lib/gcc/arm-none-eabi/4.6.2/../../../../arm-none-eabi/lib/thumb/v7m\libc.a(lib_a-isattyr.o)
 .debug_frame   0x00001bf8       0x98 c:/users/trent smith/desktop/sjsu_dev/yagarto/bin/../lib/gcc/arm-none-eabi/4.6.2/../../../../arm-none-eabi/lib/thumb/v7m\libc.a(lib_a-locale.o)
 .debug_frame   0x00001c90       0x2c c:/users/trent smith/desktop/sjsu_dev/yagarto/bin/../lib/gcc/arm-none-eabi/4.6.2/../../../../arm-none-eabi/lib/thumb/v7m\libc.a(lib_a-lseekr.o)
 .debug_frame   0x00001cbc       0x2c c:/users/trent smith/desktop/sjsu_dev/yagarto/bin/../lib/gcc/arm-none-eabi/4.6.2/../../../../arm-none-eabi/lib/thumb/v7m\libc.a(lib_a-readr.o)
 .debug_frame   0x00001ce8       0x58 c:/users/trent smith/desktop/sjsu_dev/yagarto/bin/../lib/gcc/arm-none-eabi/4.6.2/../../../../arm-none-eabi/lib/thumb/v7m\libc.a(lib_a-wcrtomb.o)
 .debug_frame   0x00001d40       0x44 c:/users/trent smith/desktop/sjsu_dev/yagarto/bin/../lib/gcc/arm-none-eabi/4.6.2/../../../../arm-none-eabi/lib/thumb/v7m\libc.a(lib_a-wctomb_r.o)
 .debug_frame   0x00001d84       0x20 c:/users/trent smith/desktop/sjsu_dev/yagarto/bin/../lib/gcc/arm-none-eabi/4.6.2/thumb/v7m\libgcc.a(_udivsi3.o)
