   1              		.syntax unified
   2              		.cpu cortex-m3
   3              		.fpu softvfp
   4              		.eabi_attribute 20, 1
   5              		.eabi_attribute 21, 1
   6              		.eabi_attribute 23, 3
   7              		.eabi_attribute 24, 1
   8              		.eabi_attribute 25, 1
   9              		.eabi_attribute 26, 1
  10              		.eabi_attribute 30, 4
  11              		.eabi_attribute 18, 4
  12              		.thumb
  13              		.file	"str.cpp"
  14              		.text
  15              		.align	1
  16              		.global	_ZN3str5toIntEPKc
  17              		.thumb
  18              		.thumb_func
  20              	_ZN3str5toIntEPKc:
  21              		@ args = 0, pretend = 0, frame = 0
  22              		@ frame_needed = 0, uses_anonymous_args = 0
  23              		@ link register save eliminated.
  24 0000 FFF7FEBF 		b	atoi
  26              		.align	1
  27              		.global	_ZN3strD2Ev
  28              		.thumb
  29              		.thumb_func
  31              	_ZN3strD2Ev:
  32              		@ args = 0, pretend = 0, frame = 0
  33              		@ frame_needed = 0, uses_anonymous_args = 0
  34 0004 10B5     		push	{r4, lr}
  35 0006 0446     		mov	r4, r0
  36 0008 8068     		ldr	r0, [r0, #8]
  37 000a 08B1     		cbz	r0, .L3
  38 000c FFF7FEFF 		bl	_ZdlPv
  39              	.L3:
  40 0010 2046     		mov	r0, r4
  41 0012 10BD     		pop	{r4, pc}
  43              		.align	1
  44              		.global	_ZNK3str6getLenEv
  45              		.thumb
  46              		.thumb_func
  48              	_ZNK3str6getLenEv:
  49              		@ args = 0, pretend = 0, frame = 0
  50              		@ frame_needed = 0, uses_anonymous_args = 0
  51              		@ link register save eliminated.
  52 0014 8068     		ldr	r0, [r0, #8]
  53 0016 FFF7FEBF 		b	strlen
  55              		.align	1
  56              		.global	_ZNK3str11getCapacityEv
  57              		.thumb
  58              		.thumb_func
  60              	_ZNK3str11getCapacityEv:
  61              		@ args = 0, pretend = 0, frame = 0
  62              		@ frame_needed = 0, uses_anonymous_args = 0
  63              		@ link register save eliminated.
  64 001a 0068     		ldr	r0, [r0, #0]
  65 001c 7047     		bx	lr
  67              		.align	1
  68              		.global	_ZN3str5clearEv
  69              		.thumb
  70              		.thumb_func
  72              	_ZN3str5clearEv:
  73              		@ args = 0, pretend = 0, frame = 0
  74              		@ frame_needed = 0, uses_anonymous_args = 0
  75              		@ link register save eliminated.
  76 001e 8368     		ldr	r3, [r0, #8]
  77 0020 0022     		movs	r2, #0
  78 0022 1A70     		strb	r2, [r3, #0]
  79 0024 7047     		bx	lr
  81              		.align	1
  82              		.global	_ZN3str7toLowerEv
  83              		.thumb
  84              		.thumb_func
  86              	_ZN3str7toLowerEv:
  87              		@ args = 0, pretend = 0, frame = 0
  88              		@ frame_needed = 0, uses_anonymous_args = 0
  89 0026 10B5     		push	{r4, lr}
  90 0028 8468     		ldr	r4, [r0, #8]
  91 002a 03E0     		b	.L8
  92              	.L9:
  93 002c FFF7FEFF 		bl	tolower
  94 0030 04F8010C 		strb	r0, [r4, #-1]
  95              	.L8:
  96 0034 14F8010B 		ldrb	r0, [r4], #1	@ zero_extendqisi2
  97 0038 0028     		cmp	r0, #0
  98 003a F7D1     		bne	.L9
  99 003c 10BD     		pop	{r4, pc}
 101              		.align	1
 102              		.global	_ZN3str7toUpperEv
 103              		.thumb
 104              		.thumb_func
 106              	_ZN3str7toUpperEv:
 107              		@ args = 0, pretend = 0, frame = 0
 108              		@ frame_needed = 0, uses_anonymous_args = 0
 109 003e 10B5     		push	{r4, lr}
 110 0040 8468     		ldr	r4, [r0, #8]
 111 0042 03E0     		b	.L11
 112              	.L12:
 113 0044 FFF7FEFF 		bl	toupper
 114 0048 04F8010C 		strb	r0, [r4, #-1]
 115              	.L11:
 116 004c 14F8010B 		ldrb	r0, [r4], #1	@ zero_extendqisi2
 117 0050 0028     		cmp	r0, #0
 118 0052 F7D1     		bne	.L12
 119 0054 10BD     		pop	{r4, pc}
 121              		.align	1
 122              		.global	_ZNK3str9compareToEPKc
 123              		.thumb
 124              		.thumb_func
 126              	_ZNK3str9compareToEPKc:
 127              		@ args = 0, pretend = 0, frame = 0
 128              		@ frame_needed = 0, uses_anonymous_args = 0
 129 0056 08B5     		push	{r3, lr}
 130 0058 0346     		mov	r3, r0
 131 005a 0846     		mov	r0, r1
 132 005c 9968     		ldr	r1, [r3, #8]
 133 005e FFF7FEFF 		bl	strcmp
 134 0062 D0F10100 		rsbs	r0, r0, #1
 135 0066 38BF     		it	cc
 136 0068 0020     		movcc	r0, #0
 137 006a 08BD     		pop	{r3, pc}
 139              		.align	1
 140              		.global	_ZNK3str19compareToIgnoreCaseEPKc
 141              		.thumb
 142              		.thumb_func
 144              	_ZNK3str19compareToIgnoreCaseEPKc:
 145              		@ args = 0, pretend = 0, frame = 0
 146              		@ frame_needed = 0, uses_anonymous_args = 0
 147 006c 08B5     		push	{r3, lr}
 148 006e 8068     		ldr	r0, [r0, #8]
 149 0070 FFF7FEFF 		bl	strcasecmp
 150 0074 D0F10100 		rsbs	r0, r0, #1
 151 0078 38BF     		it	cc
 152 007a 0020     		movcc	r0, #0
 153 007c 08BD     		pop	{r3, pc}
 155              		.align	1
 156              		.global	_ZNK3str22getWordIndexIgnoreCaseEPKc
 157              		.thumb
 158              		.thumb_func
 160              	_ZNK3str22getWordIndexIgnoreCaseEPKc:
 161              		@ args = 0, pretend = 0, frame = 0
 162              		@ frame_needed = 0, uses_anonymous_args = 0
 163 007e 2DE9F84F 		push	{r3, r4, r5, r6, r7, r8, r9, sl, fp, lr}
 164 0082 0D78     		ldrb	r5, [r1, #0]	@ zero_extendqisi2
 165 0084 0E46     		mov	r6, r1
 166 0086 002D     		cmp	r5, #0
 167 0088 33D0     		beq	.L24
 168 008a 8468     		ldr	r4, [r0, #8]
 169 008c 4FF0FF37 		mov	r7, #-1
 170 0090 2378     		ldrb	r3, [r4, #0]	@ zero_extendqisi2
 171 0092 29E0     		b	.L26
 172              	.L22:
 173 0094 2846     		mov	r0, r5
 174 0096 FFF7FEFF 		bl	tolower
 175 009a 0146     		mov	r1, r0
 176 009c 2046     		mov	r0, r4
 177 009e FFF7FEFF 		bl	strchr
 178 00a2 38B9     		cbnz	r0, .L18
 179 00a4 2846     		mov	r0, r5
 180 00a6 FFF7FEFF 		bl	toupper
 181 00aa 0146     		mov	r1, r0
 182 00ac 2046     		mov	r0, r4
 183 00ae FFF7FEFF 		bl	strchr
 184 00b2 F0B1     		cbz	r0, .L24
 185              	.L18:
 186 00b4 071B     		subs	r7, r0, r4
 187 00b6 00F1010A 		add	sl, r0, #1
 188 00ba 8146     		mov	r9, r0
 189 00bc 3346     		mov	r3, r6
 190              	.L20:
 191 00be 19F8010F 		ldrb	r0, [r9, #1]!	@ zero_extendqisi2
 192 00c2 03F10108 		add	r8, r3, #1
 193 00c6 60B1     		cbz	r0, .L19
 194 00c8 5C78     		ldrb	r4, [r3, #1]	@ zero_extendqisi2
 195 00ca 54B1     		cbz	r4, .L19
 196 00cc FFF7FEFF 		bl	tolower
 197 00d0 8346     		mov	fp, r0
 198 00d2 2046     		mov	r0, r4
 199 00d4 FFF7FEFF 		bl	tolower
 200 00d8 8345     		cmp	fp, r0
 201 00da 4346     		mov	r3, r8
 202 00dc EFD0     		beq	.L20
 203 00de 4FF0FF37 		mov	r7, #-1
 204              	.L19:
 205 00e2 98F80030 		ldrb	r3, [r8, #0]	@ zero_extendqisi2
 206 00e6 5446     		mov	r4, sl
 207              	.L26:
 208 00e8 2BB1     		cbz	r3, .L16
 209              	.L21:
 210 00ea 2378     		ldrb	r3, [r4, #0]	@ zero_extendqisi2
 211 00ec 002B     		cmp	r3, #0
 212 00ee D1D1     		bne	.L22
 213 00f0 01E0     		b	.L16
 214              	.L24:
 215 00f2 4FF0FF37 		mov	r7, #-1
 216              	.L16:
 217 00f6 3846     		mov	r0, r7
 218 00f8 BDE8F88F 		pop	{r3, r4, r5, r6, r7, r8, r9, sl, fp, pc}
 220              		.align	1
 221              		.global	_ZNK3str18containsIgnoreCaseEPKc
 222              		.thumb
 223              		.thumb_func
 225              	_ZNK3str18containsIgnoreCaseEPKc:
 226              		@ args = 0, pretend = 0, frame = 0
 227              		@ frame_needed = 0, uses_anonymous_args = 0
 228 00fc 08B5     		push	{r3, lr}
 229 00fe FFF7FEFF 		bl	_ZNK3str22getWordIndexIgnoreCaseEPKc
 230 0102 0130     		adds	r0, r0, #1
 231 0104 18BF     		it	ne
 232 0106 0120     		movne	r0, #1
 233 0108 08BD     		pop	{r3, pc}
 235              		.align	1
 236              		.global	_ZNK3str12firstIndexOfEPKc
 237              		.thumb
 238              		.thumb_func
 240              	_ZNK3str12firstIndexOfEPKc:
 241              		@ args = 0, pretend = 0, frame = 0
 242              		@ frame_needed = 0, uses_anonymous_args = 0
 243 010a 10B5     		push	{r4, lr}
 244 010c 8468     		ldr	r4, [r0, #8]
 245 010e 2046     		mov	r0, r4
 246 0110 FFF7FEFF 		bl	strstr
 247 0114 08B1     		cbz	r0, .L30
 248 0116 001B     		subs	r0, r0, r4
 249 0118 10BD     		pop	{r4, pc}
 250              	.L30:
 251 011a 4FF0FF30 		mov	r0, #-1
 252 011e 10BD     		pop	{r4, pc}
 254              		.align	1
 255              		.global	_ZNK3str8containsEPKc
 256              		.thumb
 257              		.thumb_func
 259              	_ZNK3str8containsEPKc:
 260              		@ args = 0, pretend = 0, frame = 0
 261              		@ frame_needed = 0, uses_anonymous_args = 0
 262 0120 08B5     		push	{r3, lr}
 263 0122 FFF7FEFF 		bl	_ZNK3str12firstIndexOfEPKc
 264 0126 0130     		adds	r0, r0, #1
 265 0128 18BF     		it	ne
 266 012a 0120     		movne	r0, #1
 267 012c 08BD     		pop	{r3, pc}
 269              		.align	1
 270              		.global	_ZNK3str11lastIndexOfEPKc
 271              		.thumb
 272              		.thumb_func
 274              	_ZNK3str11lastIndexOfEPKc:
 275              		@ args = 0, pretend = 0, frame = 0
 276              		@ frame_needed = 0, uses_anonymous_args = 0
 277 012e F8B5     		push	{r3, r4, r5, r6, r7, lr}
 278 0130 0446     		mov	r4, r0
 279 0132 0846     		mov	r0, r1
 280 0134 0D46     		mov	r5, r1
 281 0136 FFF7FEFF 		bl	strlen
 282 013a A668     		ldr	r6, [r4, #8]
 283 013c 0746     		mov	r7, r0
 284 013e 2946     		mov	r1, r5
 285 0140 3046     		mov	r0, r6
 286 0142 FFF7FEFF 		bl	strstr
 287 0146 0446     		mov	r4, r0
 288 0148 0346     		mov	r3, r0
 289 014a 05E0     		b	.L33
 290              	.L34:
 291 014c E019     		adds	r0, r4, r7
 292 014e 2946     		mov	r1, r5
 293 0150 FFF7FEFF 		bl	strstr
 294 0154 2346     		mov	r3, r4
 295 0156 0446     		mov	r4, r0
 296              	.L33:
 297 0158 002C     		cmp	r4, #0
 298 015a F7D1     		bne	.L34
 299 015c 0BB1     		cbz	r3, .L36
 300 015e 981B     		subs	r0, r3, r6
 301 0160 F8BD     		pop	{r3, r4, r5, r6, r7, pc}
 302              	.L36:
 303 0162 4FF0FF30 		mov	r0, #-1
 304 0166 F8BD     		pop	{r3, r4, r5, r6, r7, pc}
 306              		.align	1
 307              		.global	_ZNK3str7countOfEPKc
 308              		.thumb
 309              		.thumb_func
 311              	_ZNK3str7countOfEPKc:
 312              		@ args = 0, pretend = 0, frame = 0
 313              		@ frame_needed = 0, uses_anonymous_args = 0
 314 0168 70B5     		push	{r4, r5, r6, lr}
 315 016a 0446     		mov	r4, r0
 316 016c 0846     		mov	r0, r1
 317 016e 0D46     		mov	r5, r1
 318 0170 FFF7FEFF 		bl	strlen
 319 0174 2946     		mov	r1, r5
 320 0176 0646     		mov	r6, r0
 321 0178 A068     		ldr	r0, [r4, #8]
 322 017a FFF7FEFF 		bl	strstr
 323 017e 0024     		movs	r4, #0
 324 0180 04E0     		b	.L38
 325              	.L39:
 326 0182 8019     		adds	r0, r0, r6
 327 0184 2946     		mov	r1, r5
 328 0186 0134     		adds	r4, r4, #1
 329 0188 FFF7FEFF 		bl	strstr
 330              	.L38:
 331 018c 0028     		cmp	r0, #0
 332 018e F8D1     		bne	.L39
 333 0190 2046     		mov	r0, r4
 334 0192 70BD     		pop	{r4, r5, r6, pc}
 336              		.align	1
 337              		.global	_ZNK3str10beginsWithEPKc
 338              		.thumb
 339              		.thumb_func
 341              	_ZNK3str10beginsWithEPKc:
 342              		@ args = 0, pretend = 0, frame = 0
 343              		@ frame_needed = 0, uses_anonymous_args = 0
 344 0194 70B5     		push	{r4, r5, r6, lr}
 345 0196 0546     		mov	r5, r0
 346 0198 0846     		mov	r0, r1
 347 019a 0E46     		mov	r6, r1
 348 019c FFF7FEFF 		bl	strlen
 349 01a0 AD68     		ldr	r5, [r5, #8]
 350 01a2 0446     		mov	r4, r0
 351 01a4 2846     		mov	r0, r5
 352 01a6 FFF7FEFF 		bl	strlen
 353 01aa A042     		cmp	r0, r4
 354 01ac 09DB     		blt	.L42
 355 01ae 2846     		mov	r0, r5
 356 01b0 3146     		mov	r1, r6
 357 01b2 2246     		mov	r2, r4
 358 01b4 FFF7FEFF 		bl	strncmp
 359 01b8 D0F10100 		rsbs	r0, r0, #1
 360 01bc 38BF     		it	cc
 361 01be 0020     		movcc	r0, #0
 362 01c0 70BD     		pop	{r4, r5, r6, pc}
 363              	.L42:
 364 01c2 0020     		movs	r0, #0
 365 01c4 70BD     		pop	{r4, r5, r6, pc}
 367              		.align	1
 368              		.global	_ZNK3str20beginsWithIgnoreCaseEPKc
 369              		.thumb
 370              		.thumb_func
 372              	_ZNK3str20beginsWithIgnoreCaseEPKc:
 373              		@ args = 0, pretend = 0, frame = 0
 374              		@ frame_needed = 0, uses_anonymous_args = 0
 375 01c6 70B5     		push	{r4, r5, r6, lr}
 376 01c8 0546     		mov	r5, r0
 377 01ca 0846     		mov	r0, r1
 378 01cc 0E46     		mov	r6, r1
 379 01ce FFF7FEFF 		bl	strlen
 380 01d2 AD68     		ldr	r5, [r5, #8]
 381 01d4 0446     		mov	r4, r0
 382 01d6 2846     		mov	r0, r5
 383 01d8 FFF7FEFF 		bl	strlen
 384 01dc A042     		cmp	r0, r4
 385 01de 09DB     		blt	.L45
 386 01e0 3046     		mov	r0, r6
 387 01e2 2946     		mov	r1, r5
 388 01e4 2246     		mov	r2, r4
 389 01e6 FFF7FEFF 		bl	strncasecmp
 390 01ea D0F10100 		rsbs	r0, r0, #1
 391 01ee 38BF     		it	cc
 392 01f0 0020     		movcc	r0, #0
 393 01f2 70BD     		pop	{r4, r5, r6, pc}
 394              	.L45:
 395 01f4 0020     		movs	r0, #0
 396 01f6 70BD     		pop	{r4, r5, r6, pc}
 398              		.align	1
 399              		.global	_ZNK3str19beginsWithWholeWordEPKcc
 400              		.thumb
 401              		.thumb_func
 403              	_ZNK3str19beginsWithWholeWordEPKcc:
 404              		@ args = 0, pretend = 0, frame = 0
 405              		@ frame_needed = 0, uses_anonymous_args = 0
 406 01f8 F8B5     		push	{r3, r4, r5, r6, r7, lr}
 407 01fa 0446     		mov	r4, r0
 408 01fc 0846     		mov	r0, r1
 409 01fe 0E46     		mov	r6, r1
 410 0200 1746     		mov	r7, r2
 411 0202 FFF7FEFF 		bl	strlen
 412 0206 A368     		ldr	r3, [r4, #8]
 413 0208 3146     		mov	r1, r6
 414 020a 1D5C     		ldrb	r5, [r3, r0]	@ zero_extendqisi2
 415 020c 2046     		mov	r0, r4
 416 020e FFF7FEFF 		bl	_ZNK3str10beginsWithEPKc
 417 0212 40B1     		cbz	r0, .L47
 418 0214 7B1B     		subs	r3, r7, r5
 419 0216 5F42     		rsbs	r7, r3, #0
 420 0218 47EB0307 		adc	r7, r7, r3
 421 021c 002D     		cmp	r5, #0
 422 021e 14BF     		ite	ne
 423 0220 3846     		movne	r0, r7
 424 0222 47F00100 		orreq	r0, r7, #1
 425              	.L47:
 426 0226 F8BD     		pop	{r3, r4, r5, r6, r7, pc}
 428              		.align	1
 429              		.global	_ZNK3str29beginsWithWholeWordIgnoreCaseEPKcc
 430              		.thumb
 431              		.thumb_func
 433              	_ZNK3str29beginsWithWholeWordIgnoreCaseEPKcc:
 434              		@ args = 0, pretend = 0, frame = 0
 435              		@ frame_needed = 0, uses_anonymous_args = 0
 436 0228 F8B5     		push	{r3, r4, r5, r6, r7, lr}
 437 022a 0446     		mov	r4, r0
 438 022c 0846     		mov	r0, r1
 439 022e 0E46     		mov	r6, r1
 440 0230 1746     		mov	r7, r2
 441 0232 FFF7FEFF 		bl	strlen
 442 0236 A368     		ldr	r3, [r4, #8]
 443 0238 3146     		mov	r1, r6
 444 023a 1D5C     		ldrb	r5, [r3, r0]	@ zero_extendqisi2
 445 023c 2046     		mov	r0, r4
 446 023e FFF7FEFF 		bl	_ZNK3str20beginsWithIgnoreCaseEPKc
 447 0242 40B1     		cbz	r0, .L50
 448 0244 7A1B     		subs	r2, r7, r5
 449 0246 5742     		rsbs	r7, r2, #0
 450 0248 47EB0207 		adc	r7, r7, r2
 451 024c 002D     		cmp	r5, #0
 452 024e 14BF     		ite	ne
 453 0250 3846     		movne	r0, r7
 454 0252 47F00100 		orreq	r0, r7, #1
 455              	.L50:
 456 0256 F8BD     		pop	{r3, r4, r5, r6, r7, pc}
 458              		.align	1
 459              		.global	_ZNK3str8endsWithEPKc
 460              		.thumb
 461              		.thumb_func
 463              	_ZNK3str8endsWithEPKc:
 464              		@ args = 0, pretend = 0, frame = 0
 465              		@ frame_needed = 0, uses_anonymous_args = 0
 466 0258 70B5     		push	{r4, r5, r6, lr}
 467 025a 0446     		mov	r4, r0
 468 025c 0846     		mov	r0, r1
 469 025e 0D46     		mov	r5, r1
 470 0260 FFF7FEFF 		bl	strlen
 471 0264 A468     		ldr	r4, [r4, #8]
 472 0266 0646     		mov	r6, r0
 473 0268 2046     		mov	r0, r4
 474 026a FFF7FEFF 		bl	strlen
 475 026e B042     		cmp	r0, r6
 476 0270 09DB     		blt	.L54
 477 0272 801B     		subs	r0, r0, r6
 478 0274 2018     		adds	r0, r4, r0
 479 0276 2946     		mov	r1, r5
 480 0278 FFF7FEFF 		bl	strcmp
 481 027c D0F10100 		rsbs	r0, r0, #1
 482 0280 38BF     		it	cc
 483 0282 0020     		movcc	r0, #0
 484 0284 70BD     		pop	{r4, r5, r6, pc}
 485              	.L54:
 486 0286 0020     		movs	r0, #0
 487 0288 70BD     		pop	{r4, r5, r6, pc}
 489              		.align	1
 490              		.global	_ZNK3str18endsWithIgnoreCaseEPKc
 491              		.thumb
 492              		.thumb_func
 494              	_ZNK3str18endsWithIgnoreCaseEPKc:
 495              		@ args = 0, pretend = 0, frame = 0
 496              		@ frame_needed = 0, uses_anonymous_args = 0
 497 028a 70B5     		push	{r4, r5, r6, lr}
 498 028c 0446     		mov	r4, r0
 499 028e 0846     		mov	r0, r1
 500 0290 0D46     		mov	r5, r1
 501 0292 FFF7FEFF 		bl	strlen
 502 0296 A468     		ldr	r4, [r4, #8]
 503 0298 0646     		mov	r6, r0
 504 029a 2046     		mov	r0, r4
 505 029c FFF7FEFF 		bl	strlen
 506 02a0 8642     		cmp	r6, r0
 507 02a2 09DC     		bgt	.L57
 508 02a4 861B     		subs	r6, r0, r6
 509 02a6 A119     		adds	r1, r4, r6
 510 02a8 2846     		mov	r0, r5
 511 02aa FFF7FEFF 		bl	strcasecmp
 512 02ae D0F10100 		rsbs	r0, r0, #1
 513 02b2 38BF     		it	cc
 514 02b4 0020     		movcc	r0, #0
 515 02b6 70BD     		pop	{r4, r5, r6, pc}
 516              	.L57:
 517 02b8 0020     		movs	r0, #0
 518 02ba 70BD     		pop	{r4, r5, r6, pc}
 520              		.align	1
 521              		.global	_ZN3str10eraseFirstEi
 522              		.thumb
 523              		.thumb_func
 525              	_ZN3str10eraseFirstEi:
 526              		@ args = 0, pretend = 0, frame = 0
 527              		@ frame_needed = 0, uses_anonymous_args = 0
 528 02bc 38B5     		push	{r3, r4, r5, lr}
 529 02be 8568     		ldr	r5, [r0, #8]
 530 02c0 0C46     		mov	r4, r1
 531 02c2 2846     		mov	r0, r5
 532 02c4 FFF7FEFF 		bl	strlen
 533 02c8 002C     		cmp	r4, #0
 534 02ca D4BF     		ite	le
 535 02cc 0023     		movle	r3, #0
 536 02ce 0123     		movgt	r3, #1
 537 02d0 8442     		cmp	r4, r0
 538 02d2 CCBF     		ite	gt
 539 02d4 0023     		movgt	r3, #0
 540 02d6 03F00103 		andle	r3, r3, #1
 541 02da 3BB1     		cbz	r3, .L58
 542 02dc 021B     		subs	r2, r0, r4
 543 02de 2919     		adds	r1, r5, r4
 544 02e0 0132     		adds	r2, r2, #1
 545 02e2 2846     		mov	r0, r5
 546 02e4 BDE83840 		pop	{r3, r4, r5, lr}
 547 02e8 FFF7FEBF 		b	memmove
 548              	.L58:
 549 02ec 38BD     		pop	{r3, r4, r5, pc}
 551              		.align	1
 552              		.global	_ZN3str9eraseLastEi
 553              		.thumb
 554              		.thumb_func
 556              	_ZN3str9eraseLastEi:
 557              		@ args = 0, pretend = 0, frame = 0
 558              		@ frame_needed = 0, uses_anonymous_args = 0
 559 02ee 38B5     		push	{r3, r4, r5, lr}
 560 02f0 8468     		ldr	r4, [r0, #8]
 561 02f2 0D46     		mov	r5, r1
 562 02f4 2046     		mov	r0, r4
 563 02f6 FFF7FEFF 		bl	strlen
 564 02fa 8542     		cmp	r5, r0
 565 02fc 02DC     		bgt	.L60
 566 02fe 451B     		subs	r5, r0, r5
 567 0300 0023     		movs	r3, #0
 568 0302 6355     		strb	r3, [r4, r5]
 569              	.L60:
 570 0304 38BD     		pop	{r3, r4, r5, pc}
 572              		.align	1
 573              		.global	_ZN3str13eraseAllAfterEi
 574              		.thumb
 575              		.thumb_func
 577              	_ZN3str13eraseAllAfterEi:
 578              		@ args = 0, pretend = 0, frame = 0
 579              		@ frame_needed = 0, uses_anonymous_args = 0
 580 0306 0029     		cmp	r1, #0
 581 0308 38B5     		push	{r3, r4, r5, lr}
 582 030a 0C46     		mov	r4, r1
 583 030c 07DB     		blt	.L62
 584 030e 8568     		ldr	r5, [r0, #8]
 585 0310 2846     		mov	r0, r5
 586 0312 FFF7FEFF 		bl	strlen
 587 0316 8442     		cmp	r4, r0
 588 0318 01DA     		bge	.L62
 589 031a 0023     		movs	r3, #0
 590 031c 2B55     		strb	r3, [r5, r4]
 591              	.L62:
 592 031e 38BD     		pop	{r3, r4, r5, pc}
 594              		.align	1
 595              		.global	_ZN3str10eraseAfterEii
 596              		.thumb
 597              		.thumb_func
 599              	_ZN3str10eraseAfterEii:
 600              		@ args = 0, pretend = 0, frame = 0
 601              		@ frame_needed = 0, uses_anonymous_args = 0
 602 0320 70B5     		push	{r4, r5, r6, lr}
 603 0322 8568     		ldr	r5, [r0, #8]
 604 0324 0C46     		mov	r4, r1
 605 0326 2846     		mov	r0, r5
 606 0328 1646     		mov	r6, r2
 607 032a FFF7FEFF 		bl	strlen
 608 032e E343     		mvns	r3, r4
 609 0330 DB0F     		lsrs	r3, r3, #31
 610 0332 8442     		cmp	r4, r0
 611 0334 ACBF     		ite	ge
 612 0336 0023     		movge	r3, #0
 613 0338 03F00103 		andlt	r3, r3, #1
 614 033c 73B1     		cbz	r3, .L64
 615 033e 002E     		cmp	r6, #0
 616 0340 0CDD     		ble	.L64
 617 0342 021B     		subs	r2, r0, r4
 618 0344 B242     		cmp	r2, r6
 619 0346 B8BF     		it	lt
 620 0348 1646     		movlt	r6, r2
 621 034a 2819     		adds	r0, r5, r4
 622 034c 921B     		subs	r2, r2, r6
 623 034e 3419     		adds	r4, r6, r4
 624 0350 2919     		adds	r1, r5, r4
 625 0352 0132     		adds	r2, r2, #1
 626 0354 BDE87040 		pop	{r4, r5, r6, lr}
 627 0358 FFF7FEBF 		b	memmove
 628              	.L64:
 629 035c 70BD     		pop	{r4, r5, r6, pc}
 631              		.align	1
 632              		.global	_ZN3str11eraseCharAtEi
 633              		.thumb
 634              		.thumb_func
 636              	_ZN3str11eraseCharAtEi:
 637              		@ args = 0, pretend = 0, frame = 0
 638              		@ frame_needed = 0, uses_anonymous_args = 0
 639              		@ link register save eliminated.
 640 035e 0122     		movs	r2, #1
 641 0360 FEE7     		b	_ZN3str10eraseAfterEii
 643              		.align	1
 644              		.global	_ZN3str5eraseEPKc
 645              		.thumb
 646              		.thumb_func
 648              	_ZN3str5eraseEPKc:
 649              		@ args = 0, pretend = 0, frame = 0
 650              		@ frame_needed = 0, uses_anonymous_args = 0
 651 0362 70B5     		push	{r4, r5, r6, lr}
 652 0364 0D46     		mov	r5, r1
 653 0366 0446     		mov	r4, r0
 654 0368 FFF7FEFF 		bl	_ZNK3str12firstIndexOfEPKc
 655 036c 411C     		adds	r1, r0, #1
 656 036e 0646     		mov	r6, r0
 657 0370 09D0     		beq	.L69
 658 0372 2846     		mov	r0, r5
 659 0374 FFF7FEFF 		bl	strlen
 660 0378 3146     		mov	r1, r6
 661 037a 0246     		mov	r2, r0
 662 037c 2046     		mov	r0, r4
 663 037e FFF7FEFF 		bl	_ZN3str10eraseAfterEii
 664 0382 0120     		movs	r0, #1
 665 0384 70BD     		pop	{r4, r5, r6, pc}
 666              	.L69:
 667 0386 0020     		movs	r0, #0
 668 0388 70BD     		pop	{r4, r5, r6, pc}
 670              		.align	1
 671              		.global	_ZN3str20eraseAllSpecialCharsEv
 672              		.thumb
 673              		.thumb_func
 675              	_ZN3str20eraseAllSpecialCharsEv:
 676              		@ args = 0, pretend = 0, frame = 0
 677              		@ frame_needed = 0, uses_anonymous_args = 0
 678 038a 70B5     		push	{r4, r5, r6, lr}
 679 038c 0546     		mov	r5, r0
 680 038e 0024     		movs	r4, #0
 681 0390 08E0     		b	.L71
 682              	.L73:
 683 0392 305D     		ldrb	r0, [r6, r4]	@ zero_extendqisi2
 684 0394 FFF7FEFF 		bl	isalnum
 685 0398 18B9     		cbnz	r0, .L72
 686 039a 2846     		mov	r0, r5
 687 039c 2146     		mov	r1, r4
 688 039e FFF7FEFF 		bl	_ZN3str11eraseCharAtEi
 689              	.L72:
 690 03a2 0134     		adds	r4, r4, #1
 691              	.L71:
 692 03a4 AE68     		ldr	r6, [r5, #8]
 693 03a6 3046     		mov	r0, r6
 694 03a8 FFF7FEFF 		bl	strlen
 695 03ac 8442     		cmp	r4, r0
 696 03ae F0DB     		blt	.L73
 697 03b0 70BD     		pop	{r4, r5, r6, pc}
 699              		.align	1
 700              		.global	_ZN3str9trimStartEPKc
 701              		.thumb
 702              		.thumb_func
 704              	_ZN3str9trimStartEPKc:
 705              		@ args = 0, pretend = 0, frame = 0
 706              		@ frame_needed = 0, uses_anonymous_args = 0
 707 03b2 2DE9F041 		push	{r4, r5, r6, r7, r8, lr}
 708 03b6 8668     		ldr	r6, [r0, #8]
 709 03b8 0446     		mov	r4, r0
 710 03ba 3046     		mov	r0, r6
 711 03bc 0F46     		mov	r7, r1
 712 03be FFF7FEFF 		bl	strlen
 713 03c2 0025     		movs	r5, #0
 714 03c4 8046     		mov	r8, r0
 715 03c6 0EE0     		b	.L75
 716              	.L80:
 717 03c8 3846     		mov	r0, r7
 718 03ca FFF7FEFF 		bl	strlen
 719 03ce 0023     		movs	r3, #0
 720 03d0 06E0     		b	.L76
 721              	.L78:
 722 03d2 F95C     		ldrb	r1, [r7, r3]	@ zero_extendqisi2
 723 03d4 725D     		ldrb	r2, [r6, r5]	@ zero_extendqisi2
 724 03d6 9142     		cmp	r1, r2
 725 03d8 01D1     		bne	.L77
 726 03da 0135     		adds	r5, r5, #1
 727 03dc 03E0     		b	.L75
 728              	.L77:
 729 03de 0133     		adds	r3, r3, #1
 730              	.L76:
 731 03e0 8342     		cmp	r3, r0
 732 03e2 F6DB     		blt	.L78
 733 03e4 01E0     		b	.L79
 734              	.L75:
 735 03e6 4545     		cmp	r5, r8
 736 03e8 EEDB     		blt	.L80
 737              	.L79:
 738 03ea 25B1     		cbz	r5, .L74
 739 03ec 2046     		mov	r0, r4
 740 03ee 2946     		mov	r1, r5
 741 03f0 BDE8F041 		pop	{r4, r5, r6, r7, r8, lr}
 742 03f4 FEE7     		b	_ZN3str10eraseFirstEi
 743              	.L74:
 744 03f6 BDE8F081 		pop	{r4, r5, r6, r7, r8, pc}
 746              		.align	1
 747              		.global	_ZN3str7trimEndEPKc
 748              		.thumb
 749              		.thumb_func
 751              	_ZN3str7trimEndEPKc:
 752              		@ args = 0, pretend = 0, frame = 0
 753              		@ frame_needed = 0, uses_anonymous_args = 0
 754 03fa F8B5     		push	{r3, r4, r5, r6, r7, lr}
 755 03fc 0446     		mov	r4, r0
 756 03fe 0846     		mov	r0, r1
 757 0400 0D46     		mov	r5, r1
 758 0402 FFF7FEFF 		bl	strlen
 759 0406 0646     		mov	r6, r0
 760 0408 A068     		ldr	r0, [r4, #8]
 761 040a FFF7FEFF 		bl	strlen
 762 040e 0021     		movs	r1, #0
 763 0410 0138     		subs	r0, r0, #1
 764 0412 0FE0     		b	.L83
 765              	.L85:
 766 0414 A268     		ldr	r2, [r4, #8]
 767 0416 15F803C0 		ldrb	ip, [r5, r3]	@ zero_extendqisi2
 768 041a 1718     		adds	r7, r2, r0
 769 041c 125C     		ldrb	r2, [r2, r0]	@ zero_extendqisi2
 770 041e 9445     		cmp	ip, r2
 771 0420 02D1     		bne	.L84
 772 0422 3970     		strb	r1, [r7, #0]
 773 0424 0138     		subs	r0, r0, #1
 774 0426 05E0     		b	.L83
 775              	.L84:
 776 0428 0133     		adds	r3, r3, #1
 777 042a 00E0     		b	.L87
 778              	.L88:
 779 042c 0023     		movs	r3, #0
 780              	.L87:
 781 042e B342     		cmp	r3, r6
 782 0430 F0DB     		blt	.L85
 783 0432 F8BD     		pop	{r3, r4, r5, r6, r7, pc}
 784              	.L83:
 785 0434 0028     		cmp	r0, #0
 786 0436 F9DA     		bge	.L88
 787 0438 F8BD     		pop	{r3, r4, r5, r6, r7, pc}
 789              		.align	1
 790              		.global	_ZNK3str10isAllAlphaEv
 791              		.thumb
 792              		.thumb_func
 794              	_ZNK3str10isAllAlphaEv:
 795              		@ args = 0, pretend = 0, frame = 0
 796              		@ frame_needed = 0, uses_anonymous_args = 0
 797 043a 70B5     		push	{r4, r5, r6, lr}
 798 043c 8568     		ldr	r5, [r0, #8]
 799 043e 0024     		movs	r4, #0
 800 0440 2846     		mov	r0, r5
 801 0442 FFF7FEFF 		bl	strlen
 802 0446 0646     		mov	r6, r0
 803 0448 04E0     		b	.L90
 804              	.L92:
 805 044a 285D     		ldrb	r0, [r5, r4]	@ zero_extendqisi2
 806 044c FFF7FEFF 		bl	isalpha
 807 0450 18B1     		cbz	r0, .L91
 808 0452 0134     		adds	r4, r4, #1
 809              	.L90:
 810 0454 B442     		cmp	r4, r6
 811 0456 F8DB     		blt	.L92
 812 0458 0120     		movs	r0, #1
 813              	.L91:
 814 045a 70BD     		pop	{r4, r5, r6, pc}
 816              		.align	1
 817              		.global	_ZNK3str14isAlphaNumericEv
 818              		.thumb
 819              		.thumb_func
 821              	_ZNK3str14isAlphaNumericEv:
 822              		@ args = 0, pretend = 0, frame = 0
 823              		@ frame_needed = 0, uses_anonymous_args = 0
 824 045c 70B5     		push	{r4, r5, r6, lr}
 825 045e 8568     		ldr	r5, [r0, #8]
 826 0460 0024     		movs	r4, #0
 827 0462 2846     		mov	r0, r5
 828 0464 FFF7FEFF 		bl	strlen
 829 0468 0646     		mov	r6, r0
 830 046a 04E0     		b	.L95
 831              	.L97:
 832 046c 285D     		ldrb	r0, [r5, r4]	@ zero_extendqisi2
 833 046e FFF7FEFF 		bl	isalnum
 834 0472 18B1     		cbz	r0, .L96
 835 0474 0134     		adds	r4, r4, #1
 836              	.L95:
 837 0476 B442     		cmp	r4, r6
 838 0478 F8DB     		blt	.L97
 839 047a 0120     		movs	r0, #1
 840              	.L96:
 841 047c 70BD     		pop	{r4, r5, r6, pc}
 843              		.align	1
 844              		.global	_ZNK3str6isUintEv
 845              		.thumb
 846              		.thumb_func
 848              	_ZNK3str6isUintEv:
 849              		@ args = 0, pretend = 0, frame = 0
 850              		@ frame_needed = 0, uses_anonymous_args = 0
 851 047e 10B5     		push	{r4, lr}
 852 0480 8468     		ldr	r4, [r0, #8]
 853 0482 2046     		mov	r0, r4
 854 0484 FFF7FEFF 		bl	strlen
 855 0488 0023     		movs	r3, #0
 856 048a 04E0     		b	.L100
 857              	.L102:
 858 048c E25C     		ldrb	r2, [r4, r3]	@ zero_extendqisi2
 859 048e 303A     		subs	r2, r2, #48
 860 0490 092A     		cmp	r2, #9
 861 0492 04D8     		bhi	.L103
 862 0494 0133     		adds	r3, r3, #1
 863              	.L100:
 864 0496 8342     		cmp	r3, r0
 865 0498 F8DB     		blt	.L102
 866 049a 0120     		movs	r0, #1
 867 049c 10BD     		pop	{r4, pc}
 868              	.L103:
 869 049e 0020     		movs	r0, #0
 870 04a0 10BD     		pop	{r4, pc}
 872              		.align	1
 873              		.global	_ZNK3str5isIntEv
 874              		.thumb
 875              		.thumb_func
 877              	_ZNK3str5isIntEv:
 878              		@ args = 0, pretend = 0, frame = 0
 879              		@ frame_needed = 0, uses_anonymous_args = 0
 880 04a2 10B5     		push	{r4, lr}
 881 04a4 8468     		ldr	r4, [r0, #8]
 882 04a6 2046     		mov	r0, r4
 883 04a8 FFF7FEFF 		bl	strlen
 884 04ac 2378     		ldrb	r3, [r4, #0]	@ zero_extendqisi2
 885 04ae A3F12D0E 		sub	lr, r3, #45
 886 04b2 DEF10003 		rsbs	r3, lr, #0
 887 04b6 43EB0E03 		adc	r3, r3, lr
 888 04ba 04E0     		b	.L105
 889              	.L107:
 890 04bc E25C     		ldrb	r2, [r4, r3]	@ zero_extendqisi2
 891 04be 303A     		subs	r2, r2, #48
 892 04c0 092A     		cmp	r2, #9
 893 04c2 04D8     		bhi	.L108
 894 04c4 0133     		adds	r3, r3, #1
 895              	.L105:
 896 04c6 8342     		cmp	r3, r0
 897 04c8 F8DB     		blt	.L107
 898 04ca 0120     		movs	r0, #1
 899 04cc 10BD     		pop	{r4, pc}
 900              	.L108:
 901 04ce 0020     		movs	r0, #0
 902 04d0 10BD     		pop	{r4, pc}
 904              		.align	1
 905              		.global	_ZNK3str24getEncryptedStringLengthEv
 906              		.thumb
 907              		.thumb_func
 909              	_ZNK3str24getEncryptedStringLengthEv:
 910              		@ args = 0, pretend = 0, frame = 0
 911              		@ frame_needed = 0, uses_anonymous_args = 0
 912              		@ link register save eliminated.
 913 04d2 4068     		ldr	r0, [r0, #4]
 914 04d4 7047     		bx	lr
 916              		.align	1
 917              		.global	_ZN3str12checksum_GetEv
 918              		.thumb
 919              		.thumb_func
 921              	_ZN3str12checksum_GetEv:
 922              		@ args = 0, pretend = 0, frame = 0
 923              		@ frame_needed = 0, uses_anonymous_args = 0
 924 04d6 10B5     		push	{r4, lr}
 925 04d8 8468     		ldr	r4, [r0, #8]
 926 04da 2046     		mov	r0, r4
 927 04dc FFF7FEFF 		bl	strlen
 928 04e0 0023     		movs	r3, #0
 929 04e2 1A46     		mov	r2, r3
 930 04e4 02E0     		b	.L111
 931              	.L112:
 932 04e6 E15C     		ldrb	r1, [r4, r3]	@ zero_extendqisi2
 933 04e8 0133     		adds	r3, r3, #1
 934 04ea 4A40     		eors	r2, r2, r1
 935              	.L111:
 936 04ec 8342     		cmp	r3, r0
 937 04ee FADB     		blt	.L112
 938 04f0 1046     		mov	r0, r2
 939 04f2 10BD     		pop	{r4, pc}
 941              		.align	1
 942              		.global	_ZN3str15checksum_RemoveEv
 943              		.thumb
 944              		.thumb_func
 946              	_ZN3str15checksum_RemoveEv:
 947              		@ args = 0, pretend = 0, frame = 0
 948              		@ frame_needed = 0, uses_anonymous_args = 0
 949 04f4 10B5     		push	{r4, lr}
 950 04f6 0449     		ldr	r1, .L114
 951 04f8 0446     		mov	r4, r0
 952 04fa FFF7FEFF 		bl	_ZNK3str11lastIndexOfEPKc
 953 04fe 0146     		mov	r1, r0
 954 0500 2046     		mov	r0, r4
 955 0502 BDE81040 		pop	{r4, lr}
 956 0506 FEE7     		b	_ZN3str13eraseAllAfterEi
 957              	.L115:
 958              		.align	2
 959              	.L114:
 960 0508 00000000 		.word	.LC0
 962              		.align	1
 963              		.global	_ZN3strmIEPKc
 964              		.thumb
 965              		.thumb_func
 967              	_ZN3strmIEPKc:
 968              		@ args = 0, pretend = 0, frame = 0
 969              		@ frame_needed = 0, uses_anonymous_args = 0
 970              		@ link register save eliminated.
 971 050c FEE7     		b	_ZN3str5eraseEPKc
 973              		.align	1
 974              		.global	_ZNK3streqEPKc
 975              		.thumb
 976              		.thumb_func
 978              	_ZNK3streqEPKc:
 979              		@ args = 0, pretend = 0, frame = 0
 980              		@ frame_needed = 0, uses_anonymous_args = 0
 981              		@ link register save eliminated.
 982 050e FEE7     		b	_ZNK3str9compareToEPKc
 984              		.align	1
 985              		.global	_ZNK3streqERKS_
 986              		.thumb
 987              		.thumb_func
 989              	_ZNK3streqERKS_:
 990              		@ args = 0, pretend = 0, frame = 0
 991              		@ frame_needed = 0, uses_anonymous_args = 0
 992              		@ link register save eliminated.
 993 0510 8968     		ldr	r1, [r1, #8]
 994 0512 FEE7     		b	_ZNK3str9compareToEPKc
 996              		.align	1
 997              		.global	_ZNK3streqEi
 998              		.thumb
 999              		.thumb_func
 1001              	_ZNK3streqEi:
 1002              		@ args = 0, pretend = 0, frame = 0
 1003              		@ frame_needed = 0, uses_anonymous_args = 0
 1004 0514 10B5     		push	{r4, lr}
 1005 0516 8068     		ldr	r0, [r0, #8]
 1006 0518 0C46     		mov	r4, r1
 1007 051a FFF7FEFF 		bl	atoi
 1008 051e C4EB000C 		rsb	ip, r4, r0
 1009 0522 DCF10000 		rsbs	r0, ip, #0
 1010 0526 40EB0C00 		adc	r0, r0, ip
 1011 052a 10BD     		pop	{r4, pc}
 1013              		.align	1
 1014              		.global	_ZNK3strneEPKc
 1015              		.thumb
 1016              		.thumb_func
 1018              	_ZNK3strneEPKc:
 1019              		@ args = 0, pretend = 0, frame = 0
 1020              		@ frame_needed = 0, uses_anonymous_args = 0
 1021 052c 08B5     		push	{r3, lr}
 1022 052e FFF7FEFF 		bl	_ZNK3str9compareToEPKc
 1023 0532 80F00100 		eor	r0, r0, #1
 1024 0536 C0B2     		uxtb	r0, r0
 1025 0538 08BD     		pop	{r3, pc}
 1027              		.align	1
 1028              		.global	_ZNK3strneEi
 1029              		.thumb
 1030              		.thumb_func
 1032              	_ZNK3strneEi:
 1033              		@ args = 0, pretend = 0, frame = 0
 1034              		@ frame_needed = 0, uses_anonymous_args = 0
 1035 053a 10B5     		push	{r4, lr}
 1036 053c 8068     		ldr	r0, [r0, #8]
 1037 053e 0C46     		mov	r4, r1
 1038 0540 FFF7FEFF 		bl	atoi
 1039 0544 001B     		subs	r0, r0, r4
 1040 0546 18BF     		it	ne
 1041 0548 0120     		movne	r0, #1
 1042 054a 10BD     		pop	{r4, pc}
 1044              		.align	1
 1045              		.global	_ZNK3strltEPKc
 1046              		.thumb
 1047              		.thumb_func
 1049              	_ZNK3strltEPKc:
 1050              		@ args = 0, pretend = 0, frame = 0
 1051              		@ frame_needed = 0, uses_anonymous_args = 0
 1052 054c 08B5     		push	{r3, lr}
 1053 054e 8068     		ldr	r0, [r0, #8]
 1054 0550 FFF7FEFF 		bl	strcmp
 1055 0554 C00F     		lsrs	r0, r0, #31
 1056 0556 08BD     		pop	{r3, pc}
 1058              		.align	1
 1059              		.global	_ZNK3strltEi
 1060              		.thumb
 1061              		.thumb_func
 1063              	_ZNK3strltEi:
 1064              		@ args = 0, pretend = 0, frame = 0
 1065              		@ frame_needed = 0, uses_anonymous_args = 0
 1066 0558 10B5     		push	{r4, lr}
 1067 055a 8068     		ldr	r0, [r0, #8]
 1068 055c 0C46     		mov	r4, r1
 1069 055e FFF7FEFF 		bl	atoi
 1070 0562 A042     		cmp	r0, r4
 1071 0564 ACBF     		ite	ge
 1072 0566 0020     		movge	r0, #0
 1073 0568 0120     		movlt	r0, #1
 1074 056a 10BD     		pop	{r4, pc}
 1076              		.align	1
 1077              		.global	_ZNK3strgtEPKc
 1078              		.thumb
 1079              		.thumb_func
 1081              	_ZNK3strgtEPKc:
 1082              		@ args = 0, pretend = 0, frame = 0
 1083              		@ frame_needed = 0, uses_anonymous_args = 0
 1084 056c 08B5     		push	{r3, lr}
 1085 056e 8068     		ldr	r0, [r0, #8]
 1086 0570 FFF7FEFF 		bl	strcmp
 1087 0574 0028     		cmp	r0, #0
 1088 0576 D4BF     		ite	le
 1089 0578 0020     		movle	r0, #0
 1090 057a 0120     		movgt	r0, #1
 1091 057c 08BD     		pop	{r3, pc}
 1093              		.align	1
 1094              		.global	_ZNK3strgtEi
 1095              		.thumb
 1096              		.thumb_func
 1098              	_ZNK3strgtEi:
 1099              		@ args = 0, pretend = 0, frame = 0
 1100              		@ frame_needed = 0, uses_anonymous_args = 0
 1101 057e 10B5     		push	{r4, lr}
 1102 0580 8068     		ldr	r0, [r0, #8]
 1103 0582 0C46     		mov	r4, r1
 1104 0584 FFF7FEFF 		bl	atoi
 1105 0588 A042     		cmp	r0, r4
 1106 058a D4BF     		ite	le
 1107 058c 0020     		movle	r0, #0
 1108 058e 0120     		movgt	r0, #1
 1109 0590 10BD     		pop	{r4, pc}
 1111              		.align	1
 1112              		.global	_ZNK3strleEPKc
 1113              		.thumb
 1114              		.thumb_func
 1116              	_ZNK3strleEPKc:
 1117              		@ args = 0, pretend = 0, frame = 0
 1118              		@ frame_needed = 0, uses_anonymous_args = 0
 1119 0592 08B5     		push	{r3, lr}
 1120 0594 8068     		ldr	r0, [r0, #8]
 1121 0596 FFF7FEFF 		bl	strcmp
 1122 059a 0028     		cmp	r0, #0
 1123 059c CCBF     		ite	gt
 1124 059e 0020     		movgt	r0, #0
 1125 05a0 0120     		movle	r0, #1
 1126 05a2 08BD     		pop	{r3, pc}
 1128              		.align	1
 1129              		.global	_ZNK3strleEi
 1130              		.thumb
 1131              		.thumb_func
 1133              	_ZNK3strleEi:
 1134              		@ args = 0, pretend = 0, frame = 0
 1135              		@ frame_needed = 0, uses_anonymous_args = 0
 1136 05a4 10B5     		push	{r4, lr}
 1137 05a6 8068     		ldr	r0, [r0, #8]
 1138 05a8 0C46     		mov	r4, r1
 1139 05aa FFF7FEFF 		bl	atoi
 1140 05ae A042     		cmp	r0, r4
 1141 05b0 CCBF     		ite	gt
 1142 05b2 0020     		movgt	r0, #0
 1143 05b4 0120     		movle	r0, #1
 1144 05b6 10BD     		pop	{r4, pc}
 1146              		.align	1
 1147              		.global	_ZNK3strgeEPKc
 1148              		.thumb
 1149              		.thumb_func
 1151              	_ZNK3strgeEPKc:
 1152              		@ args = 0, pretend = 0, frame = 0
 1153              		@ frame_needed = 0, uses_anonymous_args = 0
 1154 05b8 08B5     		push	{r3, lr}
 1155 05ba 8068     		ldr	r0, [r0, #8]
 1156 05bc FFF7FEFF 		bl	strcmp
 1157 05c0 C043     		mvns	r0, r0
 1158 05c2 C00F     		lsrs	r0, r0, #31
 1159 05c4 08BD     		pop	{r3, pc}
 1161              		.align	1
 1162              		.global	_ZNK3strgeEi
 1163              		.thumb
 1164              		.thumb_func
 1166              	_ZNK3strgeEi:
 1167              		@ args = 0, pretend = 0, frame = 0
 1168              		@ frame_needed = 0, uses_anonymous_args = 0
 1169 05c6 10B5     		push	{r4, lr}
 1170 05c8 8068     		ldr	r0, [r0, #8]
 1171 05ca 0C46     		mov	r4, r1
 1172 05cc FFF7FEFF 		bl	atoi
 1173 05d0 A042     		cmp	r0, r4
 1174 05d2 B4BF     		ite	lt
 1175 05d4 0020     		movlt	r0, #0
 1176 05d6 0120     		movge	r0, #1
 1177 05d8 10BD     		pop	{r4, pc}
 1179              		.align	1
 1180              		.global	_ZNK3strclEv
 1181              		.thumb
 1182              		.thumb_func
 1184              	_ZNK3strclEv:
 1185              		@ args = 0, pretend = 0, frame = 0
 1186              		@ frame_needed = 0, uses_anonymous_args = 0
 1187              		@ link register save eliminated.
 1188 05da 8068     		ldr	r0, [r0, #8]
 1189 05dc 7047     		bx	lr
 1191              		.align	1
 1192              		.global	_ZNK3strcviEv
 1193              		.thumb
 1194              		.thumb_func
 1196              	_ZNK3strcviEv:
 1197              		@ args = 0, pretend = 0, frame = 0
 1198              		@ frame_needed = 0, uses_anonymous_args = 0
 1199              		@ link register save eliminated.
 1200 05de 8068     		ldr	r0, [r0, #8]
 1201 05e0 FFF7FEBF 		b	atoi
 1203              		.align	1
 1204              		.global	_ZN3strixEi
 1205              		.thumb
 1206              		.thumb_func
 1208              	_ZN3strixEi:
 1209              		@ args = 0, pretend = 0, frame = 0
 1210              		@ frame_needed = 0, uses_anonymous_args = 0
 1211 05e4 38B5     		push	{r3, r4, r5, lr}
 1212 05e6 8468     		ldr	r4, [r0, #8]
 1213 05e8 0D46     		mov	r5, r1
 1214 05ea 2046     		mov	r0, r4
 1215 05ec FFF7FEFF 		bl	strlen
 1216 05f0 8542     		cmp	r5, r0
 1217 05f2 B8BF     		it	lt
 1218 05f4 6419     		addlt	r4, r4, r5
 1219 05f6 2046     		mov	r0, r4
 1220 05f8 38BD     		pop	{r3, r4, r5, pc}
 1222              		.align	1
 1223              		.global	_ZN3str13reAllocateMemEi
 1224              		.thumb
 1225              		.thumb_func
 1227              	_ZN3str13reAllocateMemEi:
 1228              		@ args = 0, pretend = 0, frame = 0
 1229              		@ frame_needed = 0, uses_anonymous_args = 0
 1230 05fa 70B5     		push	{r4, r5, r6, lr}
 1231 05fc 8668     		ldr	r6, [r0, #8]
 1232 05fe 0446     		mov	r4, r0
 1233 0600 0D46     		mov	r5, r1
 1234 0602 2160     		str	r1, [r4, #0]
 1235 0604 0131     		adds	r1, r1, #1
 1236 0606 4EB9     		cbnz	r6, .L135
 1237 0608 0846     		mov	r0, r1
 1238 060a FFF7FEFF 		bl	malloc
 1239 060e 3146     		mov	r1, r6
 1240 0610 2A46     		mov	r2, r5
 1241 0612 A060     		str	r0, [r4, #8]
 1242 0614 BDE87040 		pop	{r4, r5, r6, lr}
 1243 0618 FFF7FEBF 		b	memset
 1244              	.L135:
 1245 061c 3046     		mov	r0, r6
 1246 061e FFF7FEFF 		bl	realloc
 1247 0622 A060     		str	r0, [r4, #8]
 1248 0624 70BD     		pop	{r4, r5, r6, pc}
 1250              		.align	1
 1251              		.global	_ZN3str26ensureMemoryToInsertNCharsEi
 1252              		.thumb
 1253              		.thumb_func
 1255              	_ZN3str26ensureMemoryToInsertNCharsEi:
 1256              		@ args = 0, pretend = 0, frame = 0
 1257              		@ frame_needed = 0, uses_anonymous_args = 0
 1258 0626 38B5     		push	{r3, r4, r5, lr}
 1259 0628 0446     		mov	r4, r0
 1260 062a 8068     		ldr	r0, [r0, #8]
 1261 062c 0D46     		mov	r5, r1
 1262 062e FFF7FEFF 		bl	strlen
 1263 0632 2368     		ldr	r3, [r4, #0]
 1264 0634 2918     		adds	r1, r5, r0
 1265 0636 8B42     		cmp	r3, r1
 1266 0638 04DA     		bge	.L136
 1267 063a 2031     		adds	r1, r1, #32
 1268 063c 2046     		mov	r0, r4
 1269 063e BDE83840 		pop	{r3, r4, r5, lr}
 1270 0642 FEE7     		b	_ZN3str13reAllocateMemEi
 1271              	.L136:
 1272 0644 38BD     		pop	{r3, r4, r5, pc}
 1274              		.align	1
 1275              		.global	_ZN3str8insertAtEiPKc
 1276              		.thumb
 1277              		.thumb_func
 1279              	_ZN3str8insertAtEiPKc:
 1280              		@ args = 0, pretend = 0, frame = 0
 1281              		@ frame_needed = 0, uses_anonymous_args = 0
 1282 0646 2DE9F041 		push	{r4, r5, r6, r7, r8, lr}
 1283 064a 0646     		mov	r6, r0
 1284 064c 1046     		mov	r0, r2
 1285 064e 0C46     		mov	r4, r1
 1286 0650 1746     		mov	r7, r2
 1287 0652 FFF7FEFF 		bl	strlen
 1288 0656 0546     		mov	r5, r0
 1289 0658 2946     		mov	r1, r5
 1290 065a 3046     		mov	r0, r6
 1291 065c FFF7FEFF 		bl	_ZN3str26ensureMemoryToInsertNCharsEi
 1292 0660 002C     		cmp	r4, #0
 1293 0662 19DB     		blt	.L138
 1294 0664 D6F80880 		ldr	r8, [r6, #8]
 1295 0668 4046     		mov	r0, r8
 1296 066a FFF7FEFF 		bl	strlen
 1297 066e 8442     		cmp	r4, r0
 1298 0670 0246     		mov	r2, r0
 1299 0672 11DC     		bgt	.L138
 1300 0674 002D     		cmp	r5, #0
 1301 0676 0FDD     		ble	.L138
 1302 0678 2819     		adds	r0, r5, r4
 1303 067a 121B     		subs	r2, r2, r4
 1304 067c 08EB0401 		add	r1, r8, r4
 1305 0680 0132     		adds	r2, r2, #1
 1306 0682 4044     		add	r0, r8, r0
 1307 0684 FFF7FEFF 		bl	memmove
 1308 0688 B068     		ldr	r0, [r6, #8]
 1309 068a 3946     		mov	r1, r7
 1310 068c 0019     		adds	r0, r0, r4
 1311 068e 2A46     		mov	r2, r5
 1312 0690 BDE8F041 		pop	{r4, r5, r6, r7, r8, lr}
 1313 0694 FFF7FEBF 		b	memcpy
 1314              	.L138:
 1315 0698 BDE8F081 		pop	{r4, r5, r6, r7, r8, pc}
 1317              		.align	1
 1318              		.global	_ZN3str10replaceAllEPKcS1_
 1319              		.thumb
 1320              		.thumb_func
 1322              	_ZN3str10replaceAllEPKcS1_:
 1323              		@ args = 0, pretend = 0, frame = 0
 1324              		@ frame_needed = 0, uses_anonymous_args = 0
 1325 069c 2DE9F041 		push	{r4, r5, r6, r7, r8, lr}
 1326 06a0 0546     		mov	r5, r0
 1327 06a2 0F46     		mov	r7, r1
 1328 06a4 9046     		mov	r8, r2
 1329 06a6 0024     		movs	r4, #0
 1330 06a8 0DE0     		b	.L141
 1331              	.L142:
 1332 06aa 3846     		mov	r0, r7
 1333 06ac FFF7FEFF 		bl	strlen
 1334 06b0 3146     		mov	r1, r6
 1335 06b2 0246     		mov	r2, r0
 1336 06b4 2846     		mov	r0, r5
 1337 06b6 FFF7FEFF 		bl	_ZN3str10eraseAfterEii
 1338 06ba 2846     		mov	r0, r5
 1339 06bc 3146     		mov	r1, r6
 1340 06be 4246     		mov	r2, r8
 1341 06c0 FFF7FEFF 		bl	_ZN3str8insertAtEiPKc
 1342 06c4 0134     		adds	r4, r4, #1
 1343              	.L141:
 1344 06c6 2846     		mov	r0, r5
 1345 06c8 3946     		mov	r1, r7
 1346 06ca FFF7FEFF 		bl	_ZNK3str12firstIndexOfEPKc
 1347 06ce 431C     		adds	r3, r0, #1
 1348 06d0 0646     		mov	r6, r0
 1349 06d2 EAD1     		bne	.L142
 1350 06d4 2046     		mov	r0, r4
 1351 06d6 BDE8F081 		pop	{r4, r5, r6, r7, r8, pc}
 1353              		.align	1
 1354              		.global	_ZN3str11replaceLastEPKcS1_
 1355              		.thumb
 1356              		.thumb_func
 1358              	_ZN3str11replaceLastEPKcS1_:
 1359              		@ args = 0, pretend = 0, frame = 0
 1360              		@ frame_needed = 0, uses_anonymous_args = 0
 1361 06da F8B5     		push	{r3, r4, r5, r6, r7, lr}
 1362 06dc 1746     		mov	r7, r2
 1363 06de 0546     		mov	r5, r0
 1364 06e0 0E46     		mov	r6, r1
 1365 06e2 FFF7FEFF 		bl	_ZNK3str11lastIndexOfEPKc
 1366 06e6 421C     		adds	r2, r0, #1
 1367 06e8 0446     		mov	r4, r0
 1368 06ea 0ED0     		beq	.L145
 1369 06ec 3046     		mov	r0, r6
 1370 06ee FFF7FEFF 		bl	strlen
 1371 06f2 2146     		mov	r1, r4
 1372 06f4 0246     		mov	r2, r0
 1373 06f6 2846     		mov	r0, r5
 1374 06f8 FFF7FEFF 		bl	_ZN3str10eraseAfterEii
 1375 06fc 2846     		mov	r0, r5
 1376 06fe 2146     		mov	r1, r4
 1377 0700 3A46     		mov	r2, r7
 1378 0702 FFF7FEFF 		bl	_ZN3str8insertAtEiPKc
 1379 0706 0120     		movs	r0, #1
 1380 0708 F8BD     		pop	{r3, r4, r5, r6, r7, pc}
 1381              	.L145:
 1382 070a 0020     		movs	r0, #0
 1383 070c F8BD     		pop	{r3, r4, r5, r6, r7, pc}
 1385              		.align	1
 1386              		.global	_ZN3str12replaceFirstEPKcS1_
 1387              		.thumb
 1388              		.thumb_func
 1390              	_ZN3str12replaceFirstEPKcS1_:
 1391              		@ args = 0, pretend = 0, frame = 0
 1392              		@ frame_needed = 0, uses_anonymous_args = 0
 1393 070e F8B5     		push	{r3, r4, r5, r6, r7, lr}
 1394 0710 0E46     		mov	r6, r1
 1395 0712 0546     		mov	r5, r0
 1396 0714 1746     		mov	r7, r2
 1397 0716 FFF7FEFF 		bl	_ZNK3str12firstIndexOfEPKc
 1398 071a 411C     		adds	r1, r0, #1
 1399 071c 0446     		mov	r4, r0
 1400 071e 0ED0     		beq	.L148
 1401 0720 3046     		mov	r0, r6
 1402 0722 FFF7FEFF 		bl	strlen
 1403 0726 2146     		mov	r1, r4
 1404 0728 0246     		mov	r2, r0
 1405 072a 2846     		mov	r0, r5
 1406 072c FFF7FEFF 		bl	_ZN3str10eraseAfterEii
 1407 0730 2846     		mov	r0, r5
 1408 0732 2146     		mov	r1, r4
 1409 0734 3A46     		mov	r2, r7
 1410 0736 FFF7FEFF 		bl	_ZN3str8insertAtEiPKc
 1411 073a 0120     		movs	r0, #1
 1412 073c F8BD     		pop	{r3, r4, r5, r6, r7, pc}
 1413              	.L148:
 1414 073e 0020     		movs	r0, #0
 1415 0740 F8BD     		pop	{r3, r4, r5, r6, r7, pc}
 1417              		.align	1
 1418              		.global	_ZN3str11insertAtBegEPKc
 1419              		.thumb
 1420              		.thumb_func
 1422              	_ZN3str11insertAtBegEPKc:
 1423              		@ args = 0, pretend = 0, frame = 0
 1424              		@ frame_needed = 0, uses_anonymous_args = 0
 1425              		@ link register save eliminated.
 1426 0742 0A46     		mov	r2, r1
 1427 0744 0021     		movs	r1, #0
 1428 0746 FEE7     		b	_ZN3str8insertAtEiPKc
 1430              		.align	1
 1431              		.global	_ZN3str11insertAtEndEPKc
 1432              		.thumb
 1433              		.thumb_func
 1435              	_ZN3str11insertAtEndEPKc:
 1436              		@ args = 0, pretend = 0, frame = 0
 1437              		@ frame_needed = 0, uses_anonymous_args = 0
 1438 0748 38B5     		push	{r3, r4, r5, lr}
 1439 074a 0546     		mov	r5, r0
 1440 074c 0846     		mov	r0, r1
 1441 074e 0C46     		mov	r4, r1
 1442 0750 FFF7FEFF 		bl	strlen
 1443 0754 0146     		mov	r1, r0
 1444 0756 2846     		mov	r0, r5
 1445 0758 FFF7FEFF 		bl	_ZN3str26ensureMemoryToInsertNCharsEi
 1446 075c A868     		ldr	r0, [r5, #8]
 1447 075e 2146     		mov	r1, r4
 1448 0760 BDE83840 		pop	{r3, r4, r5, lr}
 1449 0764 FFF7FEBF 		b	strcat
 1451              		.align	1
 1452              		.global	_ZN3str6appendEPKc
 1453              		.thumb
 1454              		.thumb_func
 1456              	_ZN3str6appendEPKc:
 1457              		@ args = 0, pretend = 0, frame = 0
 1458              		@ frame_needed = 0, uses_anonymous_args = 0
 1459              		@ link register save eliminated.
 1460 0768 FEE7     		b	_ZN3str11insertAtEndEPKc
 1462              		.align	1
 1463              		.global	_ZN3strpLEc
 1464              		.thumb
 1465              		.thumb_func
 1467              	_ZN3strpLEc:
 1468              		@ args = 0, pretend = 0, frame = 8
 1469              		@ frame_needed = 0, uses_anonymous_args = 0
 1470 076a 07B5     		push	{r0, r1, r2, lr}
 1471 076c 0023     		movs	r3, #0
 1472 076e ADF80430 		strh	r3, [sp, #4]	@ movhi
 1473 0772 02AB     		add	r3, sp, #8
 1474 0774 03F8041D 		strb	r1, [r3, #-4]!
 1475 0778 1946     		mov	r1, r3
 1476 077a FFF7FEFF 		bl	_ZN3str11insertAtEndEPKc
 1477 077e 0EBD     		pop	{r1, r2, r3, pc}
 1479              		.align	1
 1480              		.global	_ZN3strpLEPKc
 1481              		.thumb
 1482              		.thumb_func
 1484              	_ZN3strpLEPKc:
 1485              		@ args = 0, pretend = 0, frame = 0
 1486              		@ frame_needed = 0, uses_anonymous_args = 0
 1487              		@ link register save eliminated.
 1488 0780 FEE7     		b	_ZN3str11insertAtEndEPKc
 1490              		.align	1
 1491              		.global	_ZN3str11appendAsHexEj
 1492              		.thumb
 1493              		.thumb_func
 1495              	_ZN3str11appendAsHexEj:
 1496              		@ args = 0, pretend = 0, frame = 32
 1497              		@ frame_needed = 0, uses_anonymous_args = 0
 1498 0782 10B5     		push	{r4, lr}
 1499 0784 88B0     		sub	sp, sp, #32
 1500 0786 0446     		mov	r4, r0
 1501 0788 0A46     		mov	r2, r1
 1502 078a 6846     		mov	r0, sp
 1503 078c 0449     		ldr	r1, .L155
 1504 078e FFF7FEFF 		bl	sprintf
 1505 0792 2046     		mov	r0, r4
 1506 0794 6946     		mov	r1, sp
 1507 0796 FFF7FEFF 		bl	_ZN3str11insertAtEndEPKc
 1508 079a 08B0     		add	sp, sp, #32
 1509 079c 10BD     		pop	{r4, pc}
 1510              	.L156:
 1511 079e 00BF     		.align	2
 1512              	.L155:
 1513 07a0 02000000 		.word	.LC1
 1515              		.align	1
 1516              		.global	_ZN3str15checksum_AppendEv
 1517              		.thumb
 1518              		.thumb_func
 1520              	_ZN3str15checksum_AppendEv:
 1521              		@ args = 0, pretend = 0, frame = 0
 1522              		@ frame_needed = 0, uses_anonymous_args = 0
 1523 07a4 38B5     		push	{r3, r4, r5, lr}
 1524 07a6 0446     		mov	r4, r0
 1525 07a8 FFF7FEFF 		bl	_ZN3str12checksum_GetEv
 1526 07ac 0449     		ldr	r1, .L158
 1527 07ae 0546     		mov	r5, r0
 1528 07b0 2046     		mov	r0, r4
 1529 07b2 FFF7FEFF 		bl	_ZN3str11insertAtEndEPKc
 1530 07b6 2046     		mov	r0, r4
 1531 07b8 2946     		mov	r1, r5
 1532 07ba BDE83840 		pop	{r3, r4, r5, lr}
 1533 07be FEE7     		b	_ZN3str11appendAsHexEj
 1534              	.L159:
 1535              		.align	2
 1536              	.L158:
 1537 07c0 00000000 		.word	.LC0
 1539              		.align	1
 1540              		.global	_ZN3str6appendEi
 1541              		.thumb
 1542              		.thumb_func
 1544              	_ZN3str6appendEi:
 1545              		@ args = 0, pretend = 0, frame = 32
 1546              		@ frame_needed = 0, uses_anonymous_args = 0
 1547 07c4 10B5     		push	{r4, lr}
 1548 07c6 88B0     		sub	sp, sp, #32
 1549 07c8 0446     		mov	r4, r0
 1550 07ca 0A46     		mov	r2, r1
 1551 07cc 6846     		mov	r0, sp
 1552 07ce 0449     		ldr	r1, .L161
 1553 07d0 FFF7FEFF 		bl	sprintf
 1554 07d4 2046     		mov	r0, r4
 1555 07d6 6946     		mov	r1, sp
 1556 07d8 FFF7FEFF 		bl	_ZN3str11insertAtEndEPKc
 1557 07dc 08B0     		add	sp, sp, #32
 1558 07de 10BD     		pop	{r4, pc}
 1559              	.L162:
 1560              		.align	2
 1561              	.L161:
 1562 07e0 07000000 		.word	.LC2
 1564              		.align	1
 1565              		.global	_ZN3strC2Ei
 1566              		.thumb
 1567              		.thumb_func
 1569              	_ZN3strC2Ei:
 1570              		@ args = 0, pretend = 0, frame = 0
 1571              		@ frame_needed = 0, uses_anonymous_args = 0
 1572 07e4 0023     		movs	r3, #0
 1573 07e6 10B5     		push	{r4, lr}
 1574 07e8 0446     		mov	r4, r0
 1575 07ea 0360     		str	r3, [r0, #0]
 1576 07ec 4360     		str	r3, [r0, #4]
 1577 07ee 8360     		str	r3, [r0, #8]
 1578 07f0 C360     		str	r3, [r0, #12]
 1579 07f2 0361     		str	r3, [r0, #16]
 1580 07f4 FFF7FEFF 		bl	_ZN3str13reAllocateMemEi
 1581 07f8 2046     		mov	r0, r4
 1582 07fa 10BD     		pop	{r4, pc}
 1584              		.align	1
 1585              		.global	_ZN3strC2Ev
 1586              		.thumb
 1587              		.thumb_func
 1589              	_ZN3strC2Ev:
 1590              		@ args = 0, pretend = 0, frame = 0
 1591              		@ frame_needed = 0, uses_anonymous_args = 0
 1592 07fc 0023     		movs	r3, #0
 1593 07fe 10B5     		push	{r4, lr}
 1594 0800 1021     		movs	r1, #16
 1595 0802 0446     		mov	r4, r0
 1596 0804 0360     		str	r3, [r0, #0]
 1597 0806 4360     		str	r3, [r0, #4]
 1598 0808 8360     		str	r3, [r0, #8]
 1599 080a C360     		str	r3, [r0, #12]
 1600 080c 0361     		str	r3, [r0, #16]
 1601 080e FFF7FEFF 		bl	_ZN3str13reAllocateMemEi
 1602 0812 2046     		mov	r0, r4
 1603 0814 10BD     		pop	{r4, pc}
 1605              		.align	1
 1606              		.global	_ZN3str7reserveEi
 1607              		.thumb
 1608              		.thumb_func
 1610              	_ZN3str7reserveEi:
 1611              		@ args = 0, pretend = 0, frame = 0
 1612              		@ frame_needed = 0, uses_anonymous_args = 0
 1613              		@ link register save eliminated.
 1614 0816 0368     		ldr	r3, [r0, #0]
 1615 0818 8B42     		cmp	r3, r1
 1616 081a 00DA     		bge	.L167
 1617 081c FEE7     		b	_ZN3str13reAllocateMemEi
 1618              	.L167:
 1619 081e 7047     		bx	lr
 1621              		.align	1
 1622              		.global	_ZN3str9subStringEii
 1623              		.thumb
 1624              		.thumb_func
 1626              	_ZN3str9subStringEii:
 1627              		@ args = 0, pretend = 0, frame = 0
 1628              		@ frame_needed = 0, uses_anonymous_args = 0
 1629 0820 2DE9F843 		push	{r3, r4, r5, r6, r7, r8, r9, lr}
 1630 0824 C368     		ldr	r3, [r0, #12]
 1631 0826 0546     		mov	r5, r0
 1632 0828 0E46     		mov	r6, r1
 1633 082a 9046     		mov	r8, r2
 1634 082c 33B9     		cbnz	r3, .L170
 1635 082e 1420     		movs	r0, #20
 1636 0830 FFF7FEFF 		bl	_Znwj
 1637 0834 0446     		mov	r4, r0
 1638 0836 FFF7FEFF 		bl	_ZN3strC1Ev
 1639 083a EC60     		str	r4, [r5, #12]
 1640              	.L170:
 1641 083c EC68     		ldr	r4, [r5, #12]
 1642 083e 0027     		movs	r7, #0
 1643 0840 A368     		ldr	r3, [r4, #8]
 1644 0842 1F70     		strb	r7, [r3, #0]
 1645 0844 A868     		ldr	r0, [r5, #8]
 1646 0846 FFF7FEFF 		bl	strlen
 1647 084a 0146     		mov	r1, r0
 1648 084c 2046     		mov	r0, r4
 1649 084e FFF7FEFF 		bl	_ZN3str7reserveEi
 1650 0852 BE42     		cmp	r6, r7
 1651 0854 14DB     		blt	.L171
 1652 0856 D5F80890 		ldr	r9, [r5, #8]
 1653 085a 4846     		mov	r0, r9
 1654 085c FFF7FEFF 		bl	strlen
 1655 0860 8642     		cmp	r6, r0
 1656 0862 0DDA     		bge	.L171
 1657 0864 B845     		cmp	r8, r7
 1658 0866 0BDD     		ble	.L171
 1659 0868 851B     		subs	r5, r0, r6
 1660 086a 4545     		cmp	r5, r8
 1661 086c A8BF     		it	ge
 1662 086e 4546     		movge	r5, r8
 1663 0870 A068     		ldr	r0, [r4, #8]
 1664 0872 09EB0601 		add	r1, r9, r6
 1665 0876 2A46     		mov	r2, r5
 1666 0878 FFF7FEFF 		bl	memcpy
 1667 087c A368     		ldr	r3, [r4, #8]
 1668 087e 5F55     		strb	r7, [r3, r5]
 1669              	.L171:
 1670 0880 2046     		mov	r0, r4
 1671 0882 BDE8F883 		pop	{r3, r4, r5, r6, r7, r8, r9, pc}
 1673              		.align	1
 1674              		.global	_ZN3str8getTokenEPKcb
 1675              		.thumb
 1676              		.thumb_func
 1678              	_ZN3str8getTokenEPKcb:
 1679              		@ args = 0, pretend = 0, frame = 0
 1680              		@ frame_needed = 0, uses_anonymous_args = 0
 1681 0886 F8B5     		push	{r3, r4, r5, r6, r7, lr}
 1682 0888 0446     		mov	r4, r0
 1683 088a 0AB9     		cbnz	r2, .L173
 1684 088c 0369     		ldr	r3, [r0, #16]
 1685 088e 0BB9     		cbnz	r3, .L174
 1686              	.L173:
 1687 0890 A368     		ldr	r3, [r4, #8]
 1688 0892 2361     		str	r3, [r4, #16]
 1689              	.L174:
 1690 0894 2569     		ldr	r5, [r4, #16]
 1691 0896 2878     		ldrb	r0, [r5, #0]	@ zero_extendqisi2
 1692 0898 C0B1     		cbz	r0, .L175
 1693 089a 2846     		mov	r0, r5
 1694 089c FFF7FEFF 		bl	strpbrk
 1695 08a0 A668     		ldr	r6, [r4, #8]
 1696 08a2 AF1B     		subs	r7, r5, r6
 1697 08a4 48B9     		cbnz	r0, .L176
 1698 08a6 2846     		mov	r0, r5
 1699 08a8 FFF7FEFF 		bl	strlen
 1700 08ac 0546     		mov	r5, r0
 1701 08ae 3046     		mov	r0, r6
 1702 08b0 FFF7FEFF 		bl	strlen
 1703 08b4 3618     		adds	r6, r6, r0
 1704 08b6 2661     		str	r6, [r4, #16]
 1705 08b8 02E0     		b	.L177
 1706              	.L176:
 1707 08ba 451B     		subs	r5, r0, r5
 1708 08bc 0130     		adds	r0, r0, #1
 1709 08be 2061     		str	r0, [r4, #16]
 1710              	.L177:
 1711 08c0 2046     		mov	r0, r4
 1712 08c2 3946     		mov	r1, r7
 1713 08c4 2A46     		mov	r2, r5
 1714 08c6 BDE8F840 		pop	{r3, r4, r5, r6, r7, lr}
 1715 08ca FEE7     		b	_ZN3str9subStringEii
 1716              	.L175:
 1717 08cc F8BD     		pop	{r3, r4, r5, r6, r7, pc}
 1719              		.align	1
 1720              		.global	_ZN3str9subStringEcc
 1721              		.thumb
 1722              		.thumb_func
 1724              	_ZN3str9subStringEcc:
 1725              		@ args = 0, pretend = 0, frame = 8
 1726              		@ frame_needed = 0, uses_anonymous_args = 0
 1727 08ce 37B5     		push	{r0, r1, r2, r4, r5, lr}
 1728 08d0 0023     		movs	r3, #0
 1729 08d2 ADF80030 		strh	r3, [sp, #0]	@ movhi
 1730 08d6 8DF80010 		strb	r1, [sp, #0]
 1731 08da 6946     		mov	r1, sp
 1732 08dc 0446     		mov	r4, r0
 1733 08de ADF80430 		strh	r3, [sp, #4]	@ movhi
 1734 08e2 8DF80420 		strb	r2, [sp, #4]
 1735 08e6 FFF7FEFF 		bl	_ZNK3str12firstIndexOfEPKc
 1736 08ea 01A9     		add	r1, sp, #4
 1737 08ec 0546     		mov	r5, r0
 1738 08ee 2046     		mov	r0, r4
 1739 08f0 FFF7FEFF 		bl	_ZNK3str11lastIndexOfEPKc
 1740 08f4 421B     		subs	r2, r0, r5
 1741 08f6 0132     		adds	r2, r2, #1
 1742 08f8 2046     		mov	r0, r4
 1743 08fa 2946     		mov	r1, r5
 1744 08fc FFF7FEFF 		bl	_ZN3str9subStringEii
 1745 0900 3EBD     		pop	{r1, r2, r3, r4, r5, pc}
 1747              		.align	1
 1748              		.global	_ZN3str9subStringEPKci
 1749              		.thumb
 1750              		.thumb_func
 1752              	_ZN3str9subStringEPKci:
 1753              		@ args = 0, pretend = 0, frame = 0
 1754              		@ frame_needed = 0, uses_anonymous_args = 0
 1755 0902 38B5     		push	{r3, r4, r5, lr}
 1756 0904 0446     		mov	r4, r0
 1757 0906 1546     		mov	r5, r2
 1758 0908 FFF7FEFF 		bl	_ZNK3str12firstIndexOfEPKc
 1759 090c 2A46     		mov	r2, r5
 1760 090e 0146     		mov	r1, r0
 1761 0910 2046     		mov	r0, r4
 1762 0912 BDE83840 		pop	{r3, r4, r5, lr}
 1763 0916 FEE7     		b	_ZN3str9subStringEii
 1765              		.align	1
 1766              		.global	_ZN3str9subStringEci
 1767              		.thumb
 1768              		.thumb_func
 1770              	_ZN3str9subStringEci:
 1771              		@ args = 0, pretend = 0, frame = 8
 1772              		@ frame_needed = 0, uses_anonymous_args = 0
 1773 0918 07B5     		push	{r0, r1, r2, lr}
 1774 091a 0023     		movs	r3, #0
 1775 091c ADF80430 		strh	r3, [sp, #4]	@ movhi
 1776 0920 02AB     		add	r3, sp, #8
 1777 0922 03F8041D 		strb	r1, [r3, #-4]!
 1778 0926 1946     		mov	r1, r3
 1779 0928 FFF7FEFF 		bl	_ZN3str9subStringEPKci
 1780 092c 0EBD     		pop	{r1, r2, r3, pc}
 1782              		.align	1
 1783              		.global	_ZN3str9subStringEi
 1784              		.thumb
 1785              		.thumb_func
 1787              	_ZN3str9subStringEi:
 1788              		@ args = 0, pretend = 0, frame = 0
 1789              		@ frame_needed = 0, uses_anonymous_args = 0
 1790 092e 38B5     		push	{r3, r4, r5, lr}
 1791 0930 0446     		mov	r4, r0
 1792 0932 8068     		ldr	r0, [r0, #8]
 1793 0934 0D46     		mov	r5, r1
 1794 0936 FFF7FEFF 		bl	strlen
 1795 093a 2946     		mov	r1, r5
 1796 093c 0246     		mov	r2, r0
 1797 093e 2046     		mov	r0, r4
 1798 0940 BDE83840 		pop	{r3, r4, r5, lr}
 1799 0944 FEE7     		b	_ZN3str9subStringEii
 1801              		.align	1
 1802              		.global	_ZN3str9subStringEPKc
 1803              		.thumb
 1804              		.thumb_func
 1806              	_ZN3str9subStringEPKc:
 1807              		@ args = 0, pretend = 0, frame = 0
 1808              		@ frame_needed = 0, uses_anonymous_args = 0
 1809 0946 10B5     		push	{r4, lr}
 1810 0948 0446     		mov	r4, r0
 1811 094a FFF7FEFF 		bl	_ZNK3str12firstIndexOfEPKc
 1812 094e 0146     		mov	r1, r0
 1813 0950 2046     		mov	r0, r4
 1814 0952 BDE81040 		pop	{r4, lr}
 1815 0956 FEE7     		b	_ZN3str9subStringEi
 1817              		.align	1
 1818              		.global	_ZN3str9subStringEc
 1819              		.thumb
 1820              		.thumb_func
 1822              	_ZN3str9subStringEc:
 1823              		@ args = 0, pretend = 0, frame = 8
 1824              		@ frame_needed = 0, uses_anonymous_args = 0
 1825 0958 07B5     		push	{r0, r1, r2, lr}
 1826 095a 0023     		movs	r3, #0
 1827 095c ADF80430 		strh	r3, [sp, #4]	@ movhi
 1828 0960 02AB     		add	r3, sp, #8
 1829 0962 03F8041D 		strb	r1, [r3, #-4]!
 1830 0966 1946     		mov	r1, r3
 1831 0968 FFF7FEFF 		bl	_ZN3str9subStringEPKc
 1832 096c 0EBD     		pop	{r1, r2, r3, pc}
 1834              		.align	1
 1835              		.global	_ZN3str6printfEPKcz
 1836              		.thumb
 1837              		.thumb_func
 1839              	_ZN3str6printfEPKcz:
 1840              		@ args = 4, pretend = 12, frame = 8
 1841              		@ frame_needed = 0, uses_anonymous_args = 1
 1842 096e 0EB4     		push	{r1, r2, r3}
 1843 0970 33B5     		push	{r0, r1, r4, r5, lr}
 1844 0972 05AB     		add	r3, sp, #20
 1845 0974 53F8045B 		ldr	r5, [r3], #4
 1846 0978 0446     		mov	r4, r0
 1847 097a 2168     		ldr	r1, [r4, #0]
 1848 097c 8068     		ldr	r0, [r0, #8]
 1849 097e 2A46     		mov	r2, r5
 1850 0980 0193     		str	r3, [sp, #4]
 1851 0982 FFF7FEFF 		bl	vsniprintf
 1852 0986 2368     		ldr	r3, [r4, #0]
 1853 0988 0146     		mov	r1, r0
 1854 098a 9842     		cmp	r0, r3
 1855 098c 09DC     		bgt	.L185
 1856 098e 2046     		mov	r0, r4
 1857 0990 FFF7FEFF 		bl	_ZN3str7reserveEi
 1858 0994 2168     		ldr	r1, [r4, #0]
 1859 0996 A068     		ldr	r0, [r4, #8]
 1860 0998 2A46     		mov	r2, r5
 1861 099a 019B     		ldr	r3, [sp, #4]
 1862 099c FFF7FEFF 		bl	vsniprintf
 1863 09a0 0146     		mov	r1, r0
 1864              	.L185:
 1865 09a2 0846     		mov	r0, r1
 1866 09a4 BDE83C40 		pop	{r2, r3, r4, r5, lr}
 1867 09a8 03B0     		add	sp, sp, #12
 1868 09aa 7047     		bx	lr
 1870              		.align	1
 1871              		.global	_ZN3str8copyFromEPKc
 1872              		.thumb
 1873              		.thumb_func
 1875              	_ZN3str8copyFromEPKc:
 1876              		@ args = 0, pretend = 0, frame = 0
 1877              		@ frame_needed = 0, uses_anonymous_args = 0
 1878 09ac 38B5     		push	{r3, r4, r5, lr}
 1879 09ae 0446     		mov	r4, r0
 1880 09b0 0846     		mov	r0, r1
 1881 09b2 0D46     		mov	r5, r1
 1882 09b4 FFF7FEFF 		bl	strlen
 1883 09b8 2368     		ldr	r3, [r4, #0]
 1884 09ba 0146     		mov	r1, r0
 1885 09bc 9842     		cmp	r0, r3
 1886 09be 02DD     		ble	.L187
 1887 09c0 2046     		mov	r0, r4
 1888 09c2 FFF7FEFF 		bl	_ZN3str13reAllocateMemEi
 1889              	.L187:
 1890 09c6 A068     		ldr	r0, [r4, #8]
 1891 09c8 2946     		mov	r1, r5
 1892 09ca BDE83840 		pop	{r3, r4, r5, lr}
 1893 09ce FFF7FEBF 		b	strcpy
 1895              		.align	1
 1896              		.global	_ZN3straSEi
 1897              		.thumb
 1898              		.thumb_func
 1900              	_ZN3straSEi:
 1901              		@ args = 0, pretend = 0, frame = 32
 1902              		@ frame_needed = 0, uses_anonymous_args = 0
 1903 09d2 10B5     		push	{r4, lr}
 1904 09d4 88B0     		sub	sp, sp, #32
 1905 09d6 0446     		mov	r4, r0
 1906 09d8 0A46     		mov	r2, r1
 1907 09da 6846     		mov	r0, sp
 1908 09dc 0449     		ldr	r1, .L189
 1909 09de FFF7FEFF 		bl	sprintf
 1910 09e2 2046     		mov	r0, r4
 1911 09e4 6946     		mov	r1, sp
 1912 09e6 FFF7FEFF 		bl	_ZN3str8copyFromEPKc
 1913 09ea 08B0     		add	sp, sp, #32
 1914 09ec 10BD     		pop	{r4, pc}
 1915              	.L190:
 1916 09ee 00BF     		.align	2
 1917              	.L189:
 1918 09f0 07000000 		.word	.LC2
 1920              		.align	1
 1921              		.global	_ZN3strmIEi
 1922              		.thumb
 1923              		.thumb_func
 1925              	_ZN3strmIEi:
 1926              		@ args = 0, pretend = 0, frame = 0
 1927              		@ frame_needed = 0, uses_anonymous_args = 0
 1928 09f4 38B5     		push	{r3, r4, r5, lr}
 1929 09f6 0446     		mov	r4, r0
 1930 09f8 0D46     		mov	r5, r1
 1931 09fa FFF7FEFF 		bl	_ZNK3str5isIntEv
 1932 09fe 38B1     		cbz	r0, .L191
 1933 0a00 A068     		ldr	r0, [r4, #8]
 1934 0a02 FFF7FEFF 		bl	atoi
 1935 0a06 411B     		subs	r1, r0, r5
 1936 0a08 2046     		mov	r0, r4
 1937 0a0a BDE83840 		pop	{r3, r4, r5, lr}
 1938 0a0e FEE7     		b	_ZN3straSEi
 1939              	.L191:
 1940 0a10 38BD     		pop	{r3, r4, r5, pc}
 1942              		.align	1
 1943              		.global	_ZN3strmmEi
 1944              		.thumb
 1945              		.thumb_func
 1947              	_ZN3strmmEi:
 1948              		@ args = 0, pretend = 0, frame = 0
 1949              		@ frame_needed = 0, uses_anonymous_args = 0
 1950              		@ link register save eliminated.
 1951 0a12 0121     		movs	r1, #1
 1952 0a14 FEE7     		b	_ZN3strmIEi
 1954              		.align	1
 1955              		.global	_ZN3strmmEv
 1956              		.thumb
 1957              		.thumb_func
 1959              	_ZN3strmmEv:
 1960              		@ args = 0, pretend = 0, frame = 0
 1961              		@ frame_needed = 0, uses_anonymous_args = 0
 1962              		@ link register save eliminated.
 1963 0a16 0121     		movs	r1, #1
 1964 0a18 FEE7     		b	_ZN3strmIEi
 1966              		.align	1
 1967              		.global	_ZN3strpLEi
 1968              		.thumb
 1969              		.thumb_func
 1971              	_ZN3strpLEi:
 1972              		@ args = 0, pretend = 0, frame = 0
 1973              		@ frame_needed = 0, uses_anonymous_args = 0
 1974 0a1a 38B5     		push	{r3, r4, r5, lr}
 1975 0a1c 0446     		mov	r4, r0
 1976 0a1e 0D46     		mov	r5, r1
 1977 0a20 FFF7FEFF 		bl	_ZNK3str5isIntEv
 1978 0a24 38B1     		cbz	r0, .L195
 1979 0a26 A068     		ldr	r0, [r4, #8]
 1980 0a28 FFF7FEFF 		bl	atoi
 1981 0a2c 4119     		adds	r1, r0, r5
 1982 0a2e 2046     		mov	r0, r4
 1983 0a30 BDE83840 		pop	{r3, r4, r5, lr}
 1984 0a34 FEE7     		b	_ZN3straSEi
 1985              	.L195:
 1986 0a36 38BD     		pop	{r3, r4, r5, pc}
 1988              		.align	1
 1989              		.global	_ZN3strppEi
 1990              		.thumb
 1991              		.thumb_func
 1993              	_ZN3strppEi:
 1994              		@ args = 0, pretend = 0, frame = 0
 1995              		@ frame_needed = 0, uses_anonymous_args = 0
 1996              		@ link register save eliminated.
 1997 0a38 0121     		movs	r1, #1
 1998 0a3a FEE7     		b	_ZN3strpLEi
 2000              		.align	1
 2001              		.global	_ZN3strppEv
 2002              		.thumb
 2003              		.thumb_func
 2005              	_ZN3strppEv:
 2006              		@ args = 0, pretend = 0, frame = 0
 2007              		@ frame_needed = 0, uses_anonymous_args = 0
 2008              		@ link register save eliminated.
 2009 0a3c 0121     		movs	r1, #1
 2010 0a3e FEE7     		b	_ZN3strpLEi
 2012              		.align	1
 2013              		.global	_ZN3straSEPKc
 2014              		.thumb
 2015              		.thumb_func
 2017              	_ZN3straSEPKc:
 2018              		@ args = 0, pretend = 0, frame = 0
 2019              		@ frame_needed = 0, uses_anonymous_args = 0
 2020              		@ link register save eliminated.
 2021 0a40 FEE7     		b	_ZN3str8copyFromEPKc
 2023              		.align	1
 2024              		.global	_ZN3straSERKS_
 2025              		.thumb
 2026              		.thumb_func
 2028              	_ZN3straSERKS_:
 2029              		@ args = 0, pretend = 0, frame = 0
 2030              		@ frame_needed = 0, uses_anonymous_args = 0
 2031 0a42 8842     		cmp	r0, r1
 2032 0a44 10B5     		push	{r4, lr}
 2033 0a46 0446     		mov	r4, r0
 2034 0a48 02D0     		beq	.L201
 2035 0a4a 8968     		ldr	r1, [r1, #8]
 2036 0a4c FFF7FEFF 		bl	_ZN3str8copyFromEPKc
 2037              	.L201:
 2038 0a50 2046     		mov	r0, r4
 2039 0a52 10BD     		pop	{r4, pc}
 2041              		.align	1
 2042              		.global	_ZN3strC2ERKS_
 2043              		.thumb
 2044              		.thumb_func
 2046              	_ZN3strC2ERKS_:
 2047              		@ args = 0, pretend = 0, frame = 0
 2048              		@ frame_needed = 0, uses_anonymous_args = 0
 2049 0a54 38B5     		push	{r3, r4, r5, lr}
 2050 0a56 0446     		mov	r4, r0
 2051 0a58 8868     		ldr	r0, [r1, #8]
 2052 0a5a 0D46     		mov	r5, r1
 2053 0a5c FFF7FEFF 		bl	strlen
 2054 0a60 0023     		movs	r3, #0
 2055 0a62 0146     		mov	r1, r0
 2056 0a64 2360     		str	r3, [r4, #0]
 2057 0a66 6360     		str	r3, [r4, #4]
 2058 0a68 A360     		str	r3, [r4, #8]
 2059 0a6a E360     		str	r3, [r4, #12]
 2060 0a6c 2361     		str	r3, [r4, #16]
 2061 0a6e 2046     		mov	r0, r4
 2062 0a70 FFF7FEFF 		bl	_ZN3str13reAllocateMemEi
 2063 0a74 2046     		mov	r0, r4
 2064 0a76 2946     		mov	r1, r5
 2065 0a78 FFF7FEFF 		bl	_ZN3straSERKS_
 2066 0a7c 2046     		mov	r0, r4
 2067 0a7e 38BD     		pop	{r3, r4, r5, pc}
 2069              		.align	1
 2070              		.global	_ZN3strC2EPKc
 2071              		.thumb
 2072              		.thumb_func
 2074              	_ZN3strC2EPKc:
 2075              		@ args = 0, pretend = 0, frame = 0
 2076              		@ frame_needed = 0, uses_anonymous_args = 0
 2077 0a80 38B5     		push	{r3, r4, r5, lr}
 2078 0a82 0446     		mov	r4, r0
 2079 0a84 0846     		mov	r0, r1
 2080 0a86 0D46     		mov	r5, r1
 2081 0a88 FFF7FEFF 		bl	strlen
 2082 0a8c 0023     		movs	r3, #0
 2083 0a8e 0146     		mov	r1, r0
 2084 0a90 2360     		str	r3, [r4, #0]
 2085 0a92 6360     		str	r3, [r4, #4]
 2086 0a94 A360     		str	r3, [r4, #8]
 2087 0a96 E360     		str	r3, [r4, #12]
 2088 0a98 2361     		str	r3, [r4, #16]
 2089 0a9a 2046     		mov	r0, r4
 2090 0a9c FFF7FEFF 		bl	_ZN3str13reAllocateMemEi
 2091 0aa0 2046     		mov	r0, r4
 2092 0aa2 2946     		mov	r1, r5
 2093 0aa4 FFF7FEFF 		bl	_ZN3str8copyFromEPKc
 2094 0aa8 2046     		mov	r0, r4
 2095 0aaa 38BD     		pop	{r3, r4, r5, pc}
 2097              		.align	1
 2098              		.global	_ZN3str18singleHexCharToIntEh
 2099              		.thumb
 2100              		.thumb_func
 2102              	_ZN3str18singleHexCharToIntEh:
 2103              		@ args = 0, pretend = 0, frame = 0
 2104              		@ frame_needed = 0, uses_anonymous_args = 0
 2105              		@ link register save eliminated.
 2106 0aac 4129     		cmp	r1, #65
 2107 0aae 0AD3     		bcc	.L207
 2108 0ab0 4629     		cmp	r1, #70
 2109 0ab2 05D9     		bls	.L208
 2110 0ab4 A1F16103 		sub	r3, r1, #97
 2111 0ab8 052B     		cmp	r3, #5
 2112 0aba 04D8     		bhi	.L207
 2113 0abc 6B39     		subs	r1, r1, #107
 2114 0abe 00E0     		b	.L211
 2115              	.L208:
 2116 0ac0 4B39     		subs	r1, r1, #75
 2117              	.L211:
 2118 0ac2 C8B2     		uxtb	r0, r1
 2119 0ac4 7047     		bx	lr
 2120              	.L207:
 2121 0ac6 3039     		subs	r1, r1, #48
 2122 0ac8 C8B2     		uxtb	r0, r1
 2123 0aca 7047     		bx	lr
 2125              		.align	1
 2126              		.global	_ZN3str17hexStrDigitsToIntEPc
 2127              		.thumb
 2128              		.thumb_func
 2130              	_ZN3str17hexStrDigitsToIntEPc:
 2131              		@ args = 0, pretend = 0, frame = 0
 2132              		@ frame_needed = 0, uses_anonymous_args = 0
 2133 0acc 70B5     		push	{r4, r5, r6, lr}
 2134 0ace 0D46     		mov	r5, r1
 2135 0ad0 0978     		ldrb	r1, [r1, #0]	@ zero_extendqisi2
 2136 0ad2 0446     		mov	r4, r0
 2137 0ad4 FFF7FEFF 		bl	_ZN3str18singleHexCharToIntEh
 2138 0ad8 6978     		ldrb	r1, [r5, #1]	@ zero_extendqisi2
 2139 0ada 0646     		mov	r6, r0
 2140 0adc 2046     		mov	r0, r4
 2141 0ade FFF7FEFF 		bl	_ZN3str18singleHexCharToIntEh
 2142 0ae2 00EB0610 		add	r0, r0, r6, lsl #4
 2143 0ae6 70BD     		pop	{r4, r5, r6, pc}
 2145              		.align	1
 2146              		.global	_ZN3str15checksum_VerifyEv
 2147              		.thumb
 2148              		.thumb_func
 2150              	_ZN3str15checksum_VerifyEv:
 2151              		@ args = 0, pretend = 0, frame = 0
 2152              		@ frame_needed = 0, uses_anonymous_args = 0
 2153 0ae8 F8B5     		push	{r3, r4, r5, r6, r7, lr}
 2154 0aea 0F49     		ldr	r1, .L216
 2155 0aec 0446     		mov	r4, r0
 2156 0aee FFF7FEFF 		bl	_ZNK3str11lastIndexOfEPKc
 2157 0af2 431C     		adds	r3, r0, #1
 2158 0af4 0546     		mov	r5, r0
 2159 0af6 4FF00000 		mov	r0, #0
 2160 0afa 13D0     		beq	.L214
 2161 0afc A368     		ldr	r3, [r4, #8]
 2162 0afe 691C     		adds	r1, r5, #1
 2163 0b00 5855     		strb	r0, [r3, r5]
 2164 0b02 A668     		ldr	r6, [r4, #8]
 2165 0b04 2046     		mov	r0, r4
 2166 0b06 7118     		adds	r1, r6, r1
 2167 0b08 FFF7FEFF 		bl	_ZN3str17hexStrDigitsToIntEPc
 2168 0b0c 0746     		mov	r7, r0
 2169 0b0e 2046     		mov	r0, r4
 2170 0b10 FFF7FEFF 		bl	_ZN3str12checksum_GetEv
 2171 0b14 C0EB070E 		rsb	lr, r0, r7
 2172 0b18 DEF10000 		rsbs	r0, lr, #0
 2173 0b1c 40EB0E00 		adc	r0, r0, lr
 2174 0b20 3A23     		movs	r3, #58
 2175 0b22 7355     		strb	r3, [r6, r5]
 2176              	.L214:
 2177 0b24 F8BD     		pop	{r3, r4, r5, r6, r7, pc}
 2178              	.L217:
 2179 0b26 00BF     		.align	2
 2180              	.L216:
 2181 0b28 00000000 		.word	.LC0
 2183              		.align	1
 2184              		.global	_ZN3str7encryptEPKci
 2185              		.thumb
 2186              		.thumb_func
 2188              	_ZN3str7encryptEPKci:
 2189              		@ args = 0, pretend = 0, frame = 0
 2190              		@ frame_needed = 0, uses_anonymous_args = 0
 2191 0b2c F8B5     		push	{r3, r4, r5, r6, r7, lr}
 2192 0b2e 0446     		mov	r4, r0
 2193 0b30 0846     		mov	r0, r1
 2194 0b32 0D46     		mov	r5, r1
 2195 0b34 1646     		mov	r6, r2
 2196 0b36 FFF7FEFF 		bl	strlen
 2197 0b3a 0023     		movs	r3, #0
 2198 0b3c 0CE0     		b	.L219
 2199              	.L220:
 2200 0b3e A168     		ldr	r1, [r4, #8]
 2201 0b40 15F802C0 		ldrb	ip, [r5, r2]	@ zero_extendqisi2
 2202 0b44 CF5C     		ldrb	r7, [r1, r3]	@ zero_extendqisi2
 2203 0b46 0132     		adds	r2, r2, #1
 2204 0b48 8CEA0707 		eor	r7, ip, r7
 2205 0b4c CF54     		strb	r7, [r1, r3]
 2206 0b4e 00E0     		b	.L221
 2207              	.L222:
 2208 0b50 0022     		movs	r2, #0
 2209              	.L221:
 2210 0b52 8242     		cmp	r2, r0
 2211 0b54 F3DB     		blt	.L220
 2212 0b56 0133     		adds	r3, r3, #1
 2213              	.L219:
 2214 0b58 B342     		cmp	r3, r6
 2215 0b5a F9DB     		blt	.L222
 2216 0b5c F8BD     		pop	{r3, r4, r5, r6, r7, pc}
 2218              		.align	1
 2219              		.global	_ZN3str7decryptEPKc
 2220              		.thumb
 2221              		.thumb_func
 2223              	_ZN3str7decryptEPKc:
 2224              		@ args = 0, pretend = 0, frame = 0
 2225              		@ frame_needed = 0, uses_anonymous_args = 0
 2226              		@ link register save eliminated.
 2227 0b5e 4268     		ldr	r2, [r0, #4]
 2228 0b60 FEE7     		b	_ZN3str7encryptEPKci
 2230              		.align	1
 2231              		.global	_ZN3str7encryptEPKc
 2232              		.thumb
 2233              		.thumb_func
 2235              	_ZN3str7encryptEPKc:
 2236              		@ args = 0, pretend = 0, frame = 0
 2237              		@ frame_needed = 0, uses_anonymous_args = 0
 2238 0b62 38B5     		push	{r3, r4, r5, lr}
 2239 0b64 0446     		mov	r4, r0
 2240 0b66 8068     		ldr	r0, [r0, #8]
 2241 0b68 0D46     		mov	r5, r1
 2242 0b6a FFF7FEFF 		bl	strlen
 2243 0b6e 2946     		mov	r1, r5
 2244 0b70 0246     		mov	r2, r0
 2245 0b72 6060     		str	r0, [r4, #4]
 2246 0b74 2046     		mov	r0, r4
 2247 0b76 BDE83840 		pop	{r3, r4, r5, lr}
 2248 0b7a FEE7     		b	_ZN3str7encryptEPKci
 2250              		.global	_ZN3strD1Ev
 2251              		.thumb_set _ZN3strD1Ev,_ZN3strD2Ev
 2252              		.global	_ZN3strC1Ei
 2253              		.thumb_set _ZN3strC1Ei,_ZN3strC2Ei
 2254              		.global	_ZN3strC1Ev
 2255              		.thumb_set _ZN3strC1Ev,_ZN3strC2Ev
 2256              		.global	_ZN3strC1ERKS_
 2257              		.thumb_set _ZN3strC1ERKS_,_ZN3strC2ERKS_
 2258              		.global	_ZN3strC1EPKc
 2259              		.thumb_set _ZN3strC1EPKc,_ZN3strC2EPKc
 2260              		.section	.rodata.str1.1,"aMS",%progbits,1
 2261              	.LC0:
 2262 0000 3A00     		.ascii	":\000"
 2263              	.LC1:
 2264 0002 25303258 		.ascii	"%02X\000"
 2264      00
 2265              	.LC2:
 2266 0007 256900   		.ascii	"%i\000"
 2267              		.ident	"GCC: (GNU) 4.6.2"