   1              		.syntax unified
   2              		.cpu cortex-m3
   3              		.fpu softvfp
   4              		.eabi_attribute 20, 1
   5              		.eabi_attribute 21, 1
   6              		.eabi_attribute 23, 3
   7              		.eabi_attribute 24, 1
   8              		.eabi_attribute 25, 1
   9              		.eabi_attribute 26, 1
  10              		.eabi_attribute 30, 4
  11              		.eabi_attribute 18, 4
  12              		.thumb
  13              		.file	"timer.cpp"
  14              		.text
  15              		.align	1
  16              		.global	_ZN13FreeRTOSTimerC2EPFvPvEm9TimerType
  17              		.thumb
  18              		.thumb_func
  20              	_ZN13FreeRTOSTimerC2EPFvPvEm9TimerType:
  21              		@ args = 0, pretend = 0, frame = 0
  22              		@ frame_needed = 0, uses_anonymous_args = 0
  23 0000 13B5     		push	{r0, r1, r4, lr}
  24 0002 0033     		adds	r3, r3, #0
  25 0004 18BF     		it	ne
  26 0006 0123     		movne	r3, #1
  27 0008 0446     		mov	r4, r0
  28 000a 0091     		str	r1, [sp, #0]
  29 000c 0448     		ldr	r0, .L3
  30 000e 1146     		mov	r1, r2
  31 0010 1A46     		mov	r2, r3
  32 0012 0023     		movs	r3, #0
  33 0014 FFF7FEFF 		bl	xTimerCreate
  34 0018 2060     		str	r0, [r4, #0]
  35 001a 2046     		mov	r0, r4
  36 001c 1CBD     		pop	{r2, r3, r4, pc}
  37              	.L4:
  38 001e 00BF     		.align	2
  39              	.L3:
  40 0020 00000000 		.word	.LANCHOR0
  42              		.align	1
  43              		.global	_ZN13FreeRTOSTimerD2Ev
  44              		.thumb
  45              		.thumb_func
  47              	_ZN13FreeRTOSTimerD2Ev:
  48              		@ args = 0, pretend = 0, frame = 0
  49              		@ frame_needed = 0, uses_anonymous_args = 0
  50 0024 13B5     		push	{r0, r1, r4, lr}
  51 0026 0022     		movs	r2, #0
  52 0028 0092     		str	r2, [sp, #0]
  53 002a 0446     		mov	r4, r0
  54 002c 0321     		movs	r1, #3
  55 002e 1346     		mov	r3, r2
  56 0030 0068     		ldr	r0, [r0, #0]
  57 0032 FFF7FEFF 		bl	xTimerGenericCommand
  58 0036 2046     		mov	r0, r4
  59 0038 1CBD     		pop	{r2, r3, r4, pc}
  61              		.align	1
  62              		.global	_ZN13FreeRTOSTimer5startEv
  63              		.thumb
  64              		.thumb_func
  66              	_ZN13FreeRTOSTimer5startEv:
  67              		@ args = 0, pretend = 0, frame = 0
  68              		@ frame_needed = 0, uses_anonymous_args = 0
  69 003a 13B5     		push	{r0, r1, r4, lr}
  70 003c 0468     		ldr	r4, [r0, #0]
  71 003e FFF7FEFF 		bl	xTaskGetTickCount
  72 0042 0021     		movs	r1, #0
  73 0044 0246     		mov	r2, r0
  74 0046 0B46     		mov	r3, r1
  75 0048 2046     		mov	r0, r4
  76 004a 0091     		str	r1, [sp, #0]
  77 004c FFF7FEFF 		bl	xTimerGenericCommand
  78 0050 1CBD     		pop	{r2, r3, r4, pc}
  80              		.align	1
  81              		.global	_ZN13FreeRTOSTimer4stopEv
  82              		.thumb
  83              		.thumb_func
  85              	_ZN13FreeRTOSTimer4stopEv:
  86              		@ args = 0, pretend = 0, frame = 0
  87              		@ frame_needed = 0, uses_anonymous_args = 0
  88 0052 07B5     		push	{r0, r1, r2, lr}
  89 0054 0022     		movs	r2, #0
  90 0056 0092     		str	r2, [sp, #0]
  91 0058 0121     		movs	r1, #1
  92 005a 1346     		mov	r3, r2
  93 005c 0068     		ldr	r0, [r0, #0]
  94 005e FFF7FEFF 		bl	xTimerGenericCommand
  95 0062 0EBD     		pop	{r1, r2, r3, pc}
  97              		.align	1
  98              		.global	_ZN13FreeRTOSTimer5resetEv
  99              		.thumb
 100              		.thumb_func
 102              	_ZN13FreeRTOSTimer5resetEv:
 103              		@ args = 0, pretend = 0, frame = 0
 104              		@ frame_needed = 0, uses_anonymous_args = 0
 105 0064 13B5     		push	{r0, r1, r4, lr}
 106 0066 0468     		ldr	r4, [r0, #0]
 107 0068 FFF7FEFF 		bl	xTaskGetTickCount
 108 006c 0021     		movs	r1, #0
 109 006e 0246     		mov	r2, r0
 110 0070 0B46     		mov	r3, r1
 111 0072 2046     		mov	r0, r4
 112 0074 0091     		str	r1, [sp, #0]
 113 0076 FFF7FEFF 		bl	xTimerGenericCommand
 114 007a 1CBD     		pop	{r2, r3, r4, pc}
 116              		.align	1
 117              		.global	_ZN13FreeRTOSTimer12changePeriodEm
 118              		.thumb
 119              		.thumb_func
 121              	_ZN13FreeRTOSTimer12changePeriodEm:
 122              		@ args = 0, pretend = 0, frame = 0
 123              		@ frame_needed = 0, uses_anonymous_args = 0
 124 007c 07B5     		push	{r0, r1, r2, lr}
 125 007e 0023     		movs	r3, #0
 126 0080 0093     		str	r3, [sp, #0]
 127 0082 0A46     		mov	r2, r1
 128 0084 0068     		ldr	r0, [r0, #0]
 129 0086 0221     		movs	r1, #2
 130 0088 FFF7FEFF 		bl	xTimerGenericCommand
 131 008c 0EBD     		pop	{r1, r2, r3, pc}
 133              		.align	1
 134              		.global	_ZN13FreeRTOSTimer9isRunningEv
 135              		.thumb
 136              		.thumb_func
 138              	_ZN13FreeRTOSTimer9isRunningEv:
 139              		@ args = 0, pretend = 0, frame = 0
 140              		@ frame_needed = 0, uses_anonymous_args = 0
 141 008e 08B5     		push	{r3, lr}
 142 0090 0068     		ldr	r0, [r0, #0]
 143 0092 FFF7FEFF 		bl	xTimerIsTimerActive
 144 0096 0030     		adds	r0, r0, #0
 145 0098 18BF     		it	ne
 146 009a 0120     		movne	r0, #1
 147 009c 08BD     		pop	{r3, pc}
 149              		.align	1
 150              		.global	_ZN13FreeRTOSTimer12startFromISREv
 151              		.thumb
 152              		.thumb_func
 154              	_ZN13FreeRTOSTimer12startFromISREv:
 155              		@ args = 0, pretend = 0, frame = 8
 156              		@ frame_needed = 0, uses_anonymous_args = 0
 157 009e 7FB5     		push	{r0, r1, r2, r3, r4, r5, r6, lr}
 158 00a0 0025     		movs	r5, #0
 159 00a2 04AC     		add	r4, sp, #16
 160 00a4 44F8045D 		str	r5, [r4, #-4]!
 161 00a8 0668     		ldr	r6, [r0, #0]
 162 00aa FFF7FEFF 		bl	xTaskGetTickCountFromISR
 163 00ae 2346     		mov	r3, r4
 164 00b0 0246     		mov	r2, r0
 165 00b2 2946     		mov	r1, r5
 166 00b4 3046     		mov	r0, r6
 167 00b6 0095     		str	r5, [sp, #0]
 168 00b8 FFF7FEFF 		bl	xTimerGenericCommand
 169 00bc 039B     		ldr	r3, [sp, #12]
 170 00be 0BB1     		cbz	r3, .L12
 171 00c0 FFF7FEFF 		bl	vPortYieldFromISR
 172              	.L12:
 173 00c4 7FBD     		pop	{r0, r1, r2, r3, r4, r5, r6, pc}
 175              		.align	1
 176              		.global	_ZN13FreeRTOSTimer11stopFromISREv
 177              		.thumb
 178              		.thumb_func
 180              	_ZN13FreeRTOSTimer11stopFromISREv:
 181              		@ args = 0, pretend = 0, frame = 8
 182              		@ frame_needed = 0, uses_anonymous_args = 0
 183 00c6 1FB5     		push	{r0, r1, r2, r3, r4, lr}
 184 00c8 0022     		movs	r2, #0
 185 00ca 04AB     		add	r3, sp, #16
 186 00cc 43F8042D 		str	r2, [r3, #-4]!
 187 00d0 0092     		str	r2, [sp, #0]
 188 00d2 0068     		ldr	r0, [r0, #0]
 189 00d4 0121     		movs	r1, #1
 190 00d6 FFF7FEFF 		bl	xTimerGenericCommand
 191 00da 039B     		ldr	r3, [sp, #12]
 192 00dc 0BB1     		cbz	r3, .L14
 193 00de FFF7FEFF 		bl	vPortYieldFromISR
 194              	.L14:
 195 00e2 05B0     		add	sp, sp, #20
 196 00e4 00BD     		pop	{pc}
 198              		.align	1
 199              		.global	_ZN13FreeRTOSTimer12resetFromISREv
 200              		.thumb
 201              		.thumb_func
 203              	_ZN13FreeRTOSTimer12resetFromISREv:
 204              		@ args = 0, pretend = 0, frame = 8
 205              		@ frame_needed = 0, uses_anonymous_args = 0
 206 00e6 7FB5     		push	{r0, r1, r2, r3, r4, r5, r6, lr}
 207 00e8 0025     		movs	r5, #0
 208 00ea 04AC     		add	r4, sp, #16
 209 00ec 44F8045D 		str	r5, [r4, #-4]!
 210 00f0 0668     		ldr	r6, [r0, #0]
 211 00f2 FFF7FEFF 		bl	xTaskGetTickCountFromISR
 212 00f6 2346     		mov	r3, r4
 213 00f8 0246     		mov	r2, r0
 214 00fa 2946     		mov	r1, r5
 215 00fc 3046     		mov	r0, r6
 216 00fe 0095     		str	r5, [sp, #0]
 217 0100 FFF7FEFF 		bl	xTimerGenericCommand
 218 0104 039B     		ldr	r3, [sp, #12]
 219 0106 0BB1     		cbz	r3, .L16
 220 0108 FFF7FEFF 		bl	vPortYieldFromISR
 221              	.L16:
 222 010c 7FBD     		pop	{r0, r1, r2, r3, r4, r5, r6, pc}
 224              		.align	1
 225              		.global	_ZN13FreeRTOSTimer19changePeriodFromISREm
 226              		.thumb
 227              		.thumb_func
 229              	_ZN13FreeRTOSTimer19changePeriodFromISREm:
 230              		@ args = 0, pretend = 0, frame = 8
 231              		@ frame_needed = 0, uses_anonymous_args = 0
 232 010e 1FB5     		push	{r0, r1, r2, r3, r4, lr}
 233 0110 0A46     		mov	r2, r1
 234 0112 04AB     		add	r3, sp, #16
 235 0114 0021     		movs	r1, #0
 236 0116 43F8041D 		str	r1, [r3, #-4]!
 237 011a 0091     		str	r1, [sp, #0]
 238 011c 0068     		ldr	r0, [r0, #0]
 239 011e 0221     		movs	r1, #2
 240 0120 FFF7FEFF 		bl	xTimerGenericCommand
 241 0124 039B     		ldr	r3, [sp, #12]
 242 0126 0BB1     		cbz	r3, .L18
 243 0128 FFF7FEFF 		bl	vPortYieldFromISR
 244              	.L18:
 245 012c 05B0     		add	sp, sp, #20
 246 012e 00BD     		pop	{pc}
 248              		.global	_ZN13FreeRTOSTimerC1EPFvPvEm9TimerType
 249              		.thumb_set _ZN13FreeRTOSTimerC1EPFvPvEm9TimerType,_ZN13FreeRTOSTimerC2EPFvPvEm9TimerType
 250              		.global	_ZN13FreeRTOSTimerD1Ev
 251              		.thumb_set _ZN13FreeRTOSTimerD1Ev,_ZN13FreeRTOSTimerD2Ev
 252              		.data
 253              		.set	.LANCHOR0,. + 0
 256              	_ZZN13FreeRTOSTimerC1EPFvPvEm9TimerTypeE5tName:
 257 0000 546D7200 		.ascii	"Tmr\000"
 258              		.ident	"GCC: (GNU) 4.6.2"