   1              		.syntax unified
   2              		.cpu cortex-m3
   3              		.fpu softvfp
   4              		.eabi_attribute 20, 1
   5              		.eabi_attribute 21, 1
   6              		.eabi_attribute 23, 3
   7              		.eabi_attribute 24, 1
   8              		.eabi_attribute 25, 1
   9              		.eabi_attribute 26, 1
  10              		.eabi_attribute 30, 4
  11              		.eabi_attribute 18, 4
  12              		.thumb
  13              		.file	"timers.c"
  14              		.text
  15              		.align	1
  16              		.thumb
  17              		.thumb_func
  19              	prvCheckForValidListAndQueue:
  20              		@ args = 0, pretend = 0, frame = 0
  21              		@ frame_needed = 0, uses_anonymous_args = 0
  22 0000 70B5     		push	{r4, r5, r6, lr}
  23 0002 0C4C     		ldr	r4, .L3
  24 0004 FFF7FEFF 		bl	vPortEnterCritical
  25 0008 2368     		ldr	r3, [r4, #0]
  26 000a 7BB9     		cbnz	r3, .L2
  27 000c 261D     		adds	r6, r4, #4
  28 000e 3046     		mov	r0, r6
  29 0010 04F11805 		add	r5, r4, #24
  30 0014 FFF7FEFF 		bl	vListInitialise
  31 0018 2846     		mov	r0, r5
  32 001a FFF7FEFF 		bl	vListInitialise
  33 001e 0220     		movs	r0, #2
  34 0020 0C21     		movs	r1, #12
  35 0022 E662     		str	r6, [r4, #44]
  36 0024 2563     		str	r5, [r4, #48]
  37 0026 FFF7FEFF 		bl	xQueueCreate
  38 002a 2060     		str	r0, [r4, #0]
  39              	.L2:
  40 002c BDE87040 		pop	{r4, r5, r6, lr}
  41 0030 FFF7FEBF 		b	vPortExitCritical
  42              	.L4:
  43              		.align	2
  44              	.L3:
  45 0034 00000000 		.word	.LANCHOR0
  47              		.align	1
  48              		.thumb
  49              		.thumb_func
  51              	prvInsertTimerInActiveList:
  52              		@ args = 0, pretend = 0, frame = 0
  53              		@ frame_needed = 0, uses_anonymous_args = 0
  54 0038 9142     		cmp	r1, r2
  55 003a 38B5     		push	{r3, r4, r5, lr}
  56 003c 4160     		str	r1, [r0, #4]
  57 003e 0061     		str	r0, [r0, #16]
  58 0040 0AD8     		bhi	.L6
  59 0042 8569     		ldr	r5, [r0, #24]
  60 0044 D21A     		subs	r2, r2, r3
  61 0046 AA42     		cmp	r2, r5
  62 0048 17D2     		bcs	.L8
  63 004a 0E4B     		ldr	r3, .L10
  64 004c 011D     		adds	r1, r0, #4
  65 004e 186B     		ldr	r0, [r3, #48]
  66 0050 FFF7FEFF 		bl	vListInsert
  67 0054 0020     		movs	r0, #0
  68 0056 38BD     		pop	{r3, r4, r5, pc}
  69              	.L6:
  70 0058 9A42     		cmp	r2, r3
  71 005a 2CBF     		ite	cs
  72 005c 0024     		movcs	r4, #0
  73 005e 0124     		movcc	r4, #1
  74 0060 9942     		cmp	r1, r3
  75 0062 34BF     		ite	cc
  76 0064 0024     		movcc	r4, #0
  77 0066 04F00104 		andcs	r4, r4, #1
  78 006a 44B9     		cbnz	r4, .L9
  79 006c 054B     		ldr	r3, .L10
  80 006e 011D     		adds	r1, r0, #4
  81 0070 D86A     		ldr	r0, [r3, #44]
  82 0072 FFF7FEFF 		bl	vListInsert
  83 0076 2046     		mov	r0, r4
  84 0078 38BD     		pop	{r3, r4, r5, pc}
  85              	.L8:
  86 007a 0120     		movs	r0, #1
  87 007c 38BD     		pop	{r3, r4, r5, pc}
  88              	.L9:
  89 007e 0120     		movs	r0, #1
  90 0080 38BD     		pop	{r3, r4, r5, pc}
  91              	.L11:
  92 0082 00BF     		.align	2
  93              	.L10:
  94 0084 00000000 		.word	.LANCHOR0
  96              		.align	1
  97              		.global	xTimerCreateTimerTask
  98              		.thumb
  99              		.thumb_func
 101              	xTimerCreateTimerTask:
 102              		@ args = 0, pretend = 0, frame = 0
 103              		@ frame_needed = 0, uses_anonymous_args = 0
 104 0088 1FB5     		push	{r0, r1, r2, r3, r4, lr}
 105 008a FFF7B9FF 		bl	prvCheckForValidListAndQueue
 106 008e 084B     		ldr	r3, .L15
 107 0090 1868     		ldr	r0, [r3, #0]
 108 0092 58B1     		cbz	r0, .L13
 109 0094 0123     		movs	r3, #1
 110 0096 0093     		str	r3, [sp, #0]
 111 0098 0648     		ldr	r0, .L15+4
 112 009a 0023     		movs	r3, #0
 113 009c 0649     		ldr	r1, .L15+8
 114 009e 4FF48072 		mov	r2, #256
 115 00a2 0193     		str	r3, [sp, #4]
 116 00a4 0293     		str	r3, [sp, #8]
 117 00a6 0393     		str	r3, [sp, #12]
 118 00a8 FFF7FEFF 		bl	xTaskGenericCreate
 119              	.L13:
 120 00ac 05B0     		add	sp, sp, #20
 121 00ae 00BD     		pop	{pc}
 122              	.L16:
 123              		.align	2
 124              	.L15:
 125 00b0 00000000 		.word	.LANCHOR0
 126 00b4 00000000 		.word	prvTimerTask
 127 00b8 00000000 		.word	.LC0
 129              		.align	1
 130              		.global	xTimerCreate
 131              		.thumb
 132              		.thumb_func
 134              	xTimerCreate:
 135              		@ args = 4, pretend = 0, frame = 0
 136              		@ frame_needed = 0, uses_anonymous_args = 0
 137 00bc 2DE9F041 		push	{r4, r5, r6, r7, r8, lr}
 138 00c0 0446     		mov	r4, r0
 139 00c2 0D46     		mov	r5, r1
 140 00c4 1646     		mov	r6, r2
 141 00c6 9846     		mov	r8, r3
 142 00c8 0F46     		mov	r7, r1
 143 00ca 81B1     		cbz	r1, .L18
 144 00cc 2820     		movs	r0, #40
 145 00ce FFF7FEFF 		bl	pvPortMalloc
 146 00d2 0746     		mov	r7, r0
 147 00d4 58B1     		cbz	r0, .L18
 148 00d6 FFF793FF 		bl	prvCheckForValidListAndQueue
 149 00da 069B     		ldr	r3, [sp, #24]
 150 00dc 3C60     		str	r4, [r7, #0]
 151 00de BD61     		str	r5, [r7, #24]
 152 00e0 FE61     		str	r6, [r7, #28]
 153 00e2 C7F82080 		str	r8, [r7, #32]
 154 00e6 7B62     		str	r3, [r7, #36]
 155 00e8 381D     		adds	r0, r7, #4
 156 00ea FFF7FEFF 		bl	vListInitialiseItem
 157              	.L18:
 158 00ee 3846     		mov	r0, r7
 159 00f0 BDE8F081 		pop	{r4, r5, r6, r7, r8, pc}
 161              		.align	1
 162              		.global	xTimerGenericCommand
 163              		.thumb
 164              		.thumb_func
 166              	xTimerGenericCommand:
 167              		@ args = 4, pretend = 0, frame = 16
 168              		@ frame_needed = 0, uses_anonymous_args = 0
 169 00f4 7FB5     		push	{r0, r1, r2, r3, r4, r5, r6, lr}
 170 00f6 0F4E     		ldr	r6, .L26
 171 00f8 0546     		mov	r5, r0
 172 00fa 3068     		ldr	r0, [r6, #0]
 173 00fc 1C46     		mov	r4, r3
 174 00fe B0B1     		cbz	r0, .L21
 175 0100 0191     		str	r1, [sp, #4]
 176 0102 0292     		str	r2, [sp, #8]
 177 0104 0395     		str	r5, [sp, #12]
 178 0106 6BB9     		cbnz	r3, .L22
 179 0108 FFF7FEFF 		bl	xTaskGetSchedulerState
 180 010c 0128     		cmp	r0, #1
 181 010e 18BF     		it	ne
 182 0110 2246     		movne	r2, r4
 183 0112 3068     		ldr	r0, [r6, #0]
 184 0114 01A9     		add	r1, sp, #4
 185 0116 06BF     		itte	eq
 186 0118 089A     		ldreq	r2, [sp, #32]
 187 011a 2346     		moveq	r3, r4
 188 011c 1346     		movne	r3, r2
 189 011e FFF7FEFF 		bl	xQueueGenericSend
 190 0122 04E0     		b	.L21
 191              	.L22:
 192 0124 1A46     		mov	r2, r3
 193 0126 01A9     		add	r1, sp, #4
 194 0128 0023     		movs	r3, #0
 195 012a FFF7FEFF 		bl	xQueueGenericSendFromISR
 196              	.L21:
 197 012e 04B0     		add	sp, sp, #16
 198 0130 70BD     		pop	{r4, r5, r6, pc}
 199              	.L27:
 200 0132 00BF     		.align	2
 201              	.L26:
 202 0134 00000000 		.word	.LANCHOR0
 204              		.align	1
 205              		.thumb
 206              		.thumb_func
 208              	prvSwitchTimerLists.isra.1:
 209              		@ args = 0, pretend = 0, frame = 0
 210              		@ frame_needed = 0, uses_anonymous_args = 0
 211 0138 2DE9F341 		push	{r0, r1, r4, r5, r6, r7, r8, lr}
 212 013c 164C     		ldr	r4, .L37
 213 013e 0025     		movs	r5, #0
 214 0140 20E0     		b	.L36
 215              	.L33:
 216 0142 DA68     		ldr	r2, [r3, #12]
 217 0144 1668     		ldr	r6, [r2, #0]
 218 0146 DB68     		ldr	r3, [r3, #12]
 219 0148 DF68     		ldr	r7, [r3, #12]
 220 014a 07F10408 		add	r8, r7, #4
 221 014e 4046     		mov	r0, r8
 222 0150 FFF7FEFF 		bl	vListRemove
 223 0154 7B6A     		ldr	r3, [r7, #36]
 224 0156 3846     		mov	r0, r7
 225 0158 9847     		blx	r3
 226 015a FB69     		ldr	r3, [r7, #28]
 227 015c 012B     		cmp	r3, #1
 228 015e 11D1     		bne	.L36
 229 0160 BB69     		ldr	r3, [r7, #24]
 230 0162 F318     		adds	r3, r6, r3
 231 0164 B342     		cmp	r3, r6
 232 0166 06D9     		bls	.L31
 233 0168 7B60     		str	r3, [r7, #4]
 234 016a 3F61     		str	r7, [r7, #16]
 235 016c E06A     		ldr	r0, [r4, #44]
 236 016e 4146     		mov	r1, r8
 237 0170 FFF7FEFF 		bl	vListInsert
 238 0174 06E0     		b	.L36
 239              	.L31:
 240 0176 0021     		movs	r1, #0
 241 0178 3846     		mov	r0, r7
 242 017a 3246     		mov	r2, r6
 243 017c 0B46     		mov	r3, r1
 244 017e 0095     		str	r5, [sp, #0]
 245 0180 FFF7FEFF 		bl	xTimerGenericCommand
 246              	.L36:
 247 0184 E36A     		ldr	r3, [r4, #44]
 248 0186 044A     		ldr	r2, .L37
 249 0188 1968     		ldr	r1, [r3, #0]
 250 018a 0029     		cmp	r1, #0
 251 018c D9D1     		bne	.L33
 252 018e 116B     		ldr	r1, [r2, #48]
 253 0190 1363     		str	r3, [r2, #48]
 254 0192 D162     		str	r1, [r2, #44]
 255 0194 BDE8FC81 		pop	{r2, r3, r4, r5, r6, r7, r8, pc}
 256              	.L38:
 257              		.align	2
 258              	.L37:
 259 0198 00000000 		.word	.LANCHOR0
 261              		.align	1
 262              		.thumb
 263              		.thumb_func
 265              	prvTimerTask:
 266              		@ args = 0, pretend = 0, frame = 16
 267              		@ frame_needed = 0, uses_anonymous_args = 0
 268 019c 2DE9F043 		push	{r4, r5, r6, r7, r8, r9, lr}
 269 01a0 4B4D     		ldr	r5, .L61
 270 01a2 87B0     		sub	sp, sp, #28
 271 01a4 A846     		mov	r8, r5
 272              	.L55:
 273 01a6 EB6A     		ldr	r3, [r5, #44]
 274 01a8 1C68     		ldr	r4, [r3, #0]
 275 01aa D4F10104 		rsbs	r4, r4, #1
 276 01ae 38BF     		it	cc
 277 01b0 0024     		movcc	r4, #0
 278 01b2 0026     		movs	r6, #0
 279 01b4 0CB9     		cbnz	r4, .L40
 280 01b6 DB68     		ldr	r3, [r3, #12]
 281 01b8 1E68     		ldr	r6, [r3, #0]
 282              	.L40:
 283 01ba FFF7FEFF 		bl	vTaskSuspendAll
 284 01be FFF7FEFF 		bl	xTaskGetTickCount
 285 01c2 D8F83430 		ldr	r3, [r8, #52]
 286 01c6 0027     		movs	r7, #0
 287 01c8 9842     		cmp	r0, r3
 288 01ca 8146     		mov	r9, r0
 289 01cc 02D2     		bcs	.L41
 290 01ce FFF7B3FF 		bl	prvSwitchTimerLists.isra.1
 291 01d2 0127     		movs	r7, #1
 292              	.L41:
 293 01d4 C5F83490 		str	r9, [r5, #52]
 294 01d8 002F     		cmp	r7, #0
 295 01da 31D1     		bne	.L42
 296 01dc 84F00104 		eor	r4, r4, #1
 297 01e0 4E45     		cmp	r6, r9
 298 01e2 8CBF     		ite	hi
 299 01e4 0024     		movhi	r4, #0
 300 01e6 04F00104 		andls	r4, r4, #1
 301 01ea F4B1     		cbz	r4, .L43
 302 01ec FFF7FEFF 		bl	xTaskResumeAll
 303 01f0 EB6A     		ldr	r3, [r5, #44]
 304 01f2 DB68     		ldr	r3, [r3, #12]
 305 01f4 DC68     		ldr	r4, [r3, #12]
 306 01f6 201D     		adds	r0, r4, #4
 307 01f8 FFF7FEFF 		bl	vListRemove
 308 01fc E369     		ldr	r3, [r4, #28]
 309 01fe 012B     		cmp	r3, #1
 310 0200 0FD1     		bne	.L44
 311 0202 A169     		ldr	r1, [r4, #24]
 312 0204 2046     		mov	r0, r4
 313 0206 7118     		adds	r1, r6, r1
 314 0208 4A46     		mov	r2, r9
 315 020a 3346     		mov	r3, r6
 316 020c FFF714FF 		bl	prvInsertTimerInActiveList
 317 0210 0128     		cmp	r0, #1
 318 0212 06D1     		bne	.L44
 319 0214 2046     		mov	r0, r4
 320 0216 3946     		mov	r1, r7
 321 0218 3246     		mov	r2, r6
 322 021a 3B46     		mov	r3, r7
 323 021c 0097     		str	r7, [sp, #0]
 324 021e FFF7FEFF 		bl	xTimerGenericCommand
 325              	.L44:
 326 0222 636A     		ldr	r3, [r4, #36]
 327 0224 2046     		mov	r0, r4
 328 0226 9847     		blx	r3
 329 0228 0CE0     		b	.L45
 330              	.L43:
 331 022a C9EB0601 		rsb	r1, r9, r6
 332 022e 2868     		ldr	r0, [r5, #0]
 333 0230 FFF7FEFF 		bl	vQueueWaitForMessageRestricted
 334 0234 FFF7FEFF 		bl	xTaskResumeAll
 335 0238 20B9     		cbnz	r0, .L45
 336 023a FFF7FEFF 		bl	vPortYieldFromISR
 337 023e 01E0     		b	.L45
 338              	.L42:
 339 0240 FFF7FEFF 		bl	xTaskResumeAll
 340              	.L45:
 341 0244 FFF7FEFF 		bl	xTaskGetTickCount
 342 0248 6B6B     		ldr	r3, [r5, #52]
 343 024a 0646     		mov	r6, r0
 344 024c 9842     		cmp	r0, r3
 345 024e 01D2     		bcs	.L46
 346 0250 FFF772FF 		bl	prvSwitchTimerLists.isra.1
 347              	.L46:
 348 0254 C8F83460 		str	r6, [r8, #52]
 349 0258 31E0     		b	.L60
 350              	.L54:
 351 025a 059C     		ldr	r4, [sp, #20]
 352 025c 24B1     		cbz	r4, .L48
 353 025e 6369     		ldr	r3, [r4, #20]
 354 0260 13B1     		cbz	r3, .L48
 355 0262 201D     		adds	r0, r4, #4
 356 0264 FFF7FEFF 		bl	vListRemove
 357              	.L48:
 358 0268 039F     		ldr	r7, [sp, #12]
 359 026a 022F     		cmp	r7, #2
 360 026c 1BD0     		beq	.L51
 361 026e 032F     		cmp	r7, #3
 362 0270 22D0     		beq	.L52
 363 0272 27BB     		cbnz	r7, .L60
 364 0274 049B     		ldr	r3, [sp, #16]
 365 0276 A169     		ldr	r1, [r4, #24]
 366 0278 2046     		mov	r0, r4
 367 027a 5918     		adds	r1, r3, r1
 368 027c 3246     		mov	r2, r6
 369 027e FFF7DBFE 		bl	prvInsertTimerInActiveList
 370 0282 0128     		cmp	r0, #1
 371 0284 1BD1     		bne	.L60
 372 0286 636A     		ldr	r3, [r4, #36]
 373 0288 2046     		mov	r0, r4
 374 028a 9847     		blx	r3
 375 028c E369     		ldr	r3, [r4, #28]
 376 028e 012B     		cmp	r3, #1
 377 0290 15D1     		bne	.L60
 378 0292 A269     		ldr	r2, [r4, #24]
 379 0294 049B     		ldr	r3, [sp, #16]
 380 0296 2046     		mov	r0, r4
 381 0298 D218     		adds	r2, r2, r3
 382 029a 3946     		mov	r1, r7
 383 029c 3B46     		mov	r3, r7
 384 029e 0097     		str	r7, [sp, #0]
 385 02a0 FFF7FEFF 		bl	xTimerGenericCommand
 386 02a4 0BE0     		b	.L60
 387              	.L51:
 388 02a6 0499     		ldr	r1, [sp, #16]
 389 02a8 2046     		mov	r0, r4
 390 02aa A161     		str	r1, [r4, #24]
 391 02ac 3246     		mov	r2, r6
 392 02ae 7118     		adds	r1, r6, r1
 393 02b0 3346     		mov	r3, r6
 394 02b2 FFF7C1FE 		bl	prvInsertTimerInActiveList
 395 02b6 02E0     		b	.L60
 396              	.L52:
 397 02b8 2046     		mov	r0, r4
 398 02ba FFF7FEFF 		bl	vPortFree
 399              	.L60:
 400 02be 0022     		movs	r2, #0
 401 02c0 2868     		ldr	r0, [r5, #0]
 402 02c2 03A9     		add	r1, sp, #12
 403 02c4 1346     		mov	r3, r2
 404 02c6 FFF7FEFF 		bl	xQueueGenericReceive
 405 02ca 0028     		cmp	r0, #0
 406 02cc C5D1     		bne	.L54
 407 02ce 6AE7     		b	.L55
 408              	.L62:
 409              		.align	2
 410              	.L61:
 411 02d0 00000000 		.word	.LANCHOR0
 413              		.align	1
 414              		.global	xTimerIsTimerActive
 415              		.thumb
 416              		.thumb_func
 418              	xTimerIsTimerActive:
 419              		@ args = 0, pretend = 0, frame = 0
 420              		@ frame_needed = 0, uses_anonymous_args = 0
 421 02d4 10B5     		push	{r4, lr}
 422 02d6 0446     		mov	r4, r0
 423 02d8 FFF7FEFF 		bl	vPortEnterCritical
 424 02dc 6469     		ldr	r4, [r4, #20]
 425 02de 0034     		adds	r4, r4, #0
 426 02e0 18BF     		it	ne
 427 02e2 0124     		movne	r4, #1
 428 02e4 FFF7FEFF 		bl	vPortExitCritical
 429 02e8 2046     		mov	r0, r4
 430 02ea 10BD     		pop	{r4, pc}
 432              		.align	1
 433              		.global	pvTimerGetTimerID
 434              		.thumb
 435              		.thumb_func
 437              	pvTimerGetTimerID:
 438              		@ args = 0, pretend = 0, frame = 0
 439              		@ frame_needed = 0, uses_anonymous_args = 0
 440              		@ link register save eliminated.
 441 02ec 006A     		ldr	r0, [r0, #32]
 442 02ee 7047     		bx	lr
 444              		.section	.rodata.str1.1,"aMS",%progbits,1
 445              	.LC0:
 446 0000 546D7220 		.ascii	"Tmr Svc\000"
 446      53766300 
 447              		.bss
 448              		.align	2
 449              		.set	.LANCHOR0,. + 0
 452              	xTimerQueue:
 453 0000 00000000 		.space	4
 456              	xActiveTimerList1:
 457 0004 00000000 		.space	20
 457      00000000 
 457      00000000 
 457      00000000 
 457      00000000 
 460              	xActiveTimerList2:
 461 0018 00000000 		.space	20
 461      00000000 
 461      00000000 
 461      00000000 
 461      00000000 
 464              	pxCurrentTimerList:
 465 002c 00000000 		.space	4
 468              	pxOverflowTimerList:
 469 0030 00000000 		.space	4
 472              	xLastTime.1619:
 473 0034 00000000 		.space	4
 474              		.ident	"GCC: (GNU) 4.6.2"