   1              		.syntax unified
   2              		.cpu cortex-m3
   3              		.fpu softvfp
   4              		.eabi_attribute 20, 1
   5              		.eabi_attribute 21, 1
   6              		.eabi_attribute 23, 3
   7              		.eabi_attribute 24, 1
   8              		.eabi_attribute 25, 1
   9              		.eabi_attribute 26, 1
  10              		.eabi_attribute 30, 4
  11              		.eabi_attribute 18, 4
  12              		.thumb
  13              		.file	"spi1.c"
  14              		.text
  15              		.align	1
  16              		.global	spi1_SetMaxClockMhz
  17              		.thumb
  18              		.thumb_func
  20              	spi1_SetMaxClockMhz:
  21              		@ args = 0, pretend = 0, frame = 0
  22              		@ frame_needed = 0, uses_anonymous_args = 0
  23 0000 10B5     		push	{r4, lr}
  24 0002 0446     		mov	r4, r0
  25 0004 FFF7FEFF 		bl	getCpuClock
  26 0008 0A4B     		ldr	r3, .L4
  27 000a B0FBF3F0 		udiv	r0, r0, r3
  28 000e 0223     		movs	r3, #2
  29 0010 00E0     		b	.L2
  30              	.L3:
  31 0012 0233     		adds	r3, r3, #2
  32              	.L2:
  33 0014 FE2B     		cmp	r3, #254
  34 0016 B0FBF3F1 		udiv	r1, r0, r3
  35 001a 8CBF     		ite	hi
  36 001c 0022     		movhi	r2, #0
  37 001e 0122     		movls	r2, #1
  38 0020 8C42     		cmp	r4, r1
  39 0022 2CBF     		ite	cs
  40 0024 0022     		movcs	r2, #0
  41 0026 02F00102 		andcc	r2, r2, #1
  42 002a 002A     		cmp	r2, #0
  43 002c F1D1     		bne	.L3
  44 002e 024A     		ldr	r2, .L4+4
  45 0030 1361     		str	r3, [r2, #16]
  46 0032 10BD     		pop	{r4, pc}
  47              	.L5:
  48              		.align	2
  49              	.L4:
  50 0034 40420F00 		.word	1000000
  51 0038 00000340 		.word	1073938432
  53              		.align	1
  54              		.global	spi1_Init
  55              		.thumb
  56              		.thumb_func
  58              	spi1_Init:
  59              		@ args = 0, pretend = 0, frame = 0
  60              		@ frame_needed = 0, uses_anonymous_args = 0
  61              		@ link register save eliminated.
  62 003c 124B     		ldr	r3, .L7
  63 003e 0C20     		movs	r0, #12
  64 0040 D3F8C420 		ldr	r2, [r3, #196]
  65 0044 42F48062 		orr	r2, r2, #1024
  66 0048 C3F8C420 		str	r2, [r3, #196]
  67 004c D3F8A821 		ldr	r2, [r3, #424]
  68 0050 22F44012 		bic	r2, r2, #3145728
  69 0054 C3F8A821 		str	r2, [r3, #424]
  70 0058 D3F8A821 		ldr	r2, [r3, #424]
  71 005c 42F48012 		orr	r2, r2, #1048576
  72 0060 C3F8A821 		str	r2, [r3, #424]
  73 0064 A3F55023 		sub	r3, r3, #851968
  74 0068 1A68     		ldr	r2, [r3, #0]
  75 006a 22F47C22 		bic	r2, r2, #1032192
  76 006e 1A60     		str	r2, [r3, #0]
  77 0070 1A68     		ldr	r2, [r3, #0]
  78 0072 42F42822 		orr	r2, r2, #688128
  79 0076 1A60     		str	r2, [r3, #0]
  80 0078 03F58043 		add	r3, r3, #16384
  81 007c 0722     		movs	r2, #7
  82 007e 1A60     		str	r2, [r3, #0]
  83 0080 0222     		movs	r2, #2
  84 0082 5A60     		str	r2, [r3, #4]
  85 0084 FEE7     		b	spi1_SetMaxClockMhz
  86              	.L8:
  87 0086 00BF     		.align	2
  88              	.L7:
  89 0088 00C00F40 		.word	1074774016
  91              		.align	1
  92              		.global	spi1_Receive256Bytes
  93              		.thumb
  94              		.thumb_func
  96              	spi1_Receive256Bytes:
  97              		@ args = 0, pretend = 0, frame = 0
  98              		@ frame_needed = 0, uses_anonymous_args = 0
  99              		@ link register save eliminated.
 100 008c 864B     		ldr	r3, .L138
 101 008e FF22     		movs	r2, #255
 102 0090 9A60     		str	r2, [r3, #8]
 103 0092 9A60     		str	r2, [r3, #8]
 104 0094 9A60     		str	r2, [r3, #8]
 105 0096 9A60     		str	r2, [r3, #8]
 106 0098 9A60     		str	r2, [r3, #8]
 107 009a 9A60     		str	r2, [r3, #8]
 108 009c 9A60     		str	r2, [r3, #8]
 109 009e 9A60     		str	r2, [r3, #8]
 110 00a0 1A46     		mov	r2, r3
 111              	.L10:
 112 00a2 9169     		ldr	r1, [r2, #24]
 113 00a4 804B     		ldr	r3, .L138
 114 00a6 4907     		lsls	r1, r1, #29
 115 00a8 FBD5     		bpl	.L10
 116 00aa 9A68     		ldr	r2, [r3, #8]
 117 00ac 0270     		strb	r2, [r0, #0]
 118 00ae FF22     		movs	r2, #255
 119 00b0 9A60     		str	r2, [r3, #8]
 120 00b2 9968     		ldr	r1, [r3, #8]
 121 00b4 4170     		strb	r1, [r0, #1]
 122 00b6 9A60     		str	r2, [r3, #8]
 123 00b8 9968     		ldr	r1, [r3, #8]
 124 00ba 8170     		strb	r1, [r0, #2]
 125 00bc 9A60     		str	r2, [r3, #8]
 126 00be 9968     		ldr	r1, [r3, #8]
 127 00c0 C170     		strb	r1, [r0, #3]
 128 00c2 9A60     		str	r2, [r3, #8]
 129 00c4 1A46     		mov	r2, r3
 130              	.L11:
 131 00c6 9169     		ldr	r1, [r2, #24]
 132 00c8 774B     		ldr	r3, .L138
 133 00ca 4907     		lsls	r1, r1, #29
 134 00cc FBD5     		bpl	.L11
 135 00ce 9A68     		ldr	r2, [r3, #8]
 136 00d0 0271     		strb	r2, [r0, #4]
 137 00d2 FF22     		movs	r2, #255
 138 00d4 9A60     		str	r2, [r3, #8]
 139 00d6 9968     		ldr	r1, [r3, #8]
 140 00d8 4171     		strb	r1, [r0, #5]
 141 00da 9A60     		str	r2, [r3, #8]
 142 00dc 9968     		ldr	r1, [r3, #8]
 143 00de 8171     		strb	r1, [r0, #6]
 144 00e0 9A60     		str	r2, [r3, #8]
 145 00e2 9968     		ldr	r1, [r3, #8]
 146 00e4 C171     		strb	r1, [r0, #7]
 147 00e6 9A60     		str	r2, [r3, #8]
 148 00e8 1A46     		mov	r2, r3
 149              	.L12:
 150 00ea 9169     		ldr	r1, [r2, #24]
 151 00ec 6E4B     		ldr	r3, .L138
 152 00ee 4907     		lsls	r1, r1, #29
 153 00f0 FBD5     		bpl	.L12
 154 00f2 9A68     		ldr	r2, [r3, #8]
 155 00f4 0272     		strb	r2, [r0, #8]
 156 00f6 FF22     		movs	r2, #255
 157 00f8 9A60     		str	r2, [r3, #8]
 158 00fa 9968     		ldr	r1, [r3, #8]
 159 00fc 4172     		strb	r1, [r0, #9]
 160 00fe 9A60     		str	r2, [r3, #8]
 161 0100 9968     		ldr	r1, [r3, #8]
 162 0102 8172     		strb	r1, [r0, #10]
 163 0104 9A60     		str	r2, [r3, #8]
 164 0106 9968     		ldr	r1, [r3, #8]
 165 0108 C172     		strb	r1, [r0, #11]
 166 010a 9A60     		str	r2, [r3, #8]
 167 010c 1A46     		mov	r2, r3
 168              	.L13:
 169 010e 9169     		ldr	r1, [r2, #24]
 170 0110 654B     		ldr	r3, .L138
 171 0112 4907     		lsls	r1, r1, #29
 172 0114 FBD5     		bpl	.L13
 173 0116 9A68     		ldr	r2, [r3, #8]
 174 0118 0273     		strb	r2, [r0, #12]
 175 011a FF22     		movs	r2, #255
 176 011c 9A60     		str	r2, [r3, #8]
 177 011e 9968     		ldr	r1, [r3, #8]
 178 0120 4173     		strb	r1, [r0, #13]
 179 0122 9A60     		str	r2, [r3, #8]
 180 0124 9968     		ldr	r1, [r3, #8]
 181 0126 8173     		strb	r1, [r0, #14]
 182 0128 9A60     		str	r2, [r3, #8]
 183 012a 9968     		ldr	r1, [r3, #8]
 184 012c C173     		strb	r1, [r0, #15]
 185 012e 9A60     		str	r2, [r3, #8]
 186 0130 1A46     		mov	r2, r3
 187              	.L14:
 188 0132 9169     		ldr	r1, [r2, #24]
 189 0134 5C4B     		ldr	r3, .L138
 190 0136 4907     		lsls	r1, r1, #29
 191 0138 FBD5     		bpl	.L14
 192 013a 9A68     		ldr	r2, [r3, #8]
 193 013c 0274     		strb	r2, [r0, #16]
 194 013e FF22     		movs	r2, #255
 195 0140 9A60     		str	r2, [r3, #8]
 196 0142 9968     		ldr	r1, [r3, #8]
 197 0144 4174     		strb	r1, [r0, #17]
 198 0146 9A60     		str	r2, [r3, #8]
 199 0148 9968     		ldr	r1, [r3, #8]
 200 014a 8174     		strb	r1, [r0, #18]
 201 014c 9A60     		str	r2, [r3, #8]
 202 014e 9968     		ldr	r1, [r3, #8]
 203 0150 C174     		strb	r1, [r0, #19]
 204 0152 9A60     		str	r2, [r3, #8]
 205 0154 1A46     		mov	r2, r3
 206              	.L15:
 207 0156 9169     		ldr	r1, [r2, #24]
 208 0158 534B     		ldr	r3, .L138
 209 015a 4907     		lsls	r1, r1, #29
 210 015c FBD5     		bpl	.L15
 211 015e 9A68     		ldr	r2, [r3, #8]
 212 0160 0275     		strb	r2, [r0, #20]
 213 0162 FF22     		movs	r2, #255
 214 0164 9A60     		str	r2, [r3, #8]
 215 0166 9968     		ldr	r1, [r3, #8]
 216 0168 4175     		strb	r1, [r0, #21]
 217 016a 9A60     		str	r2, [r3, #8]
 218 016c 9968     		ldr	r1, [r3, #8]
 219 016e 8175     		strb	r1, [r0, #22]
 220 0170 9A60     		str	r2, [r3, #8]
 221 0172 9968     		ldr	r1, [r3, #8]
 222 0174 C175     		strb	r1, [r0, #23]
 223 0176 9A60     		str	r2, [r3, #8]
 224 0178 1A46     		mov	r2, r3
 225              	.L16:
 226 017a 9169     		ldr	r1, [r2, #24]
 227 017c 4A4B     		ldr	r3, .L138
 228 017e 4907     		lsls	r1, r1, #29
 229 0180 FBD5     		bpl	.L16
 230 0182 9A68     		ldr	r2, [r3, #8]
 231 0184 0276     		strb	r2, [r0, #24]
 232 0186 FF22     		movs	r2, #255
 233 0188 9A60     		str	r2, [r3, #8]
 234 018a 9968     		ldr	r1, [r3, #8]
 235 018c 4176     		strb	r1, [r0, #25]
 236 018e 9A60     		str	r2, [r3, #8]
 237 0190 9968     		ldr	r1, [r3, #8]
 238 0192 8176     		strb	r1, [r0, #26]
 239 0194 9A60     		str	r2, [r3, #8]
 240 0196 9968     		ldr	r1, [r3, #8]
 241 0198 C176     		strb	r1, [r0, #27]
 242 019a 9A60     		str	r2, [r3, #8]
 243 019c 1A46     		mov	r2, r3
 244              	.L17:
 245 019e 9169     		ldr	r1, [r2, #24]
 246 01a0 414B     		ldr	r3, .L138
 247 01a2 4907     		lsls	r1, r1, #29
 248 01a4 FBD5     		bpl	.L17
 249 01a6 9A68     		ldr	r2, [r3, #8]
 250 01a8 0277     		strb	r2, [r0, #28]
 251 01aa FF22     		movs	r2, #255
 252 01ac 9A60     		str	r2, [r3, #8]
 253 01ae 9968     		ldr	r1, [r3, #8]
 254 01b0 4177     		strb	r1, [r0, #29]
 255 01b2 9A60     		str	r2, [r3, #8]
 256 01b4 9968     		ldr	r1, [r3, #8]
 257 01b6 8177     		strb	r1, [r0, #30]
 258 01b8 9A60     		str	r2, [r3, #8]
 259 01ba 9968     		ldr	r1, [r3, #8]
 260 01bc C177     		strb	r1, [r0, #31]
 261 01be 9A60     		str	r2, [r3, #8]
 262 01c0 1A46     		mov	r2, r3
 263              	.L18:
 264 01c2 9169     		ldr	r1, [r2, #24]
 265 01c4 384B     		ldr	r3, .L138
 266 01c6 4907     		lsls	r1, r1, #29
 267 01c8 FBD5     		bpl	.L18
 268 01ca 9A68     		ldr	r2, [r3, #8]
 269 01cc 80F82020 		strb	r2, [r0, #32]
 270 01d0 FF22     		movs	r2, #255
 271 01d2 9A60     		str	r2, [r3, #8]
 272 01d4 9968     		ldr	r1, [r3, #8]
 273 01d6 80F82110 		strb	r1, [r0, #33]
 274 01da 9A60     		str	r2, [r3, #8]
 275 01dc 9968     		ldr	r1, [r3, #8]
 276 01de 80F82210 		strb	r1, [r0, #34]
 277 01e2 9A60     		str	r2, [r3, #8]
 278 01e4 9968     		ldr	r1, [r3, #8]
 279 01e6 80F82310 		strb	r1, [r0, #35]
 280 01ea 9A60     		str	r2, [r3, #8]
 281 01ec 1A46     		mov	r2, r3
 282              	.L19:
 283 01ee 9169     		ldr	r1, [r2, #24]
 284 01f0 2D4B     		ldr	r3, .L138
 285 01f2 4907     		lsls	r1, r1, #29
 286 01f4 FBD5     		bpl	.L19
 287 01f6 9A68     		ldr	r2, [r3, #8]
 288 01f8 80F82420 		strb	r2, [r0, #36]
 289 01fc FF22     		movs	r2, #255
 290 01fe 9A60     		str	r2, [r3, #8]
 291 0200 9968     		ldr	r1, [r3, #8]
 292 0202 80F82510 		strb	r1, [r0, #37]
 293 0206 9A60     		str	r2, [r3, #8]
 294 0208 9968     		ldr	r1, [r3, #8]
 295 020a 80F82610 		strb	r1, [r0, #38]
 296 020e 9A60     		str	r2, [r3, #8]
 297 0210 9968     		ldr	r1, [r3, #8]
 298 0212 80F82710 		strb	r1, [r0, #39]
 299 0216 9A60     		str	r2, [r3, #8]
 300 0218 1A46     		mov	r2, r3
 301              	.L20:
 302 021a 9169     		ldr	r1, [r2, #24]
 303 021c 224B     		ldr	r3, .L138
 304 021e 4907     		lsls	r1, r1, #29
 305 0220 FBD5     		bpl	.L20
 306 0222 9A68     		ldr	r2, [r3, #8]
 307 0224 80F82820 		strb	r2, [r0, #40]
 308 0228 FF22     		movs	r2, #255
 309 022a 9A60     		str	r2, [r3, #8]
 310 022c 9968     		ldr	r1, [r3, #8]
 311 022e 80F82910 		strb	r1, [r0, #41]
 312 0232 9A60     		str	r2, [r3, #8]
 313 0234 9968     		ldr	r1, [r3, #8]
 314 0236 80F82A10 		strb	r1, [r0, #42]
 315 023a 9A60     		str	r2, [r3, #8]
 316 023c 9968     		ldr	r1, [r3, #8]
 317 023e 80F82B10 		strb	r1, [r0, #43]
 318 0242 9A60     		str	r2, [r3, #8]
 319 0244 1A46     		mov	r2, r3
 320              	.L21:
 321 0246 9169     		ldr	r1, [r2, #24]
 322 0248 174B     		ldr	r3, .L138
 323 024a 4907     		lsls	r1, r1, #29
 324 024c FBD5     		bpl	.L21
 325 024e 9A68     		ldr	r2, [r3, #8]
 326 0250 80F82C20 		strb	r2, [r0, #44]
 327 0254 FF22     		movs	r2, #255
 328 0256 9A60     		str	r2, [r3, #8]
 329 0258 9968     		ldr	r1, [r3, #8]
 330 025a 80F82D10 		strb	r1, [r0, #45]
 331 025e 9A60     		str	r2, [r3, #8]
 332 0260 9968     		ldr	r1, [r3, #8]
 333 0262 80F82E10 		strb	r1, [r0, #46]
 334 0266 9A60     		str	r2, [r3, #8]
 335 0268 9968     		ldr	r1, [r3, #8]
 336 026a 80F82F10 		strb	r1, [r0, #47]
 337 026e 9A60     		str	r2, [r3, #8]
 338 0270 1A46     		mov	r2, r3
 339              	.L22:
 340 0272 9169     		ldr	r1, [r2, #24]
 341 0274 0C4B     		ldr	r3, .L138
 342 0276 4907     		lsls	r1, r1, #29
 343 0278 FBD5     		bpl	.L22
 344 027a 9A68     		ldr	r2, [r3, #8]
 345 027c 80F83020 		strb	r2, [r0, #48]
 346 0280 FF22     		movs	r2, #255
 347 0282 9A60     		str	r2, [r3, #8]
 348 0284 9968     		ldr	r1, [r3, #8]
 349 0286 80F83110 		strb	r1, [r0, #49]
 350 028a 9A60     		str	r2, [r3, #8]
 351 028c 9968     		ldr	r1, [r3, #8]
 352 028e 80F83210 		strb	r1, [r0, #50]
 353 0292 9A60     		str	r2, [r3, #8]
 354 0294 9968     		ldr	r1, [r3, #8]
 355 0296 80F83310 		strb	r1, [r0, #51]
 356 029a 9A60     		str	r2, [r3, #8]
 357 029c 1A46     		mov	r2, r3
 358              	.L23:
 359 029e 9169     		ldr	r1, [r2, #24]
 360 02a0 014B     		ldr	r3, .L138
 361 02a2 4907     		lsls	r1, r1, #29
 362 02a4 FBD5     		bpl	.L23
 363 02a6 01E0     		b	.L139
 364              	.L140:
 365              		.align	2
 366              	.L138:
 367 02a8 00000340 		.word	1073938432
 368              	.L139:
 369 02ac 9A68     		ldr	r2, [r3, #8]
 370 02ae 80F83420 		strb	r2, [r0, #52]
 371 02b2 FF22     		movs	r2, #255
 372 02b4 9A60     		str	r2, [r3, #8]
 373 02b6 9968     		ldr	r1, [r3, #8]
 374 02b8 80F83510 		strb	r1, [r0, #53]
 375 02bc 9A60     		str	r2, [r3, #8]
 376 02be 9968     		ldr	r1, [r3, #8]
 377 02c0 80F83610 		strb	r1, [r0, #54]
 378 02c4 9A60     		str	r2, [r3, #8]
 379 02c6 9968     		ldr	r1, [r3, #8]
 380 02c8 80F83710 		strb	r1, [r0, #55]
 381 02cc 9A60     		str	r2, [r3, #8]
 382 02ce 1A46     		mov	r2, r3
 383              	.L24:
 384 02d0 9169     		ldr	r1, [r2, #24]
 385 02d2 9C4B     		ldr	r3, .L141
 386 02d4 4907     		lsls	r1, r1, #29
 387 02d6 FBD5     		bpl	.L24
 388 02d8 9A68     		ldr	r2, [r3, #8]
 389 02da 80F83820 		strb	r2, [r0, #56]
 390 02de FF22     		movs	r2, #255
 391 02e0 9A60     		str	r2, [r3, #8]
 392 02e2 9968     		ldr	r1, [r3, #8]
 393 02e4 80F83910 		strb	r1, [r0, #57]
 394 02e8 9A60     		str	r2, [r3, #8]
 395 02ea 9968     		ldr	r1, [r3, #8]
 396 02ec 80F83A10 		strb	r1, [r0, #58]
 397 02f0 9A60     		str	r2, [r3, #8]
 398 02f2 9968     		ldr	r1, [r3, #8]
 399 02f4 80F83B10 		strb	r1, [r0, #59]
 400 02f8 9A60     		str	r2, [r3, #8]
 401 02fa 1A46     		mov	r2, r3
 402              	.L25:
 403 02fc 9169     		ldr	r1, [r2, #24]
 404 02fe 914B     		ldr	r3, .L141
 405 0300 4907     		lsls	r1, r1, #29
 406 0302 FBD5     		bpl	.L25
 407 0304 9A68     		ldr	r2, [r3, #8]
 408 0306 80F83C20 		strb	r2, [r0, #60]
 409 030a FF22     		movs	r2, #255
 410 030c 9A60     		str	r2, [r3, #8]
 411 030e 9968     		ldr	r1, [r3, #8]
 412 0310 80F83D10 		strb	r1, [r0, #61]
 413 0314 9A60     		str	r2, [r3, #8]
 414 0316 9968     		ldr	r1, [r3, #8]
 415 0318 80F83E10 		strb	r1, [r0, #62]
 416 031c 9A60     		str	r2, [r3, #8]
 417 031e 9968     		ldr	r1, [r3, #8]
 418 0320 80F83F10 		strb	r1, [r0, #63]
 419 0324 9A60     		str	r2, [r3, #8]
 420 0326 1A46     		mov	r2, r3
 421              	.L26:
 422 0328 9169     		ldr	r1, [r2, #24]
 423 032a 864B     		ldr	r3, .L141
 424 032c 4907     		lsls	r1, r1, #29
 425 032e FBD5     		bpl	.L26
 426 0330 9A68     		ldr	r2, [r3, #8]
 427 0332 80F84020 		strb	r2, [r0, #64]
 428 0336 FF22     		movs	r2, #255
 429 0338 9A60     		str	r2, [r3, #8]
 430 033a 9968     		ldr	r1, [r3, #8]
 431 033c 80F84110 		strb	r1, [r0, #65]
 432 0340 9A60     		str	r2, [r3, #8]
 433 0342 9968     		ldr	r1, [r3, #8]
 434 0344 80F84210 		strb	r1, [r0, #66]
 435 0348 9A60     		str	r2, [r3, #8]
 436 034a 9968     		ldr	r1, [r3, #8]
 437 034c 80F84310 		strb	r1, [r0, #67]
 438 0350 9A60     		str	r2, [r3, #8]
 439 0352 1A46     		mov	r2, r3
 440              	.L27:
 441 0354 9169     		ldr	r1, [r2, #24]
 442 0356 7B4B     		ldr	r3, .L141
 443 0358 4907     		lsls	r1, r1, #29
 444 035a FBD5     		bpl	.L27
 445 035c 9A68     		ldr	r2, [r3, #8]
 446 035e 80F84420 		strb	r2, [r0, #68]
 447 0362 FF22     		movs	r2, #255
 448 0364 9A60     		str	r2, [r3, #8]
 449 0366 9968     		ldr	r1, [r3, #8]
 450 0368 80F84510 		strb	r1, [r0, #69]
 451 036c 9A60     		str	r2, [r3, #8]
 452 036e 9968     		ldr	r1, [r3, #8]
 453 0370 80F84610 		strb	r1, [r0, #70]
 454 0374 9A60     		str	r2, [r3, #8]
 455 0376 9968     		ldr	r1, [r3, #8]
 456 0378 80F84710 		strb	r1, [r0, #71]
 457 037c 9A60     		str	r2, [r3, #8]
 458 037e 1A46     		mov	r2, r3
 459              	.L28:
 460 0380 9169     		ldr	r1, [r2, #24]
 461 0382 704B     		ldr	r3, .L141
 462 0384 4907     		lsls	r1, r1, #29
 463 0386 FBD5     		bpl	.L28
 464 0388 9A68     		ldr	r2, [r3, #8]
 465 038a 80F84820 		strb	r2, [r0, #72]
 466 038e FF22     		movs	r2, #255
 467 0390 9A60     		str	r2, [r3, #8]
 468 0392 9968     		ldr	r1, [r3, #8]
 469 0394 80F84910 		strb	r1, [r0, #73]
 470 0398 9A60     		str	r2, [r3, #8]
 471 039a 9968     		ldr	r1, [r3, #8]
 472 039c 80F84A10 		strb	r1, [r0, #74]
 473 03a0 9A60     		str	r2, [r3, #8]
 474 03a2 9968     		ldr	r1, [r3, #8]
 475 03a4 80F84B10 		strb	r1, [r0, #75]
 476 03a8 9A60     		str	r2, [r3, #8]
 477 03aa 1A46     		mov	r2, r3
 478              	.L29:
 479 03ac 9169     		ldr	r1, [r2, #24]
 480 03ae 654B     		ldr	r3, .L141
 481 03b0 4907     		lsls	r1, r1, #29
 482 03b2 FBD5     		bpl	.L29
 483 03b4 9A68     		ldr	r2, [r3, #8]
 484 03b6 80F84C20 		strb	r2, [r0, #76]
 485 03ba FF22     		movs	r2, #255
 486 03bc 9A60     		str	r2, [r3, #8]
 487 03be 9968     		ldr	r1, [r3, #8]
 488 03c0 80F84D10 		strb	r1, [r0, #77]
 489 03c4 9A60     		str	r2, [r3, #8]
 490 03c6 9968     		ldr	r1, [r3, #8]
 491 03c8 80F84E10 		strb	r1, [r0, #78]
 492 03cc 9A60     		str	r2, [r3, #8]
 493 03ce 9968     		ldr	r1, [r3, #8]
 494 03d0 80F84F10 		strb	r1, [r0, #79]
 495 03d4 9A60     		str	r2, [r3, #8]
 496 03d6 1A46     		mov	r2, r3
 497              	.L30:
 498 03d8 9169     		ldr	r1, [r2, #24]
 499 03da 5A4B     		ldr	r3, .L141
 500 03dc 4907     		lsls	r1, r1, #29
 501 03de FBD5     		bpl	.L30
 502 03e0 9A68     		ldr	r2, [r3, #8]
 503 03e2 80F85020 		strb	r2, [r0, #80]
 504 03e6 FF22     		movs	r2, #255
 505 03e8 9A60     		str	r2, [r3, #8]
 506 03ea 9968     		ldr	r1, [r3, #8]
 507 03ec 80F85110 		strb	r1, [r0, #81]
 508 03f0 9A60     		str	r2, [r3, #8]
 509 03f2 9968     		ldr	r1, [r3, #8]
 510 03f4 80F85210 		strb	r1, [r0, #82]
 511 03f8 9A60     		str	r2, [r3, #8]
 512 03fa 9968     		ldr	r1, [r3, #8]
 513 03fc 80F85310 		strb	r1, [r0, #83]
 514 0400 9A60     		str	r2, [r3, #8]
 515 0402 1A46     		mov	r2, r3
 516              	.L31:
 517 0404 9169     		ldr	r1, [r2, #24]
 518 0406 4F4B     		ldr	r3, .L141
 519 0408 4907     		lsls	r1, r1, #29
 520 040a FBD5     		bpl	.L31
 521 040c 9A68     		ldr	r2, [r3, #8]
 522 040e 80F85420 		strb	r2, [r0, #84]
 523 0412 FF22     		movs	r2, #255
 524 0414 9A60     		str	r2, [r3, #8]
 525 0416 9968     		ldr	r1, [r3, #8]
 526 0418 80F85510 		strb	r1, [r0, #85]
 527 041c 9A60     		str	r2, [r3, #8]
 528 041e 9968     		ldr	r1, [r3, #8]
 529 0420 80F85610 		strb	r1, [r0, #86]
 530 0424 9A60     		str	r2, [r3, #8]
 531 0426 9968     		ldr	r1, [r3, #8]
 532 0428 80F85710 		strb	r1, [r0, #87]
 533 042c 9A60     		str	r2, [r3, #8]
 534 042e 1A46     		mov	r2, r3
 535              	.L32:
 536 0430 9169     		ldr	r1, [r2, #24]
 537 0432 444B     		ldr	r3, .L141
 538 0434 4907     		lsls	r1, r1, #29
 539 0436 FBD5     		bpl	.L32
 540 0438 9A68     		ldr	r2, [r3, #8]
 541 043a 80F85820 		strb	r2, [r0, #88]
 542 043e FF22     		movs	r2, #255
 543 0440 9A60     		str	r2, [r3, #8]
 544 0442 9968     		ldr	r1, [r3, #8]
 545 0444 80F85910 		strb	r1, [r0, #89]
 546 0448 9A60     		str	r2, [r3, #8]
 547 044a 9968     		ldr	r1, [r3, #8]
 548 044c 80F85A10 		strb	r1, [r0, #90]
 549 0450 9A60     		str	r2, [r3, #8]
 550 0452 9968     		ldr	r1, [r3, #8]
 551 0454 80F85B10 		strb	r1, [r0, #91]
 552 0458 9A60     		str	r2, [r3, #8]
 553 045a 1A46     		mov	r2, r3
 554              	.L33:
 555 045c 9169     		ldr	r1, [r2, #24]
 556 045e 394B     		ldr	r3, .L141
 557 0460 4907     		lsls	r1, r1, #29
 558 0462 FBD5     		bpl	.L33
 559 0464 9A68     		ldr	r2, [r3, #8]
 560 0466 80F85C20 		strb	r2, [r0, #92]
 561 046a FF22     		movs	r2, #255
 562 046c 9A60     		str	r2, [r3, #8]
 563 046e 9968     		ldr	r1, [r3, #8]
 564 0470 80F85D10 		strb	r1, [r0, #93]
 565 0474 9A60     		str	r2, [r3, #8]
 566 0476 9968     		ldr	r1, [r3, #8]
 567 0478 80F85E10 		strb	r1, [r0, #94]
 568 047c 9A60     		str	r2, [r3, #8]
 569 047e 9968     		ldr	r1, [r3, #8]
 570 0480 80F85F10 		strb	r1, [r0, #95]
 571 0484 9A60     		str	r2, [r3, #8]
 572 0486 1A46     		mov	r2, r3
 573              	.L34:
 574 0488 9169     		ldr	r1, [r2, #24]
 575 048a 2E4B     		ldr	r3, .L141
 576 048c 4907     		lsls	r1, r1, #29
 577 048e FBD5     		bpl	.L34
 578 0490 9A68     		ldr	r2, [r3, #8]
 579 0492 80F86020 		strb	r2, [r0, #96]
 580 0496 FF22     		movs	r2, #255
 581 0498 9A60     		str	r2, [r3, #8]
 582 049a 9968     		ldr	r1, [r3, #8]
 583 049c 80F86110 		strb	r1, [r0, #97]
 584 04a0 9A60     		str	r2, [r3, #8]
 585 04a2 9968     		ldr	r1, [r3, #8]
 586 04a4 80F86210 		strb	r1, [r0, #98]
 587 04a8 9A60     		str	r2, [r3, #8]
 588 04aa 9968     		ldr	r1, [r3, #8]
 589 04ac 80F86310 		strb	r1, [r0, #99]
 590 04b0 9A60     		str	r2, [r3, #8]
 591 04b2 1A46     		mov	r2, r3
 592              	.L35:
 593 04b4 9169     		ldr	r1, [r2, #24]
 594 04b6 234B     		ldr	r3, .L141
 595 04b8 4907     		lsls	r1, r1, #29
 596 04ba FBD5     		bpl	.L35
 597 04bc 9A68     		ldr	r2, [r3, #8]
 598 04be 80F86420 		strb	r2, [r0, #100]
 599 04c2 FF22     		movs	r2, #255
 600 04c4 9A60     		str	r2, [r3, #8]
 601 04c6 9968     		ldr	r1, [r3, #8]
 602 04c8 80F86510 		strb	r1, [r0, #101]
 603 04cc 9A60     		str	r2, [r3, #8]
 604 04ce 9968     		ldr	r1, [r3, #8]
 605 04d0 80F86610 		strb	r1, [r0, #102]
 606 04d4 9A60     		str	r2, [r3, #8]
 607 04d6 9968     		ldr	r1, [r3, #8]
 608 04d8 80F86710 		strb	r1, [r0, #103]
 609 04dc 9A60     		str	r2, [r3, #8]
 610 04de 1A46     		mov	r2, r3
 611              	.L36:
 612 04e0 9169     		ldr	r1, [r2, #24]
 613 04e2 184B     		ldr	r3, .L141
 614 04e4 4907     		lsls	r1, r1, #29
 615 04e6 FBD5     		bpl	.L36
 616 04e8 9A68     		ldr	r2, [r3, #8]
 617 04ea 80F86820 		strb	r2, [r0, #104]
 618 04ee FF22     		movs	r2, #255
 619 04f0 9A60     		str	r2, [r3, #8]
 620 04f2 9968     		ldr	r1, [r3, #8]
 621 04f4 80F86910 		strb	r1, [r0, #105]
 622 04f8 9A60     		str	r2, [r3, #8]
 623 04fa 9968     		ldr	r1, [r3, #8]
 624 04fc 80F86A10 		strb	r1, [r0, #106]
 625 0500 9A60     		str	r2, [r3, #8]
 626 0502 9968     		ldr	r1, [r3, #8]
 627 0504 80F86B10 		strb	r1, [r0, #107]
 628 0508 9A60     		str	r2, [r3, #8]
 629 050a 1A46     		mov	r2, r3
 630              	.L37:
 631 050c 9169     		ldr	r1, [r2, #24]
 632 050e 0D4B     		ldr	r3, .L141
 633 0510 4907     		lsls	r1, r1, #29
 634 0512 FBD5     		bpl	.L37
 635 0514 9A68     		ldr	r2, [r3, #8]
 636 0516 80F86C20 		strb	r2, [r0, #108]
 637 051a FF22     		movs	r2, #255
 638 051c 9A60     		str	r2, [r3, #8]
 639 051e 9968     		ldr	r1, [r3, #8]
 640 0520 80F86D10 		strb	r1, [r0, #109]
 641 0524 9A60     		str	r2, [r3, #8]
 642 0526 9968     		ldr	r1, [r3, #8]
 643 0528 80F86E10 		strb	r1, [r0, #110]
 644 052c 9A60     		str	r2, [r3, #8]
 645 052e 9968     		ldr	r1, [r3, #8]
 646 0530 80F86F10 		strb	r1, [r0, #111]
 647 0534 9A60     		str	r2, [r3, #8]
 648 0536 1A46     		mov	r2, r3
 649              	.L38:
 650 0538 9169     		ldr	r1, [r2, #24]
 651 053a 024B     		ldr	r3, .L141
 652 053c 4907     		lsls	r1, r1, #29
 653 053e FBD5     		bpl	.L38
 654 0540 02E0     		b	.L142
 655              	.L143:
 656 0542 00BF     		.align	2
 657              	.L141:
 658 0544 00000340 		.word	1073938432
 659              	.L142:
 660 0548 9A68     		ldr	r2, [r3, #8]
 661 054a 80F87020 		strb	r2, [r0, #112]
 662 054e FF22     		movs	r2, #255
 663 0550 9A60     		str	r2, [r3, #8]
 664 0552 9968     		ldr	r1, [r3, #8]
 665 0554 80F87110 		strb	r1, [r0, #113]
 666 0558 9A60     		str	r2, [r3, #8]
 667 055a 9968     		ldr	r1, [r3, #8]
 668 055c 80F87210 		strb	r1, [r0, #114]
 669 0560 9A60     		str	r2, [r3, #8]
 670 0562 9968     		ldr	r1, [r3, #8]
 671 0564 80F87310 		strb	r1, [r0, #115]
 672 0568 9A60     		str	r2, [r3, #8]
 673 056a 1A46     		mov	r2, r3
 674              	.L39:
 675 056c 9169     		ldr	r1, [r2, #24]
 676 056e 9C4B     		ldr	r3, .L144
 677 0570 4907     		lsls	r1, r1, #29
 678 0572 FBD5     		bpl	.L39
 679 0574 9A68     		ldr	r2, [r3, #8]
 680 0576 80F87420 		strb	r2, [r0, #116]
 681 057a FF22     		movs	r2, #255
 682 057c 9A60     		str	r2, [r3, #8]
 683 057e 9968     		ldr	r1, [r3, #8]
 684 0580 80F87510 		strb	r1, [r0, #117]
 685 0584 9A60     		str	r2, [r3, #8]
 686 0586 9968     		ldr	r1, [r3, #8]
 687 0588 80F87610 		strb	r1, [r0, #118]
 688 058c 9A60     		str	r2, [r3, #8]
 689 058e 9968     		ldr	r1, [r3, #8]
 690 0590 80F87710 		strb	r1, [r0, #119]
 691 0594 9A60     		str	r2, [r3, #8]
 692 0596 1A46     		mov	r2, r3
 693              	.L40:
 694 0598 9169     		ldr	r1, [r2, #24]
 695 059a 914B     		ldr	r3, .L144
 696 059c 4907     		lsls	r1, r1, #29
 697 059e FBD5     		bpl	.L40
 698 05a0 9A68     		ldr	r2, [r3, #8]
 699 05a2 80F87820 		strb	r2, [r0, #120]
 700 05a6 FF22     		movs	r2, #255
 701 05a8 9A60     		str	r2, [r3, #8]
 702 05aa 9968     		ldr	r1, [r3, #8]
 703 05ac 80F87910 		strb	r1, [r0, #121]
 704 05b0 9A60     		str	r2, [r3, #8]
 705 05b2 9968     		ldr	r1, [r3, #8]
 706 05b4 80F87A10 		strb	r1, [r0, #122]
 707 05b8 9A60     		str	r2, [r3, #8]
 708 05ba 9968     		ldr	r1, [r3, #8]
 709 05bc 80F87B10 		strb	r1, [r0, #123]
 710 05c0 9A60     		str	r2, [r3, #8]
 711 05c2 1A46     		mov	r2, r3
 712              	.L41:
 713 05c4 9169     		ldr	r1, [r2, #24]
 714 05c6 864B     		ldr	r3, .L144
 715 05c8 4907     		lsls	r1, r1, #29
 716 05ca FBD5     		bpl	.L41
 717 05cc 9A68     		ldr	r2, [r3, #8]
 718 05ce 80F87C20 		strb	r2, [r0, #124]
 719 05d2 FF22     		movs	r2, #255
 720 05d4 9A60     		str	r2, [r3, #8]
 721 05d6 9968     		ldr	r1, [r3, #8]
 722 05d8 80F87D10 		strb	r1, [r0, #125]
 723 05dc 9A60     		str	r2, [r3, #8]
 724 05de 9968     		ldr	r1, [r3, #8]
 725 05e0 80F87E10 		strb	r1, [r0, #126]
 726 05e4 9A60     		str	r2, [r3, #8]
 727 05e6 9968     		ldr	r1, [r3, #8]
 728 05e8 80F87F10 		strb	r1, [r0, #127]
 729 05ec 9A60     		str	r2, [r3, #8]
 730 05ee 1A46     		mov	r2, r3
 731              	.L42:
 732 05f0 9169     		ldr	r1, [r2, #24]
 733 05f2 7B4B     		ldr	r3, .L144
 734 05f4 4907     		lsls	r1, r1, #29
 735 05f6 FBD5     		bpl	.L42
 736 05f8 9A68     		ldr	r2, [r3, #8]
 737 05fa 80F88020 		strb	r2, [r0, #128]
 738 05fe FF22     		movs	r2, #255
 739 0600 9A60     		str	r2, [r3, #8]
 740 0602 9968     		ldr	r1, [r3, #8]
 741 0604 80F88110 		strb	r1, [r0, #129]
 742 0608 9A60     		str	r2, [r3, #8]
 743 060a 9968     		ldr	r1, [r3, #8]
 744 060c 80F88210 		strb	r1, [r0, #130]
 745 0610 9A60     		str	r2, [r3, #8]
 746 0612 9968     		ldr	r1, [r3, #8]
 747 0614 80F88310 		strb	r1, [r0, #131]
 748 0618 9A60     		str	r2, [r3, #8]
 749 061a 1A46     		mov	r2, r3
 750              	.L43:
 751 061c 9169     		ldr	r1, [r2, #24]
 752 061e 704B     		ldr	r3, .L144
 753 0620 4907     		lsls	r1, r1, #29
 754 0622 FBD5     		bpl	.L43
 755 0624 9A68     		ldr	r2, [r3, #8]
 756 0626 80F88420 		strb	r2, [r0, #132]
 757 062a FF22     		movs	r2, #255
 758 062c 9A60     		str	r2, [r3, #8]
 759 062e 9968     		ldr	r1, [r3, #8]
 760 0630 80F88510 		strb	r1, [r0, #133]
 761 0634 9A60     		str	r2, [r3, #8]
 762 0636 9968     		ldr	r1, [r3, #8]
 763 0638 80F88610 		strb	r1, [r0, #134]
 764 063c 9A60     		str	r2, [r3, #8]
 765 063e 9968     		ldr	r1, [r3, #8]
 766 0640 80F88710 		strb	r1, [r0, #135]
 767 0644 9A60     		str	r2, [r3, #8]
 768 0646 1A46     		mov	r2, r3
 769              	.L44:
 770 0648 9169     		ldr	r1, [r2, #24]
 771 064a 654B     		ldr	r3, .L144
 772 064c 4907     		lsls	r1, r1, #29
 773 064e FBD5     		bpl	.L44
 774 0650 9A68     		ldr	r2, [r3, #8]
 775 0652 80F88820 		strb	r2, [r0, #136]
 776 0656 FF22     		movs	r2, #255
 777 0658 9A60     		str	r2, [r3, #8]
 778 065a 9968     		ldr	r1, [r3, #8]
 779 065c 80F88910 		strb	r1, [r0, #137]
 780 0660 9A60     		str	r2, [r3, #8]
 781 0662 9968     		ldr	r1, [r3, #8]
 782 0664 80F88A10 		strb	r1, [r0, #138]
 783 0668 9A60     		str	r2, [r3, #8]
 784 066a 9968     		ldr	r1, [r3, #8]
 785 066c 80F88B10 		strb	r1, [r0, #139]
 786 0670 9A60     		str	r2, [r3, #8]
 787 0672 1A46     		mov	r2, r3
 788              	.L45:
 789 0674 9169     		ldr	r1, [r2, #24]
 790 0676 5A4B     		ldr	r3, .L144
 791 0678 4907     		lsls	r1, r1, #29
 792 067a FBD5     		bpl	.L45
 793 067c 9A68     		ldr	r2, [r3, #8]
 794 067e 80F88C20 		strb	r2, [r0, #140]
 795 0682 FF22     		movs	r2, #255
 796 0684 9A60     		str	r2, [r3, #8]
 797 0686 9968     		ldr	r1, [r3, #8]
 798 0688 80F88D10 		strb	r1, [r0, #141]
 799 068c 9A60     		str	r2, [r3, #8]
 800 068e 9968     		ldr	r1, [r3, #8]
 801 0690 80F88E10 		strb	r1, [r0, #142]
 802 0694 9A60     		str	r2, [r3, #8]
 803 0696 9968     		ldr	r1, [r3, #8]
 804 0698 80F88F10 		strb	r1, [r0, #143]
 805 069c 9A60     		str	r2, [r3, #8]
 806 069e 1A46     		mov	r2, r3
 807              	.L46:
 808 06a0 9169     		ldr	r1, [r2, #24]
 809 06a2 4F4B     		ldr	r3, .L144
 810 06a4 4907     		lsls	r1, r1, #29
 811 06a6 FBD5     		bpl	.L46
 812 06a8 9A68     		ldr	r2, [r3, #8]
 813 06aa 80F89020 		strb	r2, [r0, #144]
 814 06ae FF22     		movs	r2, #255
 815 06b0 9A60     		str	r2, [r3, #8]
 816 06b2 9968     		ldr	r1, [r3, #8]
 817 06b4 80F89110 		strb	r1, [r0, #145]
 818 06b8 9A60     		str	r2, [r3, #8]
 819 06ba 9968     		ldr	r1, [r3, #8]
 820 06bc 80F89210 		strb	r1, [r0, #146]
 821 06c0 9A60     		str	r2, [r3, #8]
 822 06c2 9968     		ldr	r1, [r3, #8]
 823 06c4 80F89310 		strb	r1, [r0, #147]
 824 06c8 9A60     		str	r2, [r3, #8]
 825 06ca 1A46     		mov	r2, r3
 826              	.L47:
 827 06cc 9169     		ldr	r1, [r2, #24]
 828 06ce 444B     		ldr	r3, .L144
 829 06d0 4907     		lsls	r1, r1, #29
 830 06d2 FBD5     		bpl	.L47
 831 06d4 9A68     		ldr	r2, [r3, #8]
 832 06d6 80F89420 		strb	r2, [r0, #148]
 833 06da FF22     		movs	r2, #255
 834 06dc 9A60     		str	r2, [r3, #8]
 835 06de 9968     		ldr	r1, [r3, #8]
 836 06e0 80F89510 		strb	r1, [r0, #149]
 837 06e4 9A60     		str	r2, [r3, #8]
 838 06e6 9968     		ldr	r1, [r3, #8]
 839 06e8 80F89610 		strb	r1, [r0, #150]
 840 06ec 9A60     		str	r2, [r3, #8]
 841 06ee 9968     		ldr	r1, [r3, #8]
 842 06f0 80F89710 		strb	r1, [r0, #151]
 843 06f4 9A60     		str	r2, [r3, #8]
 844 06f6 1A46     		mov	r2, r3
 845              	.L48:
 846 06f8 9169     		ldr	r1, [r2, #24]
 847 06fa 394B     		ldr	r3, .L144
 848 06fc 4907     		lsls	r1, r1, #29
 849 06fe FBD5     		bpl	.L48
 850 0700 9A68     		ldr	r2, [r3, #8]
 851 0702 80F89820 		strb	r2, [r0, #152]
 852 0706 FF22     		movs	r2, #255
 853 0708 9A60     		str	r2, [r3, #8]
 854 070a 9968     		ldr	r1, [r3, #8]
 855 070c 80F89910 		strb	r1, [r0, #153]
 856 0710 9A60     		str	r2, [r3, #8]
 857 0712 9968     		ldr	r1, [r3, #8]
 858 0714 80F89A10 		strb	r1, [r0, #154]
 859 0718 9A60     		str	r2, [r3, #8]
 860 071a 9968     		ldr	r1, [r3, #8]
 861 071c 80F89B10 		strb	r1, [r0, #155]
 862 0720 9A60     		str	r2, [r3, #8]
 863 0722 1A46     		mov	r2, r3
 864              	.L49:
 865 0724 9169     		ldr	r1, [r2, #24]
 866 0726 2E4B     		ldr	r3, .L144
 867 0728 4907     		lsls	r1, r1, #29
 868 072a FBD5     		bpl	.L49
 869 072c 9A68     		ldr	r2, [r3, #8]
 870 072e 80F89C20 		strb	r2, [r0, #156]
 871 0732 FF22     		movs	r2, #255
 872 0734 9A60     		str	r2, [r3, #8]
 873 0736 9968     		ldr	r1, [r3, #8]
 874 0738 80F89D10 		strb	r1, [r0, #157]
 875 073c 9A60     		str	r2, [r3, #8]
 876 073e 9968     		ldr	r1, [r3, #8]
 877 0740 80F89E10 		strb	r1, [r0, #158]
 878 0744 9A60     		str	r2, [r3, #8]
 879 0746 9968     		ldr	r1, [r3, #8]
 880 0748 80F89F10 		strb	r1, [r0, #159]
 881 074c 9A60     		str	r2, [r3, #8]
 882 074e 1A46     		mov	r2, r3
 883              	.L50:
 884 0750 9169     		ldr	r1, [r2, #24]
 885 0752 234B     		ldr	r3, .L144
 886 0754 4907     		lsls	r1, r1, #29
 887 0756 FBD5     		bpl	.L50
 888 0758 9A68     		ldr	r2, [r3, #8]
 889 075a 80F8A020 		strb	r2, [r0, #160]
 890 075e FF22     		movs	r2, #255
 891 0760 9A60     		str	r2, [r3, #8]
 892 0762 9968     		ldr	r1, [r3, #8]
 893 0764 80F8A110 		strb	r1, [r0, #161]
 894 0768 9A60     		str	r2, [r3, #8]
 895 076a 9968     		ldr	r1, [r3, #8]
 896 076c 80F8A210 		strb	r1, [r0, #162]
 897 0770 9A60     		str	r2, [r3, #8]
 898 0772 9968     		ldr	r1, [r3, #8]
 899 0774 80F8A310 		strb	r1, [r0, #163]
 900 0778 9A60     		str	r2, [r3, #8]
 901 077a 1A46     		mov	r2, r3
 902              	.L51:
 903 077c 9169     		ldr	r1, [r2, #24]
 904 077e 184B     		ldr	r3, .L144
 905 0780 4907     		lsls	r1, r1, #29
 906 0782 FBD5     		bpl	.L51
 907 0784 9A68     		ldr	r2, [r3, #8]
 908 0786 80F8A420 		strb	r2, [r0, #164]
 909 078a FF22     		movs	r2, #255
 910 078c 9A60     		str	r2, [r3, #8]
 911 078e 9968     		ldr	r1, [r3, #8]
 912 0790 80F8A510 		strb	r1, [r0, #165]
 913 0794 9A60     		str	r2, [r3, #8]
 914 0796 9968     		ldr	r1, [r3, #8]
 915 0798 80F8A610 		strb	r1, [r0, #166]
 916 079c 9A60     		str	r2, [r3, #8]
 917 079e 9968     		ldr	r1, [r3, #8]
 918 07a0 80F8A710 		strb	r1, [r0, #167]
 919 07a4 9A60     		str	r2, [r3, #8]
 920 07a6 1A46     		mov	r2, r3
 921              	.L52:
 922 07a8 9169     		ldr	r1, [r2, #24]
 923 07aa 0D4B     		ldr	r3, .L144
 924 07ac 4907     		lsls	r1, r1, #29
 925 07ae FBD5     		bpl	.L52
 926 07b0 9A68     		ldr	r2, [r3, #8]
 927 07b2 80F8A820 		strb	r2, [r0, #168]
 928 07b6 FF22     		movs	r2, #255
 929 07b8 9A60     		str	r2, [r3, #8]
 930 07ba 9968     		ldr	r1, [r3, #8]
 931 07bc 80F8A910 		strb	r1, [r0, #169]
 932 07c0 9A60     		str	r2, [r3, #8]
 933 07c2 9968     		ldr	r1, [r3, #8]
 934 07c4 80F8AA10 		strb	r1, [r0, #170]
 935 07c8 9A60     		str	r2, [r3, #8]
 936 07ca 9968     		ldr	r1, [r3, #8]
 937 07cc 80F8AB10 		strb	r1, [r0, #171]
 938 07d0 9A60     		str	r2, [r3, #8]
 939 07d2 1A46     		mov	r2, r3
 940              	.L53:
 941 07d4 9169     		ldr	r1, [r2, #24]
 942 07d6 024B     		ldr	r3, .L144
 943 07d8 4907     		lsls	r1, r1, #29
 944 07da FBD5     		bpl	.L53
 945 07dc 02E0     		b	.L145
 946              	.L146:
 947 07de 00BF     		.align	2
 948              	.L144:
 949 07e0 00000340 		.word	1073938432
 950              	.L145:
 951 07e4 9A68     		ldr	r2, [r3, #8]
 952 07e6 80F8AC20 		strb	r2, [r0, #172]
 953 07ea FF22     		movs	r2, #255
 954 07ec 9A60     		str	r2, [r3, #8]
 955 07ee 9968     		ldr	r1, [r3, #8]
 956 07f0 80F8AD10 		strb	r1, [r0, #173]
 957 07f4 9A60     		str	r2, [r3, #8]
 958 07f6 9968     		ldr	r1, [r3, #8]
 959 07f8 80F8AE10 		strb	r1, [r0, #174]
 960 07fc 9A60     		str	r2, [r3, #8]
 961 07fe 9968     		ldr	r1, [r3, #8]
 962 0800 80F8AF10 		strb	r1, [r0, #175]
 963 0804 9A60     		str	r2, [r3, #8]
 964 0806 1A46     		mov	r2, r3
 965              	.L54:
 966 0808 9169     		ldr	r1, [r2, #24]
 967 080a 9C4B     		ldr	r3, .L147
 968 080c 4907     		lsls	r1, r1, #29
 969 080e FBD5     		bpl	.L54
 970 0810 9A68     		ldr	r2, [r3, #8]
 971 0812 80F8B020 		strb	r2, [r0, #176]
 972 0816 FF22     		movs	r2, #255
 973 0818 9A60     		str	r2, [r3, #8]
 974 081a 9968     		ldr	r1, [r3, #8]
 975 081c 80F8B110 		strb	r1, [r0, #177]
 976 0820 9A60     		str	r2, [r3, #8]
 977 0822 9968     		ldr	r1, [r3, #8]
 978 0824 80F8B210 		strb	r1, [r0, #178]
 979 0828 9A60     		str	r2, [r3, #8]
 980 082a 9968     		ldr	r1, [r3, #8]
 981 082c 80F8B310 		strb	r1, [r0, #179]
 982 0830 9A60     		str	r2, [r3, #8]
 983 0832 1A46     		mov	r2, r3
 984              	.L55:
 985 0834 9169     		ldr	r1, [r2, #24]
 986 0836 914B     		ldr	r3, .L147
 987 0838 4907     		lsls	r1, r1, #29
 988 083a FBD5     		bpl	.L55
 989 083c 9A68     		ldr	r2, [r3, #8]
 990 083e 80F8B420 		strb	r2, [r0, #180]
 991 0842 FF22     		movs	r2, #255
 992 0844 9A60     		str	r2, [r3, #8]
 993 0846 9968     		ldr	r1, [r3, #8]
 994 0848 80F8B510 		strb	r1, [r0, #181]
 995 084c 9A60     		str	r2, [r3, #8]
 996 084e 9968     		ldr	r1, [r3, #8]
 997 0850 80F8B610 		strb	r1, [r0, #182]
 998 0854 9A60     		str	r2, [r3, #8]
 999 0856 9968     		ldr	r1, [r3, #8]
 1000 0858 80F8B710 		strb	r1, [r0, #183]
 1001 085c 9A60     		str	r2, [r3, #8]
 1002 085e 1A46     		mov	r2, r3
 1003              	.L56:
 1004 0860 9169     		ldr	r1, [r2, #24]
 1005 0862 864B     		ldr	r3, .L147
 1006 0864 4907     		lsls	r1, r1, #29
 1007 0866 FBD5     		bpl	.L56
 1008 0868 9A68     		ldr	r2, [r3, #8]
 1009 086a 80F8B820 		strb	r2, [r0, #184]
 1010 086e FF22     		movs	r2, #255
 1011 0870 9A60     		str	r2, [r3, #8]
 1012 0872 9968     		ldr	r1, [r3, #8]
 1013 0874 80F8B910 		strb	r1, [r0, #185]
 1014 0878 9A60     		str	r2, [r3, #8]
 1015 087a 9968     		ldr	r1, [r3, #8]
 1016 087c 80F8BA10 		strb	r1, [r0, #186]
 1017 0880 9A60     		str	r2, [r3, #8]
 1018 0882 9968     		ldr	r1, [r3, #8]
 1019 0884 80F8BB10 		strb	r1, [r0, #187]
 1020 0888 9A60     		str	r2, [r3, #8]
 1021 088a 1A46     		mov	r2, r3
 1022              	.L57:
 1023 088c 9169     		ldr	r1, [r2, #24]
 1024 088e 7B4B     		ldr	r3, .L147
 1025 0890 4907     		lsls	r1, r1, #29
 1026 0892 FBD5     		bpl	.L57
 1027 0894 9A68     		ldr	r2, [r3, #8]
 1028 0896 80F8BC20 		strb	r2, [r0, #188]
 1029 089a FF22     		movs	r2, #255
 1030 089c 9A60     		str	r2, [r3, #8]
 1031 089e 9968     		ldr	r1, [r3, #8]
 1032 08a0 80F8BD10 		strb	r1, [r0, #189]
 1033 08a4 9A60     		str	r2, [r3, #8]
 1034 08a6 9968     		ldr	r1, [r3, #8]
 1035 08a8 80F8BE10 		strb	r1, [r0, #190]
 1036 08ac 9A60     		str	r2, [r3, #8]
 1037 08ae 9968     		ldr	r1, [r3, #8]
 1038 08b0 80F8BF10 		strb	r1, [r0, #191]
 1039 08b4 9A60     		str	r2, [r3, #8]
 1040 08b6 1A46     		mov	r2, r3
 1041              	.L58:
 1042 08b8 9169     		ldr	r1, [r2, #24]
 1043 08ba 704B     		ldr	r3, .L147
 1044 08bc 4907     		lsls	r1, r1, #29
 1045 08be FBD5     		bpl	.L58
 1046 08c0 9A68     		ldr	r2, [r3, #8]
 1047 08c2 80F8C020 		strb	r2, [r0, #192]
 1048 08c6 FF22     		movs	r2, #255
 1049 08c8 9A60     		str	r2, [r3, #8]
 1050 08ca 9968     		ldr	r1, [r3, #8]
 1051 08cc 80F8C110 		strb	r1, [r0, #193]
 1052 08d0 9A60     		str	r2, [r3, #8]
 1053 08d2 9968     		ldr	r1, [r3, #8]
 1054 08d4 80F8C210 		strb	r1, [r0, #194]
 1055 08d8 9A60     		str	r2, [r3, #8]
 1056 08da 9968     		ldr	r1, [r3, #8]
 1057 08dc 80F8C310 		strb	r1, [r0, #195]
 1058 08e0 9A60     		str	r2, [r3, #8]
 1059 08e2 1A46     		mov	r2, r3
 1060              	.L59:
 1061 08e4 9169     		ldr	r1, [r2, #24]
 1062 08e6 654B     		ldr	r3, .L147
 1063 08e8 4907     		lsls	r1, r1, #29
 1064 08ea FBD5     		bpl	.L59
 1065 08ec 9A68     		ldr	r2, [r3, #8]
 1066 08ee 80F8C420 		strb	r2, [r0, #196]
 1067 08f2 FF22     		movs	r2, #255
 1068 08f4 9A60     		str	r2, [r3, #8]
 1069 08f6 9968     		ldr	r1, [r3, #8]
 1070 08f8 80F8C510 		strb	r1, [r0, #197]
 1071 08fc 9A60     		str	r2, [r3, #8]
 1072 08fe 9968     		ldr	r1, [r3, #8]
 1073 0900 80F8C610 		strb	r1, [r0, #198]
 1074 0904 9A60     		str	r2, [r3, #8]
 1075 0906 9968     		ldr	r1, [r3, #8]
 1076 0908 80F8C710 		strb	r1, [r0, #199]
 1077 090c 9A60     		str	r2, [r3, #8]
 1078 090e 1A46     		mov	r2, r3
 1079              	.L60:
 1080 0910 9169     		ldr	r1, [r2, #24]
 1081 0912 5A4B     		ldr	r3, .L147
 1082 0914 4907     		lsls	r1, r1, #29
 1083 0916 FBD5     		bpl	.L60
 1084 0918 9A68     		ldr	r2, [r3, #8]
 1085 091a 80F8C820 		strb	r2, [r0, #200]
 1086 091e FF22     		movs	r2, #255
 1087 0920 9A60     		str	r2, [r3, #8]
 1088 0922 9968     		ldr	r1, [r3, #8]
 1089 0924 80F8C910 		strb	r1, [r0, #201]
 1090 0928 9A60     		str	r2, [r3, #8]
 1091 092a 9968     		ldr	r1, [r3, #8]
 1092 092c 80F8CA10 		strb	r1, [r0, #202]
 1093 0930 9A60     		str	r2, [r3, #8]
 1094 0932 9968     		ldr	r1, [r3, #8]
 1095 0934 80F8CB10 		strb	r1, [r0, #203]
 1096 0938 9A60     		str	r2, [r3, #8]
 1097 093a 1A46     		mov	r2, r3
 1098              	.L61:
 1099 093c 9169     		ldr	r1, [r2, #24]
 1100 093e 4F4B     		ldr	r3, .L147
 1101 0940 4907     		lsls	r1, r1, #29
 1102 0942 FBD5     		bpl	.L61
 1103 0944 9A68     		ldr	r2, [r3, #8]
 1104 0946 80F8CC20 		strb	r2, [r0, #204]
 1105 094a FF22     		movs	r2, #255
 1106 094c 9A60     		str	r2, [r3, #8]
 1107 094e 9968     		ldr	r1, [r3, #8]
 1108 0950 80F8CD10 		strb	r1, [r0, #205]
 1109 0954 9A60     		str	r2, [r3, #8]
 1110 0956 9968     		ldr	r1, [r3, #8]
 1111 0958 80F8CE10 		strb	r1, [r0, #206]
 1112 095c 9A60     		str	r2, [r3, #8]
 1113 095e 9968     		ldr	r1, [r3, #8]
 1114 0960 80F8CF10 		strb	r1, [r0, #207]
 1115 0964 9A60     		str	r2, [r3, #8]
 1116 0966 1A46     		mov	r2, r3
 1117              	.L62:
 1118 0968 9169     		ldr	r1, [r2, #24]
 1119 096a 444B     		ldr	r3, .L147
 1120 096c 4907     		lsls	r1, r1, #29
 1121 096e FBD5     		bpl	.L62
 1122 0970 9A68     		ldr	r2, [r3, #8]
 1123 0972 80F8D020 		strb	r2, [r0, #208]
 1124 0976 FF22     		movs	r2, #255
 1125 0978 9A60     		str	r2, [r3, #8]
 1126 097a 9968     		ldr	r1, [r3, #8]
 1127 097c 80F8D110 		strb	r1, [r0, #209]
 1128 0980 9A60     		str	r2, [r3, #8]
 1129 0982 9968     		ldr	r1, [r3, #8]
 1130 0984 80F8D210 		strb	r1, [r0, #210]
 1131 0988 9A60     		str	r2, [r3, #8]
 1132 098a 9968     		ldr	r1, [r3, #8]
 1133 098c 80F8D310 		strb	r1, [r0, #211]
 1134 0990 9A60     		str	r2, [r3, #8]
 1135 0992 1A46     		mov	r2, r3
 1136              	.L63:
 1137 0994 9169     		ldr	r1, [r2, #24]
 1138 0996 394B     		ldr	r3, .L147
 1139 0998 4907     		lsls	r1, r1, #29
 1140 099a FBD5     		bpl	.L63
 1141 099c 9A68     		ldr	r2, [r3, #8]
 1142 099e 80F8D420 		strb	r2, [r0, #212]
 1143 09a2 FF22     		movs	r2, #255
 1144 09a4 9A60     		str	r2, [r3, #8]
 1145 09a6 9968     		ldr	r1, [r3, #8]
 1146 09a8 80F8D510 		strb	r1, [r0, #213]
 1147 09ac 9A60     		str	r2, [r3, #8]
 1148 09ae 9968     		ldr	r1, [r3, #8]
 1149 09b0 80F8D610 		strb	r1, [r0, #214]
 1150 09b4 9A60     		str	r2, [r3, #8]
 1151 09b6 9968     		ldr	r1, [r3, #8]
 1152 09b8 80F8D710 		strb	r1, [r0, #215]
 1153 09bc 9A60     		str	r2, [r3, #8]
 1154 09be 1A46     		mov	r2, r3
 1155              	.L64:
 1156 09c0 9169     		ldr	r1, [r2, #24]
 1157 09c2 2E4B     		ldr	r3, .L147
 1158 09c4 4907     		lsls	r1, r1, #29
 1159 09c6 FBD5     		bpl	.L64
 1160 09c8 9A68     		ldr	r2, [r3, #8]
 1161 09ca 80F8D820 		strb	r2, [r0, #216]
 1162 09ce FF22     		movs	r2, #255
 1163 09d0 9A60     		str	r2, [r3, #8]
 1164 09d2 9968     		ldr	r1, [r3, #8]
 1165 09d4 80F8D910 		strb	r1, [r0, #217]
 1166 09d8 9A60     		str	r2, [r3, #8]
 1167 09da 9968     		ldr	r1, [r3, #8]
 1168 09dc 80F8DA10 		strb	r1, [r0, #218]
 1169 09e0 9A60     		str	r2, [r3, #8]
 1170 09e2 9968     		ldr	r1, [r3, #8]
 1171 09e4 80F8DB10 		strb	r1, [r0, #219]
 1172 09e8 9A60     		str	r2, [r3, #8]
 1173 09ea 1A46     		mov	r2, r3
 1174              	.L65:
 1175 09ec 9169     		ldr	r1, [r2, #24]
 1176 09ee 234B     		ldr	r3, .L147
 1177 09f0 4907     		lsls	r1, r1, #29
 1178 09f2 FBD5     		bpl	.L65
 1179 09f4 9A68     		ldr	r2, [r3, #8]
 1180 09f6 80F8DC20 		strb	r2, [r0, #220]
 1181 09fa FF22     		movs	r2, #255
 1182 09fc 9A60     		str	r2, [r3, #8]
 1183 09fe 9968     		ldr	r1, [r3, #8]
 1184 0a00 80F8DD10 		strb	r1, [r0, #221]
 1185 0a04 9A60     		str	r2, [r3, #8]
 1186 0a06 9968     		ldr	r1, [r3, #8]
 1187 0a08 80F8DE10 		strb	r1, [r0, #222]
 1188 0a0c 9A60     		str	r2, [r3, #8]
 1189 0a0e 9968     		ldr	r1, [r3, #8]
 1190 0a10 80F8DF10 		strb	r1, [r0, #223]
 1191 0a14 9A60     		str	r2, [r3, #8]
 1192 0a16 1A46     		mov	r2, r3
 1193              	.L66:
 1194 0a18 9169     		ldr	r1, [r2, #24]
 1195 0a1a 184B     		ldr	r3, .L147
 1196 0a1c 4907     		lsls	r1, r1, #29
 1197 0a1e FBD5     		bpl	.L66
 1198 0a20 9A68     		ldr	r2, [r3, #8]
 1199 0a22 80F8E020 		strb	r2, [r0, #224]
 1200 0a26 FF22     		movs	r2, #255
 1201 0a28 9A60     		str	r2, [r3, #8]
 1202 0a2a 9968     		ldr	r1, [r3, #8]
 1203 0a2c 80F8E110 		strb	r1, [r0, #225]
 1204 0a30 9A60     		str	r2, [r3, #8]
 1205 0a32 9968     		ldr	r1, [r3, #8]
 1206 0a34 80F8E210 		strb	r1, [r0, #226]
 1207 0a38 9A60     		str	r2, [r3, #8]
 1208 0a3a 9968     		ldr	r1, [r3, #8]
 1209 0a3c 80F8E310 		strb	r1, [r0, #227]
 1210 0a40 9A60     		str	r2, [r3, #8]
 1211 0a42 1A46     		mov	r2, r3
 1212              	.L67:
 1213 0a44 9169     		ldr	r1, [r2, #24]
 1214 0a46 0D4B     		ldr	r3, .L147
 1215 0a48 4907     		lsls	r1, r1, #29
 1216 0a4a FBD5     		bpl	.L67
 1217 0a4c 9A68     		ldr	r2, [r3, #8]
 1218 0a4e 80F8E420 		strb	r2, [r0, #228]
 1219 0a52 FF22     		movs	r2, #255
 1220 0a54 9A60     		str	r2, [r3, #8]
 1221 0a56 9968     		ldr	r1, [r3, #8]
 1222 0a58 80F8E510 		strb	r1, [r0, #229]
 1223 0a5c 9A60     		str	r2, [r3, #8]
 1224 0a5e 9968     		ldr	r1, [r3, #8]
 1225 0a60 80F8E610 		strb	r1, [r0, #230]
 1226 0a64 9A60     		str	r2, [r3, #8]
 1227 0a66 9968     		ldr	r1, [r3, #8]
 1228 0a68 80F8E710 		strb	r1, [r0, #231]
 1229 0a6c 9A60     		str	r2, [r3, #8]
 1230 0a6e 1A46     		mov	r2, r3
 1231              	.L68:
 1232 0a70 9169     		ldr	r1, [r2, #24]
 1233 0a72 024B     		ldr	r3, .L147
 1234 0a74 4907     		lsls	r1, r1, #29
 1235 0a76 FBD5     		bpl	.L68
 1236 0a78 02E0     		b	.L148
 1237              	.L149:
 1238 0a7a 00BF     		.align	2
 1239              	.L147:
 1240 0a7c 00000340 		.word	1073938432
 1241              	.L148:
 1242 0a80 9A68     		ldr	r2, [r3, #8]
 1243 0a82 80F8E820 		strb	r2, [r0, #232]
 1244 0a86 FF22     		movs	r2, #255
 1245 0a88 9A60     		str	r2, [r3, #8]
 1246 0a8a 9968     		ldr	r1, [r3, #8]
 1247 0a8c 80F8E910 		strb	r1, [r0, #233]
 1248 0a90 9A60     		str	r2, [r3, #8]
 1249 0a92 9968     		ldr	r1, [r3, #8]
 1250 0a94 80F8EA10 		strb	r1, [r0, #234]
 1251 0a98 9A60     		str	r2, [r3, #8]
 1252 0a9a 9968     		ldr	r1, [r3, #8]
 1253 0a9c 80F8EB10 		strb	r1, [r0, #235]
 1254 0aa0 9A60     		str	r2, [r3, #8]
 1255 0aa2 1A46     		mov	r2, r3
 1256              	.L69:
 1257 0aa4 9169     		ldr	r1, [r2, #24]
 1258 0aa6 304B     		ldr	r3, .L150
 1259 0aa8 4907     		lsls	r1, r1, #29
 1260 0aaa FBD5     		bpl	.L69
 1261 0aac 9A68     		ldr	r2, [r3, #8]
 1262 0aae 80F8EC20 		strb	r2, [r0, #236]
 1263 0ab2 FF22     		movs	r2, #255
 1264 0ab4 9A60     		str	r2, [r3, #8]
 1265 0ab6 9968     		ldr	r1, [r3, #8]
 1266 0ab8 80F8ED10 		strb	r1, [r0, #237]
 1267 0abc 9A60     		str	r2, [r3, #8]
 1268 0abe 9968     		ldr	r1, [r3, #8]
 1269 0ac0 80F8EE10 		strb	r1, [r0, #238]
 1270 0ac4 9A60     		str	r2, [r3, #8]
 1271 0ac6 9968     		ldr	r1, [r3, #8]
 1272 0ac8 80F8EF10 		strb	r1, [r0, #239]
 1273 0acc 9A60     		str	r2, [r3, #8]
 1274 0ace 1A46     		mov	r2, r3
 1275              	.L70:
 1276 0ad0 9169     		ldr	r1, [r2, #24]
 1277 0ad2 254B     		ldr	r3, .L150
 1278 0ad4 4907     		lsls	r1, r1, #29
 1279 0ad6 FBD5     		bpl	.L70
 1280 0ad8 9A68     		ldr	r2, [r3, #8]
 1281 0ada 80F8F020 		strb	r2, [r0, #240]
 1282 0ade FF22     		movs	r2, #255
 1283 0ae0 9A60     		str	r2, [r3, #8]
 1284 0ae2 9968     		ldr	r1, [r3, #8]
 1285 0ae4 80F8F110 		strb	r1, [r0, #241]
 1286 0ae8 9A60     		str	r2, [r3, #8]
 1287 0aea 9968     		ldr	r1, [r3, #8]
 1288 0aec 80F8F210 		strb	r1, [r0, #242]
 1289 0af0 9A60     		str	r2, [r3, #8]
 1290 0af2 9968     		ldr	r1, [r3, #8]
 1291 0af4 80F8F310 		strb	r1, [r0, #243]
 1292 0af8 9A60     		str	r2, [r3, #8]
 1293 0afa 1A46     		mov	r2, r3
 1294              	.L71:
 1295 0afc 9169     		ldr	r1, [r2, #24]
 1296 0afe 1A4B     		ldr	r3, .L150
 1297 0b00 4907     		lsls	r1, r1, #29
 1298 0b02 FBD5     		bpl	.L71
 1299 0b04 9A68     		ldr	r2, [r3, #8]
 1300 0b06 80F8F420 		strb	r2, [r0, #244]
 1301 0b0a FF22     		movs	r2, #255
 1302 0b0c 9A60     		str	r2, [r3, #8]
 1303 0b0e 9968     		ldr	r1, [r3, #8]
 1304 0b10 80F8F510 		strb	r1, [r0, #245]
 1305 0b14 9A60     		str	r2, [r3, #8]
 1306 0b16 9968     		ldr	r1, [r3, #8]
 1307 0b18 80F8F610 		strb	r1, [r0, #246]
 1308 0b1c 9A60     		str	r2, [r3, #8]
 1309 0b1e 9968     		ldr	r1, [r3, #8]
 1310 0b20 80F8F710 		strb	r1, [r0, #247]
 1311 0b24 9A60     		str	r2, [r3, #8]
 1312              	.L72:
 1313 0b26 9969     		ldr	r1, [r3, #24]
 1314 0b28 0F4A     		ldr	r2, .L150
 1315 0b2a 4907     		lsls	r1, r1, #29
 1316 0b2c FBD5     		bpl	.L72
 1317 0b2e 9368     		ldr	r3, [r2, #8]
 1318 0b30 80F8F830 		strb	r3, [r0, #248]
 1319 0b34 9368     		ldr	r3, [r2, #8]
 1320 0b36 80F8F930 		strb	r3, [r0, #249]
 1321 0b3a 9368     		ldr	r3, [r2, #8]
 1322 0b3c 80F8FA30 		strb	r3, [r0, #250]
 1323 0b40 9368     		ldr	r3, [r2, #8]
 1324 0b42 80F8FB30 		strb	r3, [r0, #251]
 1325              	.L73:
 1326 0b46 9169     		ldr	r1, [r2, #24]
 1327 0b48 074B     		ldr	r3, .L150
 1328 0b4a 4907     		lsls	r1, r1, #29
 1329 0b4c FBD5     		bpl	.L73
 1330 0b4e 9A68     		ldr	r2, [r3, #8]
 1331 0b50 80F8FC20 		strb	r2, [r0, #252]
 1332 0b54 9A68     		ldr	r2, [r3, #8]
 1333 0b56 80F8FD20 		strb	r2, [r0, #253]
 1334 0b5a 9A68     		ldr	r2, [r3, #8]
 1335 0b5c 80F8FE20 		strb	r2, [r0, #254]
 1336 0b60 9B68     		ldr	r3, [r3, #8]
 1337 0b62 80F8FF30 		strb	r3, [r0, #255]
 1338 0b66 7047     		bx	lr
 1339              	.L151:
 1340              		.align	2
 1341              	.L150:
 1342 0b68 00000340 		.word	1073938432
 1344              		.align	1
 1345              		.global	spi1_Send256Bytes
 1346              		.thumb
 1347              		.thumb_func
 1349              	spi1_Send256Bytes:
 1350              		@ args = 0, pretend = 0, frame = 0
 1351              		@ frame_needed = 0, uses_anonymous_args = 0
 1352              		@ link register save eliminated.
 1353 0b6c 944A     		ldr	r2, .L283
 1354              	.L153:
 1355 0b6e 9169     		ldr	r1, [r2, #24]
 1356 0b70 934B     		ldr	r3, .L283
 1357 0b72 0907     		lsls	r1, r1, #28
 1358 0b74 FBD5     		bpl	.L153
 1359 0b76 0278     		ldrb	r2, [r0, #0]	@ zero_extendqisi2
 1360 0b78 9A60     		str	r2, [r3, #8]
 1361 0b7a 4278     		ldrb	r2, [r0, #1]	@ zero_extendqisi2
 1362 0b7c 9A60     		str	r2, [r3, #8]
 1363 0b7e 8278     		ldrb	r2, [r0, #2]	@ zero_extendqisi2
 1364 0b80 9A60     		str	r2, [r3, #8]
 1365 0b82 C278     		ldrb	r2, [r0, #3]	@ zero_extendqisi2
 1366 0b84 9A60     		str	r2, [r3, #8]
 1367 0b86 1A46     		mov	r2, r3
 1368              	.L154:
 1369 0b88 9169     		ldr	r1, [r2, #24]
 1370 0b8a 8D4B     		ldr	r3, .L283
 1371 0b8c 0907     		lsls	r1, r1, #28
 1372 0b8e FBD5     		bpl	.L154
 1373 0b90 0279     		ldrb	r2, [r0, #4]	@ zero_extendqisi2
 1374 0b92 9A60     		str	r2, [r3, #8]
 1375 0b94 4279     		ldrb	r2, [r0, #5]	@ zero_extendqisi2
 1376 0b96 9A60     		str	r2, [r3, #8]
 1377 0b98 8279     		ldrb	r2, [r0, #6]	@ zero_extendqisi2
 1378 0b9a 9A60     		str	r2, [r3, #8]
 1379 0b9c C279     		ldrb	r2, [r0, #7]	@ zero_extendqisi2
 1380 0b9e 9A60     		str	r2, [r3, #8]
 1381 0ba0 1A46     		mov	r2, r3
 1382              	.L155:
 1383 0ba2 9169     		ldr	r1, [r2, #24]
 1384 0ba4 864B     		ldr	r3, .L283
 1385 0ba6 0907     		lsls	r1, r1, #28
 1386 0ba8 FBD5     		bpl	.L155
 1387 0baa 027A     		ldrb	r2, [r0, #8]	@ zero_extendqisi2
 1388 0bac 9A60     		str	r2, [r3, #8]
 1389 0bae 427A     		ldrb	r2, [r0, #9]	@ zero_extendqisi2
 1390 0bb0 9A60     		str	r2, [r3, #8]
 1391 0bb2 827A     		ldrb	r2, [r0, #10]	@ zero_extendqisi2
 1392 0bb4 9A60     		str	r2, [r3, #8]
 1393 0bb6 C27A     		ldrb	r2, [r0, #11]	@ zero_extendqisi2
 1394 0bb8 9A60     		str	r2, [r3, #8]
 1395 0bba 1A46     		mov	r2, r3
 1396              	.L156:
 1397 0bbc 9169     		ldr	r1, [r2, #24]
 1398 0bbe 804B     		ldr	r3, .L283
 1399 0bc0 0907     		lsls	r1, r1, #28
 1400 0bc2 FBD5     		bpl	.L156
 1401 0bc4 027B     		ldrb	r2, [r0, #12]	@ zero_extendqisi2
 1402 0bc6 9A60     		str	r2, [r3, #8]
 1403 0bc8 427B     		ldrb	r2, [r0, #13]	@ zero_extendqisi2
 1404 0bca 9A60     		str	r2, [r3, #8]
 1405 0bcc 827B     		ldrb	r2, [r0, #14]	@ zero_extendqisi2
 1406 0bce 9A60     		str	r2, [r3, #8]
 1407 0bd0 C27B     		ldrb	r2, [r0, #15]	@ zero_extendqisi2
 1408 0bd2 9A60     		str	r2, [r3, #8]
 1409 0bd4 1A46     		mov	r2, r3
 1410              	.L157:
 1411 0bd6 9169     		ldr	r1, [r2, #24]
 1412 0bd8 794B     		ldr	r3, .L283
 1413 0bda 0907     		lsls	r1, r1, #28
 1414 0bdc FBD5     		bpl	.L157
 1415 0bde 027C     		ldrb	r2, [r0, #16]	@ zero_extendqisi2
 1416 0be0 9A60     		str	r2, [r3, #8]
 1417 0be2 427C     		ldrb	r2, [r0, #17]	@ zero_extendqisi2
 1418 0be4 9A60     		str	r2, [r3, #8]
 1419 0be6 827C     		ldrb	r2, [r0, #18]	@ zero_extendqisi2
 1420 0be8 9A60     		str	r2, [r3, #8]
 1421 0bea C27C     		ldrb	r2, [r0, #19]	@ zero_extendqisi2
 1422 0bec 9A60     		str	r2, [r3, #8]
 1423 0bee 1A46     		mov	r2, r3
 1424              	.L158:
 1425 0bf0 9169     		ldr	r1, [r2, #24]
 1426 0bf2 734B     		ldr	r3, .L283
 1427 0bf4 0907     		lsls	r1, r1, #28
 1428 0bf6 FBD5     		bpl	.L158
 1429 0bf8 027D     		ldrb	r2, [r0, #20]	@ zero_extendqisi2
 1430 0bfa 9A60     		str	r2, [r3, #8]
 1431 0bfc 427D     		ldrb	r2, [r0, #21]	@ zero_extendqisi2
 1432 0bfe 9A60     		str	r2, [r3, #8]
 1433 0c00 827D     		ldrb	r2, [r0, #22]	@ zero_extendqisi2
 1434 0c02 9A60     		str	r2, [r3, #8]
 1435 0c04 C27D     		ldrb	r2, [r0, #23]	@ zero_extendqisi2
 1436 0c06 9A60     		str	r2, [r3, #8]
 1437 0c08 1A46     		mov	r2, r3
 1438              	.L159:
 1439 0c0a 9169     		ldr	r1, [r2, #24]
 1440 0c0c 6C4B     		ldr	r3, .L283
 1441 0c0e 0907     		lsls	r1, r1, #28
 1442 0c10 FBD5     		bpl	.L159
 1443 0c12 027E     		ldrb	r2, [r0, #24]	@ zero_extendqisi2
 1444 0c14 9A60     		str	r2, [r3, #8]
 1445 0c16 427E     		ldrb	r2, [r0, #25]	@ zero_extendqisi2
 1446 0c18 9A60     		str	r2, [r3, #8]
 1447 0c1a 827E     		ldrb	r2, [r0, #26]	@ zero_extendqisi2
 1448 0c1c 9A60     		str	r2, [r3, #8]
 1449 0c1e C27E     		ldrb	r2, [r0, #27]	@ zero_extendqisi2
 1450 0c20 9A60     		str	r2, [r3, #8]
 1451 0c22 1A46     		mov	r2, r3
 1452              	.L160:
 1453 0c24 9169     		ldr	r1, [r2, #24]
 1454 0c26 664B     		ldr	r3, .L283
 1455 0c28 0907     		lsls	r1, r1, #28
 1456 0c2a FBD5     		bpl	.L160
 1457 0c2c 027F     		ldrb	r2, [r0, #28]	@ zero_extendqisi2
 1458 0c2e 9A60     		str	r2, [r3, #8]
 1459 0c30 427F     		ldrb	r2, [r0, #29]	@ zero_extendqisi2
 1460 0c32 9A60     		str	r2, [r3, #8]
 1461 0c34 827F     		ldrb	r2, [r0, #30]	@ zero_extendqisi2
 1462 0c36 9A60     		str	r2, [r3, #8]
 1463 0c38 C27F     		ldrb	r2, [r0, #31]	@ zero_extendqisi2
 1464 0c3a 9A60     		str	r2, [r3, #8]
 1465 0c3c 1A46     		mov	r2, r3
 1466              	.L161:
 1467 0c3e 9169     		ldr	r1, [r2, #24]
 1468 0c40 5F4B     		ldr	r3, .L283
 1469 0c42 0907     		lsls	r1, r1, #28
 1470 0c44 FBD5     		bpl	.L161
 1471 0c46 90F82020 		ldrb	r2, [r0, #32]	@ zero_extendqisi2
 1472 0c4a 9A60     		str	r2, [r3, #8]
 1473 0c4c 90F82120 		ldrb	r2, [r0, #33]	@ zero_extendqisi2
 1474 0c50 9A60     		str	r2, [r3, #8]
 1475 0c52 90F82220 		ldrb	r2, [r0, #34]	@ zero_extendqisi2
 1476 0c56 9A60     		str	r2, [r3, #8]
 1477 0c58 90F82320 		ldrb	r2, [r0, #35]	@ zero_extendqisi2
 1478 0c5c 9A60     		str	r2, [r3, #8]
 1479 0c5e 1A46     		mov	r2, r3
 1480              	.L162:
 1481 0c60 9169     		ldr	r1, [r2, #24]
 1482 0c62 574B     		ldr	r3, .L283
 1483 0c64 0907     		lsls	r1, r1, #28
 1484 0c66 FBD5     		bpl	.L162
 1485 0c68 90F82420 		ldrb	r2, [r0, #36]	@ zero_extendqisi2
 1486 0c6c 9A60     		str	r2, [r3, #8]
 1487 0c6e 90F82520 		ldrb	r2, [r0, #37]	@ zero_extendqisi2
 1488 0c72 9A60     		str	r2, [r3, #8]
 1489 0c74 90F82620 		ldrb	r2, [r0, #38]	@ zero_extendqisi2
 1490 0c78 9A60     		str	r2, [r3, #8]
 1491 0c7a 90F82720 		ldrb	r2, [r0, #39]	@ zero_extendqisi2
 1492 0c7e 9A60     		str	r2, [r3, #8]
 1493 0c80 1A46     		mov	r2, r3
 1494              	.L163:
 1495 0c82 9169     		ldr	r1, [r2, #24]
 1496 0c84 4E4B     		ldr	r3, .L283
 1497 0c86 0907     		lsls	r1, r1, #28
 1498 0c88 FBD5     		bpl	.L163
 1499 0c8a 90F82820 		ldrb	r2, [r0, #40]	@ zero_extendqisi2
 1500 0c8e 9A60     		str	r2, [r3, #8]
 1501 0c90 90F82920 		ldrb	r2, [r0, #41]	@ zero_extendqisi2
 1502 0c94 9A60     		str	r2, [r3, #8]
 1503 0c96 90F82A20 		ldrb	r2, [r0, #42]	@ zero_extendqisi2
 1504 0c9a 9A60     		str	r2, [r3, #8]
 1505 0c9c 90F82B20 		ldrb	r2, [r0, #43]	@ zero_extendqisi2
 1506 0ca0 9A60     		str	r2, [r3, #8]
 1507 0ca2 1A46     		mov	r2, r3
 1508              	.L164:
 1509 0ca4 9169     		ldr	r1, [r2, #24]
 1510 0ca6 464B     		ldr	r3, .L283
 1511 0ca8 0907     		lsls	r1, r1, #28
 1512 0caa FBD5     		bpl	.L164
 1513 0cac 90F82C20 		ldrb	r2, [r0, #44]	@ zero_extendqisi2
 1514 0cb0 9A60     		str	r2, [r3, #8]
 1515 0cb2 90F82D20 		ldrb	r2, [r0, #45]	@ zero_extendqisi2
 1516 0cb6 9A60     		str	r2, [r3, #8]
 1517 0cb8 90F82E20 		ldrb	r2, [r0, #46]	@ zero_extendqisi2
 1518 0cbc 9A60     		str	r2, [r3, #8]
 1519 0cbe 90F82F20 		ldrb	r2, [r0, #47]	@ zero_extendqisi2
 1520 0cc2 9A60     		str	r2, [r3, #8]
 1521 0cc4 1A46     		mov	r2, r3
 1522              	.L165:
 1523 0cc6 9169     		ldr	r1, [r2, #24]
 1524 0cc8 3D4B     		ldr	r3, .L283
 1525 0cca 0907     		lsls	r1, r1, #28
 1526 0ccc FBD5     		bpl	.L165
 1527 0cce 90F83020 		ldrb	r2, [r0, #48]	@ zero_extendqisi2
 1528 0cd2 9A60     		str	r2, [r3, #8]
 1529 0cd4 90F83120 		ldrb	r2, [r0, #49]	@ zero_extendqisi2
 1530 0cd8 9A60     		str	r2, [r3, #8]
 1531 0cda 90F83220 		ldrb	r2, [r0, #50]	@ zero_extendqisi2
 1532 0cde 9A60     		str	r2, [r3, #8]
 1533 0ce0 90F83320 		ldrb	r2, [r0, #51]	@ zero_extendqisi2
 1534 0ce4 9A60     		str	r2, [r3, #8]
 1535 0ce6 1A46     		mov	r2, r3
 1536              	.L166:
 1537 0ce8 9169     		ldr	r1, [r2, #24]
 1538 0cea 354B     		ldr	r3, .L283
 1539 0cec 0907     		lsls	r1, r1, #28
 1540 0cee FBD5     		bpl	.L166
 1541 0cf0 90F83420 		ldrb	r2, [r0, #52]	@ zero_extendqisi2
 1542 0cf4 9A60     		str	r2, [r3, #8]
 1543 0cf6 90F83520 		ldrb	r2, [r0, #53]	@ zero_extendqisi2
 1544 0cfa 9A60     		str	r2, [r3, #8]
 1545 0cfc 90F83620 		ldrb	r2, [r0, #54]	@ zero_extendqisi2
 1546 0d00 9A60     		str	r2, [r3, #8]
 1547 0d02 90F83720 		ldrb	r2, [r0, #55]	@ zero_extendqisi2
 1548 0d06 9A60     		str	r2, [r3, #8]
 1549 0d08 1A46     		mov	r2, r3
 1550              	.L167:
 1551 0d0a 9169     		ldr	r1, [r2, #24]
 1552 0d0c 2C4B     		ldr	r3, .L283
 1553 0d0e 0907     		lsls	r1, r1, #28
 1554 0d10 FBD5     		bpl	.L167
 1555 0d12 90F83820 		ldrb	r2, [r0, #56]	@ zero_extendqisi2
 1556 0d16 9A60     		str	r2, [r3, #8]
 1557 0d18 90F83920 		ldrb	r2, [r0, #57]	@ zero_extendqisi2
 1558 0d1c 9A60     		str	r2, [r3, #8]
 1559 0d1e 90F83A20 		ldrb	r2, [r0, #58]	@ zero_extendqisi2
 1560 0d22 9A60     		str	r2, [r3, #8]
 1561 0d24 90F83B20 		ldrb	r2, [r0, #59]	@ zero_extendqisi2
 1562 0d28 9A60     		str	r2, [r3, #8]
 1563 0d2a 1A46     		mov	r2, r3
 1564              	.L168:
 1565 0d2c 9169     		ldr	r1, [r2, #24]
 1566 0d2e 244B     		ldr	r3, .L283
 1567 0d30 0907     		lsls	r1, r1, #28
 1568 0d32 FBD5     		bpl	.L168
 1569 0d34 90F83C20 		ldrb	r2, [r0, #60]	@ zero_extendqisi2
 1570 0d38 9A60     		str	r2, [r3, #8]
 1571 0d3a 90F83D20 		ldrb	r2, [r0, #61]	@ zero_extendqisi2
 1572 0d3e 9A60     		str	r2, [r3, #8]
 1573 0d40 90F83E20 		ldrb	r2, [r0, #62]	@ zero_extendqisi2
 1574 0d44 9A60     		str	r2, [r3, #8]
 1575 0d46 90F83F20 		ldrb	r2, [r0, #63]	@ zero_extendqisi2
 1576 0d4a 9A60     		str	r2, [r3, #8]
 1577 0d4c 1A46     		mov	r2, r3
 1578              	.L169:
 1579 0d4e 9169     		ldr	r1, [r2, #24]
 1580 0d50 1B4B     		ldr	r3, .L283
 1581 0d52 0907     		lsls	r1, r1, #28
 1582 0d54 FBD5     		bpl	.L169
 1583 0d56 90F84020 		ldrb	r2, [r0, #64]	@ zero_extendqisi2
 1584 0d5a 9A60     		str	r2, [r3, #8]
 1585 0d5c 90F84120 		ldrb	r2, [r0, #65]	@ zero_extendqisi2
 1586 0d60 9A60     		str	r2, [r3, #8]
 1587 0d62 90F84220 		ldrb	r2, [r0, #66]	@ zero_extendqisi2
 1588 0d66 9A60     		str	r2, [r3, #8]
 1589 0d68 90F84320 		ldrb	r2, [r0, #67]	@ zero_extendqisi2
 1590 0d6c 9A60     		str	r2, [r3, #8]
 1591 0d6e 1A46     		mov	r2, r3
 1592              	.L170:
 1593 0d70 9169     		ldr	r1, [r2, #24]
 1594 0d72 134B     		ldr	r3, .L283
 1595 0d74 0907     		lsls	r1, r1, #28
 1596 0d76 FBD5     		bpl	.L170
 1597 0d78 90F84420 		ldrb	r2, [r0, #68]	@ zero_extendqisi2
 1598 0d7c 9A60     		str	r2, [r3, #8]
 1599 0d7e 90F84520 		ldrb	r2, [r0, #69]	@ zero_extendqisi2
 1600 0d82 9A60     		str	r2, [r3, #8]
 1601 0d84 90F84620 		ldrb	r2, [r0, #70]	@ zero_extendqisi2
 1602 0d88 9A60     		str	r2, [r3, #8]
 1603 0d8a 90F84720 		ldrb	r2, [r0, #71]	@ zero_extendqisi2
 1604 0d8e 9A60     		str	r2, [r3, #8]
 1605 0d90 1A46     		mov	r2, r3
 1606              	.L171:
 1607 0d92 9169     		ldr	r1, [r2, #24]
 1608 0d94 0A4B     		ldr	r3, .L283
 1609 0d96 0907     		lsls	r1, r1, #28
 1610 0d98 FBD5     		bpl	.L171
 1611 0d9a 90F84820 		ldrb	r2, [r0, #72]	@ zero_extendqisi2
 1612 0d9e 9A60     		str	r2, [r3, #8]
 1613 0da0 90F84920 		ldrb	r2, [r0, #73]	@ zero_extendqisi2
 1614 0da4 9A60     		str	r2, [r3, #8]
 1615 0da6 90F84A20 		ldrb	r2, [r0, #74]	@ zero_extendqisi2
 1616 0daa 9A60     		str	r2, [r3, #8]
 1617 0dac 90F84B20 		ldrb	r2, [r0, #75]	@ zero_extendqisi2
 1618 0db0 9A60     		str	r2, [r3, #8]
 1619 0db2 1A46     		mov	r2, r3
 1620              	.L172:
 1621 0db4 9169     		ldr	r1, [r2, #24]
 1622 0db6 024B     		ldr	r3, .L283
 1623 0db8 0907     		lsls	r1, r1, #28
 1624 0dba FBD5     		bpl	.L172
 1625 0dbc 02E0     		b	.L284
 1626              	.L285:
 1627 0dbe 00BF     		.align	2
 1628              	.L283:
 1629 0dc0 00000340 		.word	1073938432
 1630              	.L284:
 1631 0dc4 90F84C20 		ldrb	r2, [r0, #76]	@ zero_extendqisi2
 1632 0dc8 9A60     		str	r2, [r3, #8]
 1633 0dca 90F84D20 		ldrb	r2, [r0, #77]	@ zero_extendqisi2
 1634 0dce 9A60     		str	r2, [r3, #8]
 1635 0dd0 90F84E20 		ldrb	r2, [r0, #78]	@ zero_extendqisi2
 1636 0dd4 9A60     		str	r2, [r3, #8]
 1637 0dd6 90F84F20 		ldrb	r2, [r0, #79]	@ zero_extendqisi2
 1638 0dda 9A60     		str	r2, [r3, #8]
 1639 0ddc 1A46     		mov	r2, r3
 1640              	.L173:
 1641 0dde 9169     		ldr	r1, [r2, #24]
 1642 0de0 A34B     		ldr	r3, .L286
 1643 0de2 0907     		lsls	r1, r1, #28
 1644 0de4 FBD5     		bpl	.L173
 1645 0de6 90F85020 		ldrb	r2, [r0, #80]	@ zero_extendqisi2
 1646 0dea 9A60     		str	r2, [r3, #8]
 1647 0dec 90F85120 		ldrb	r2, [r0, #81]	@ zero_extendqisi2
 1648 0df0 9A60     		str	r2, [r3, #8]
 1649 0df2 90F85220 		ldrb	r2, [r0, #82]	@ zero_extendqisi2
 1650 0df6 9A60     		str	r2, [r3, #8]
 1651 0df8 90F85320 		ldrb	r2, [r0, #83]	@ zero_extendqisi2
 1652 0dfc 9A60     		str	r2, [r3, #8]
 1653 0dfe 1A46     		mov	r2, r3
 1654              	.L174:
 1655 0e00 9169     		ldr	r1, [r2, #24]
 1656 0e02 9B4B     		ldr	r3, .L286
 1657 0e04 0907     		lsls	r1, r1, #28
 1658 0e06 FBD5     		bpl	.L174
 1659 0e08 90F85420 		ldrb	r2, [r0, #84]	@ zero_extendqisi2
 1660 0e0c 9A60     		str	r2, [r3, #8]
 1661 0e0e 90F85520 		ldrb	r2, [r0, #85]	@ zero_extendqisi2
 1662 0e12 9A60     		str	r2, [r3, #8]
 1663 0e14 90F85620 		ldrb	r2, [r0, #86]	@ zero_extendqisi2
 1664 0e18 9A60     		str	r2, [r3, #8]
 1665 0e1a 90F85720 		ldrb	r2, [r0, #87]	@ zero_extendqisi2
 1666 0e1e 9A60     		str	r2, [r3, #8]
 1667 0e20 1A46     		mov	r2, r3
 1668              	.L175:
 1669 0e22 9169     		ldr	r1, [r2, #24]
 1670 0e24 924B     		ldr	r3, .L286
 1671 0e26 0907     		lsls	r1, r1, #28
 1672 0e28 FBD5     		bpl	.L175
 1673 0e2a 90F85820 		ldrb	r2, [r0, #88]	@ zero_extendqisi2
 1674 0e2e 9A60     		str	r2, [r3, #8]
 1675 0e30 90F85920 		ldrb	r2, [r0, #89]	@ zero_extendqisi2
 1676 0e34 9A60     		str	r2, [r3, #8]
 1677 0e36 90F85A20 		ldrb	r2, [r0, #90]	@ zero_extendqisi2
 1678 0e3a 9A60     		str	r2, [r3, #8]
 1679 0e3c 90F85B20 		ldrb	r2, [r0, #91]	@ zero_extendqisi2
 1680 0e40 9A60     		str	r2, [r3, #8]
 1681 0e42 1A46     		mov	r2, r3
 1682              	.L176:
 1683 0e44 9169     		ldr	r1, [r2, #24]
 1684 0e46 8A4B     		ldr	r3, .L286
 1685 0e48 0907     		lsls	r1, r1, #28
 1686 0e4a FBD5     		bpl	.L176
 1687 0e4c 90F85C20 		ldrb	r2, [r0, #92]	@ zero_extendqisi2
 1688 0e50 9A60     		str	r2, [r3, #8]
 1689 0e52 90F85D20 		ldrb	r2, [r0, #93]	@ zero_extendqisi2
 1690 0e56 9A60     		str	r2, [r3, #8]
 1691 0e58 90F85E20 		ldrb	r2, [r0, #94]	@ zero_extendqisi2
 1692 0e5c 9A60     		str	r2, [r3, #8]
 1693 0e5e 90F85F20 		ldrb	r2, [r0, #95]	@ zero_extendqisi2
 1694 0e62 9A60     		str	r2, [r3, #8]
 1695 0e64 1A46     		mov	r2, r3
 1696              	.L177:
 1697 0e66 9169     		ldr	r1, [r2, #24]
 1698 0e68 814B     		ldr	r3, .L286
 1699 0e6a 0907     		lsls	r1, r1, #28
 1700 0e6c FBD5     		bpl	.L177
 1701 0e6e 90F86020 		ldrb	r2, [r0, #96]	@ zero_extendqisi2
 1702 0e72 9A60     		str	r2, [r3, #8]
 1703 0e74 90F86120 		ldrb	r2, [r0, #97]	@ zero_extendqisi2
 1704 0e78 9A60     		str	r2, [r3, #8]
 1705 0e7a 90F86220 		ldrb	r2, [r0, #98]	@ zero_extendqisi2
 1706 0e7e 9A60     		str	r2, [r3, #8]
 1707 0e80 90F86320 		ldrb	r2, [r0, #99]	@ zero_extendqisi2
 1708 0e84 9A60     		str	r2, [r3, #8]
 1709 0e86 1A46     		mov	r2, r3
 1710              	.L178:
 1711 0e88 9169     		ldr	r1, [r2, #24]
 1712 0e8a 794B     		ldr	r3, .L286
 1713 0e8c 0907     		lsls	r1, r1, #28
 1714 0e8e FBD5     		bpl	.L178
 1715 0e90 90F86420 		ldrb	r2, [r0, #100]	@ zero_extendqisi2
 1716 0e94 9A60     		str	r2, [r3, #8]
 1717 0e96 90F86520 		ldrb	r2, [r0, #101]	@ zero_extendqisi2
 1718 0e9a 9A60     		str	r2, [r3, #8]
 1719 0e9c 90F86620 		ldrb	r2, [r0, #102]	@ zero_extendqisi2
 1720 0ea0 9A60     		str	r2, [r3, #8]
 1721 0ea2 90F86720 		ldrb	r2, [r0, #103]	@ zero_extendqisi2
 1722 0ea6 9A60     		str	r2, [r3, #8]
 1723 0ea8 1A46     		mov	r2, r3
 1724              	.L179:
 1725 0eaa 9169     		ldr	r1, [r2, #24]
 1726 0eac 704B     		ldr	r3, .L286
 1727 0eae 0907     		lsls	r1, r1, #28
 1728 0eb0 FBD5     		bpl	.L179
 1729 0eb2 90F86820 		ldrb	r2, [r0, #104]	@ zero_extendqisi2
 1730 0eb6 9A60     		str	r2, [r3, #8]
 1731 0eb8 90F86920 		ldrb	r2, [r0, #105]	@ zero_extendqisi2
 1732 0ebc 9A60     		str	r2, [r3, #8]
 1733 0ebe 90F86A20 		ldrb	r2, [r0, #106]	@ zero_extendqisi2
 1734 0ec2 9A60     		str	r2, [r3, #8]
 1735 0ec4 90F86B20 		ldrb	r2, [r0, #107]	@ zero_extendqisi2
 1736 0ec8 9A60     		str	r2, [r3, #8]
 1737 0eca 1A46     		mov	r2, r3
 1738              	.L180:
 1739 0ecc 9169     		ldr	r1, [r2, #24]
 1740 0ece 684B     		ldr	r3, .L286
 1741 0ed0 0907     		lsls	r1, r1, #28
 1742 0ed2 FBD5     		bpl	.L180
 1743 0ed4 90F86C20 		ldrb	r2, [r0, #108]	@ zero_extendqisi2
 1744 0ed8 9A60     		str	r2, [r3, #8]
 1745 0eda 90F86D20 		ldrb	r2, [r0, #109]	@ zero_extendqisi2
 1746 0ede 9A60     		str	r2, [r3, #8]
 1747 0ee0 90F86E20 		ldrb	r2, [r0, #110]	@ zero_extendqisi2
 1748 0ee4 9A60     		str	r2, [r3, #8]
 1749 0ee6 90F86F20 		ldrb	r2, [r0, #111]	@ zero_extendqisi2
 1750 0eea 9A60     		str	r2, [r3, #8]
 1751 0eec 1A46     		mov	r2, r3
 1752              	.L181:
 1753 0eee 9169     		ldr	r1, [r2, #24]
 1754 0ef0 5F4B     		ldr	r3, .L286
 1755 0ef2 0907     		lsls	r1, r1, #28
 1756 0ef4 FBD5     		bpl	.L181
 1757 0ef6 90F87020 		ldrb	r2, [r0, #112]	@ zero_extendqisi2
 1758 0efa 9A60     		str	r2, [r3, #8]
 1759 0efc 90F87120 		ldrb	r2, [r0, #113]	@ zero_extendqisi2
 1760 0f00 9A60     		str	r2, [r3, #8]
 1761 0f02 90F87220 		ldrb	r2, [r0, #114]	@ zero_extendqisi2
 1762 0f06 9A60     		str	r2, [r3, #8]
 1763 0f08 90F87320 		ldrb	r2, [r0, #115]	@ zero_extendqisi2
 1764 0f0c 9A60     		str	r2, [r3, #8]
 1765 0f0e 1A46     		mov	r2, r3
 1766              	.L182:
 1767 0f10 9169     		ldr	r1, [r2, #24]
 1768 0f12 574B     		ldr	r3, .L286
 1769 0f14 0907     		lsls	r1, r1, #28
 1770 0f16 FBD5     		bpl	.L182
 1771 0f18 90F87420 		ldrb	r2, [r0, #116]	@ zero_extendqisi2
 1772 0f1c 9A60     		str	r2, [r3, #8]
 1773 0f1e 90F87520 		ldrb	r2, [r0, #117]	@ zero_extendqisi2
 1774 0f22 9A60     		str	r2, [r3, #8]
 1775 0f24 90F87620 		ldrb	r2, [r0, #118]	@ zero_extendqisi2
 1776 0f28 9A60     		str	r2, [r3, #8]
 1777 0f2a 90F87720 		ldrb	r2, [r0, #119]	@ zero_extendqisi2
 1778 0f2e 9A60     		str	r2, [r3, #8]
 1779 0f30 1A46     		mov	r2, r3
 1780              	.L183:
 1781 0f32 9169     		ldr	r1, [r2, #24]
 1782 0f34 4E4B     		ldr	r3, .L286
 1783 0f36 0907     		lsls	r1, r1, #28
 1784 0f38 FBD5     		bpl	.L183
 1785 0f3a 90F87820 		ldrb	r2, [r0, #120]	@ zero_extendqisi2
 1786 0f3e 9A60     		str	r2, [r3, #8]
 1787 0f40 90F87920 		ldrb	r2, [r0, #121]	@ zero_extendqisi2
 1788 0f44 9A60     		str	r2, [r3, #8]
 1789 0f46 90F87A20 		ldrb	r2, [r0, #122]	@ zero_extendqisi2
 1790 0f4a 9A60     		str	r2, [r3, #8]
 1791 0f4c 90F87B20 		ldrb	r2, [r0, #123]	@ zero_extendqisi2
 1792 0f50 9A60     		str	r2, [r3, #8]
 1793 0f52 1A46     		mov	r2, r3
 1794              	.L184:
 1795 0f54 9169     		ldr	r1, [r2, #24]
 1796 0f56 464B     		ldr	r3, .L286
 1797 0f58 0907     		lsls	r1, r1, #28
 1798 0f5a FBD5     		bpl	.L184
 1799 0f5c 90F87C20 		ldrb	r2, [r0, #124]	@ zero_extendqisi2
 1800 0f60 9A60     		str	r2, [r3, #8]
 1801 0f62 90F87D20 		ldrb	r2, [r0, #125]	@ zero_extendqisi2
 1802 0f66 9A60     		str	r2, [r3, #8]
 1803 0f68 90F87E20 		ldrb	r2, [r0, #126]	@ zero_extendqisi2
 1804 0f6c 9A60     		str	r2, [r3, #8]
 1805 0f6e 90F87F20 		ldrb	r2, [r0, #127]	@ zero_extendqisi2
 1806 0f72 9A60     		str	r2, [r3, #8]
 1807 0f74 1A46     		mov	r2, r3
 1808              	.L185:
 1809 0f76 9169     		ldr	r1, [r2, #24]
 1810 0f78 3D4B     		ldr	r3, .L286
 1811 0f7a 0907     		lsls	r1, r1, #28
 1812 0f7c FBD5     		bpl	.L185
 1813 0f7e 90F88020 		ldrb	r2, [r0, #128]	@ zero_extendqisi2
 1814 0f82 9A60     		str	r2, [r3, #8]
 1815 0f84 90F88120 		ldrb	r2, [r0, #129]	@ zero_extendqisi2
 1816 0f88 9A60     		str	r2, [r3, #8]
 1817 0f8a 90F88220 		ldrb	r2, [r0, #130]	@ zero_extendqisi2
 1818 0f8e 9A60     		str	r2, [r3, #8]
 1819 0f90 90F88320 		ldrb	r2, [r0, #131]	@ zero_extendqisi2
 1820 0f94 9A60     		str	r2, [r3, #8]
 1821 0f96 1A46     		mov	r2, r3
 1822              	.L186:
 1823 0f98 9169     		ldr	r1, [r2, #24]
 1824 0f9a 354B     		ldr	r3, .L286
 1825 0f9c 0907     		lsls	r1, r1, #28
 1826 0f9e FBD5     		bpl	.L186
 1827 0fa0 90F88420 		ldrb	r2, [r0, #132]	@ zero_extendqisi2
 1828 0fa4 9A60     		str	r2, [r3, #8]
 1829 0fa6 90F88520 		ldrb	r2, [r0, #133]	@ zero_extendqisi2
 1830 0faa 9A60     		str	r2, [r3, #8]
 1831 0fac 90F88620 		ldrb	r2, [r0, #134]	@ zero_extendqisi2
 1832 0fb0 9A60     		str	r2, [r3, #8]
 1833 0fb2 90F88720 		ldrb	r2, [r0, #135]	@ zero_extendqisi2
 1834 0fb6 9A60     		str	r2, [r3, #8]
 1835 0fb8 1A46     		mov	r2, r3
 1836              	.L187:
 1837 0fba 9169     		ldr	r1, [r2, #24]
 1838 0fbc 2C4B     		ldr	r3, .L286
 1839 0fbe 0907     		lsls	r1, r1, #28
 1840 0fc0 FBD5     		bpl	.L187
 1841 0fc2 90F88820 		ldrb	r2, [r0, #136]	@ zero_extendqisi2
 1842 0fc6 9A60     		str	r2, [r3, #8]
 1843 0fc8 90F88920 		ldrb	r2, [r0, #137]	@ zero_extendqisi2
 1844 0fcc 9A60     		str	r2, [r3, #8]
 1845 0fce 90F88A20 		ldrb	r2, [r0, #138]	@ zero_extendqisi2
 1846 0fd2 9A60     		str	r2, [r3, #8]
 1847 0fd4 90F88B20 		ldrb	r2, [r0, #139]	@ zero_extendqisi2
 1848 0fd8 9A60     		str	r2, [r3, #8]
 1849 0fda 1A46     		mov	r2, r3
 1850              	.L188:
 1851 0fdc 9169     		ldr	r1, [r2, #24]
 1852 0fde 244B     		ldr	r3, .L286
 1853 0fe0 0907     		lsls	r1, r1, #28
 1854 0fe2 FBD5     		bpl	.L188
 1855 0fe4 90F88C20 		ldrb	r2, [r0, #140]	@ zero_extendqisi2
 1856 0fe8 9A60     		str	r2, [r3, #8]
 1857 0fea 90F88D20 		ldrb	r2, [r0, #141]	@ zero_extendqisi2
 1858 0fee 9A60     		str	r2, [r3, #8]
 1859 0ff0 90F88E20 		ldrb	r2, [r0, #142]	@ zero_extendqisi2
 1860 0ff4 9A60     		str	r2, [r3, #8]
 1861 0ff6 90F88F20 		ldrb	r2, [r0, #143]	@ zero_extendqisi2
 1862 0ffa 9A60     		str	r2, [r3, #8]
 1863 0ffc 1A46     		mov	r2, r3
 1864              	.L189:
 1865 0ffe 9169     		ldr	r1, [r2, #24]
 1866 1000 1B4B     		ldr	r3, .L286
 1867 1002 0907     		lsls	r1, r1, #28
 1868 1004 FBD5     		bpl	.L189
 1869 1006 90F89020 		ldrb	r2, [r0, #144]	@ zero_extendqisi2
 1870 100a 9A60     		str	r2, [r3, #8]
 1871 100c 90F89120 		ldrb	r2, [r0, #145]	@ zero_extendqisi2
 1872 1010 9A60     		str	r2, [r3, #8]
 1873 1012 90F89220 		ldrb	r2, [r0, #146]	@ zero_extendqisi2
 1874 1016 9A60     		str	r2, [r3, #8]
 1875 1018 90F89320 		ldrb	r2, [r0, #147]	@ zero_extendqisi2
 1876 101c 9A60     		str	r2, [r3, #8]
 1877 101e 1A46     		mov	r2, r3
 1878              	.L190:
 1879 1020 9169     		ldr	r1, [r2, #24]
 1880 1022 134B     		ldr	r3, .L286
 1881 1024 0907     		lsls	r1, r1, #28
 1882 1026 FBD5     		bpl	.L190
 1883 1028 90F89420 		ldrb	r2, [r0, #148]	@ zero_extendqisi2
 1884 102c 9A60     		str	r2, [r3, #8]
 1885 102e 90F89520 		ldrb	r2, [r0, #149]	@ zero_extendqisi2
 1886 1032 9A60     		str	r2, [r3, #8]
 1887 1034 90F89620 		ldrb	r2, [r0, #150]	@ zero_extendqisi2
 1888 1038 9A60     		str	r2, [r3, #8]
 1889 103a 90F89720 		ldrb	r2, [r0, #151]	@ zero_extendqisi2
 1890 103e 9A60     		str	r2, [r3, #8]
 1891 1040 1A46     		mov	r2, r3
 1892              	.L191:
 1893 1042 9169     		ldr	r1, [r2, #24]
 1894 1044 0A4B     		ldr	r3, .L286
 1895 1046 0907     		lsls	r1, r1, #28
 1896 1048 FBD5     		bpl	.L191
 1897 104a 90F89820 		ldrb	r2, [r0, #152]	@ zero_extendqisi2
 1898 104e 9A60     		str	r2, [r3, #8]
 1899 1050 90F89920 		ldrb	r2, [r0, #153]	@ zero_extendqisi2
 1900 1054 9A60     		str	r2, [r3, #8]
 1901 1056 90F89A20 		ldrb	r2, [r0, #154]	@ zero_extendqisi2
 1902 105a 9A60     		str	r2, [r3, #8]
 1903 105c 90F89B20 		ldrb	r2, [r0, #155]	@ zero_extendqisi2
 1904 1060 9A60     		str	r2, [r3, #8]
 1905 1062 1A46     		mov	r2, r3
 1906              	.L192:
 1907 1064 9169     		ldr	r1, [r2, #24]
 1908 1066 024B     		ldr	r3, .L286
 1909 1068 0907     		lsls	r1, r1, #28
 1910 106a FBD5     		bpl	.L192
 1911 106c 02E0     		b	.L287
 1912              	.L288:
 1913 106e 00BF     		.align	2
 1914              	.L286:
 1915 1070 00000340 		.word	1073938432
 1916              	.L287:
 1917 1074 90F89C20 		ldrb	r2, [r0, #156]	@ zero_extendqisi2
 1918 1078 9A60     		str	r2, [r3, #8]
 1919 107a 90F89D20 		ldrb	r2, [r0, #157]	@ zero_extendqisi2
 1920 107e 9A60     		str	r2, [r3, #8]
 1921 1080 90F89E20 		ldrb	r2, [r0, #158]	@ zero_extendqisi2
 1922 1084 9A60     		str	r2, [r3, #8]
 1923 1086 90F89F20 		ldrb	r2, [r0, #159]	@ zero_extendqisi2
 1924 108a 9A60     		str	r2, [r3, #8]
 1925 108c 1A46     		mov	r2, r3
 1926              	.L193:
 1927 108e 9169     		ldr	r1, [r2, #24]
 1928 1090 A34B     		ldr	r3, .L289
 1929 1092 0907     		lsls	r1, r1, #28
 1930 1094 FBD5     		bpl	.L193
 1931 1096 90F8A020 		ldrb	r2, [r0, #160]	@ zero_extendqisi2
 1932 109a 9A60     		str	r2, [r3, #8]
 1933 109c 90F8A120 		ldrb	r2, [r0, #161]	@ zero_extendqisi2
 1934 10a0 9A60     		str	r2, [r3, #8]
 1935 10a2 90F8A220 		ldrb	r2, [r0, #162]	@ zero_extendqisi2
 1936 10a6 9A60     		str	r2, [r3, #8]
 1937 10a8 90F8A320 		ldrb	r2, [r0, #163]	@ zero_extendqisi2
 1938 10ac 9A60     		str	r2, [r3, #8]
 1939 10ae 1A46     		mov	r2, r3
 1940              	.L194:
 1941 10b0 9169     		ldr	r1, [r2, #24]
 1942 10b2 9B4B     		ldr	r3, .L289
 1943 10b4 0907     		lsls	r1, r1, #28
 1944 10b6 FBD5     		bpl	.L194
 1945 10b8 90F8A420 		ldrb	r2, [r0, #164]	@ zero_extendqisi2
 1946 10bc 9A60     		str	r2, [r3, #8]
 1947 10be 90F8A520 		ldrb	r2, [r0, #165]	@ zero_extendqisi2
 1948 10c2 9A60     		str	r2, [r3, #8]
 1949 10c4 90F8A620 		ldrb	r2, [r0, #166]	@ zero_extendqisi2
 1950 10c8 9A60     		str	r2, [r3, #8]
 1951 10ca 90F8A720 		ldrb	r2, [r0, #167]	@ zero_extendqisi2
 1952 10ce 9A60     		str	r2, [r3, #8]
 1953 10d0 1A46     		mov	r2, r3
 1954              	.L195:
 1955 10d2 9169     		ldr	r1, [r2, #24]
 1956 10d4 924B     		ldr	r3, .L289
 1957 10d6 0907     		lsls	r1, r1, #28
 1958 10d8 FBD5     		bpl	.L195
 1959 10da 90F8A820 		ldrb	r2, [r0, #168]	@ zero_extendqisi2
 1960 10de 9A60     		str	r2, [r3, #8]
 1961 10e0 90F8A920 		ldrb	r2, [r0, #169]	@ zero_extendqisi2
 1962 10e4 9A60     		str	r2, [r3, #8]
 1963 10e6 90F8AA20 		ldrb	r2, [r0, #170]	@ zero_extendqisi2
 1964 10ea 9A60     		str	r2, [r3, #8]
 1965 10ec 90F8AB20 		ldrb	r2, [r0, #171]	@ zero_extendqisi2
 1966 10f0 9A60     		str	r2, [r3, #8]
 1967 10f2 1A46     		mov	r2, r3
 1968              	.L196:
 1969 10f4 9169     		ldr	r1, [r2, #24]
 1970 10f6 8A4B     		ldr	r3, .L289
 1971 10f8 0907     		lsls	r1, r1, #28
 1972 10fa FBD5     		bpl	.L196
 1973 10fc 90F8AC20 		ldrb	r2, [r0, #172]	@ zero_extendqisi2
 1974 1100 9A60     		str	r2, [r3, #8]
 1975 1102 90F8AD20 		ldrb	r2, [r0, #173]	@ zero_extendqisi2
 1976 1106 9A60     		str	r2, [r3, #8]
 1977 1108 90F8AE20 		ldrb	r2, [r0, #174]	@ zero_extendqisi2
 1978 110c 9A60     		str	r2, [r3, #8]
 1979 110e 90F8AF20 		ldrb	r2, [r0, #175]	@ zero_extendqisi2
 1980 1112 9A60     		str	r2, [r3, #8]
 1981 1114 1A46     		mov	r2, r3
 1982              	.L197:
 1983 1116 9169     		ldr	r1, [r2, #24]
 1984 1118 814B     		ldr	r3, .L289
 1985 111a 0907     		lsls	r1, r1, #28
 1986 111c FBD5     		bpl	.L197
 1987 111e 90F8B020 		ldrb	r2, [r0, #176]	@ zero_extendqisi2
 1988 1122 9A60     		str	r2, [r3, #8]
 1989 1124 90F8B120 		ldrb	r2, [r0, #177]	@ zero_extendqisi2
 1990 1128 9A60     		str	r2, [r3, #8]
 1991 112a 90F8B220 		ldrb	r2, [r0, #178]	@ zero_extendqisi2
 1992 112e 9A60     		str	r2, [r3, #8]
 1993 1130 90F8B320 		ldrb	r2, [r0, #179]	@ zero_extendqisi2
 1994 1134 9A60     		str	r2, [r3, #8]
 1995 1136 1A46     		mov	r2, r3
 1996              	.L198:
 1997 1138 9169     		ldr	r1, [r2, #24]
 1998 113a 794B     		ldr	r3, .L289
 1999 113c 0907     		lsls	r1, r1, #28
 2000 113e FBD5     		bpl	.L198
 2001 1140 90F8B420 		ldrb	r2, [r0, #180]	@ zero_extendqisi2
 2002 1144 9A60     		str	r2, [r3, #8]
 2003 1146 90F8B520 		ldrb	r2, [r0, #181]	@ zero_extendqisi2
 2004 114a 9A60     		str	r2, [r3, #8]
 2005 114c 90F8B620 		ldrb	r2, [r0, #182]	@ zero_extendqisi2
 2006 1150 9A60     		str	r2, [r3, #8]
 2007 1152 90F8B720 		ldrb	r2, [r0, #183]	@ zero_extendqisi2
 2008 1156 9A60     		str	r2, [r3, #8]
 2009 1158 1A46     		mov	r2, r3
 2010              	.L199:
 2011 115a 9169     		ldr	r1, [r2, #24]
 2012 115c 704B     		ldr	r3, .L289
 2013 115e 0907     		lsls	r1, r1, #28
 2014 1160 FBD5     		bpl	.L199
 2015 1162 90F8B820 		ldrb	r2, [r0, #184]	@ zero_extendqisi2
 2016 1166 9A60     		str	r2, [r3, #8]
 2017 1168 90F8B920 		ldrb	r2, [r0, #185]	@ zero_extendqisi2
 2018 116c 9A60     		str	r2, [r3, #8]
 2019 116e 90F8BA20 		ldrb	r2, [r0, #186]	@ zero_extendqisi2
 2020 1172 9A60     		str	r2, [r3, #8]
 2021 1174 90F8BB20 		ldrb	r2, [r0, #187]	@ zero_extendqisi2
 2022 1178 9A60     		str	r2, [r3, #8]
 2023 117a 1A46     		mov	r2, r3
 2024              	.L200:
 2025 117c 9169     		ldr	r1, [r2, #24]
 2026 117e 684B     		ldr	r3, .L289
 2027 1180 0907     		lsls	r1, r1, #28
 2028 1182 FBD5     		bpl	.L200
 2029 1184 90F8BC20 		ldrb	r2, [r0, #188]	@ zero_extendqisi2
 2030 1188 9A60     		str	r2, [r3, #8]
 2031 118a 90F8BD20 		ldrb	r2, [r0, #189]	@ zero_extendqisi2
 2032 118e 9A60     		str	r2, [r3, #8]
 2033 1190 90F8BE20 		ldrb	r2, [r0, #190]	@ zero_extendqisi2
 2034 1194 9A60     		str	r2, [r3, #8]
 2035 1196 90F8BF20 		ldrb	r2, [r0, #191]	@ zero_extendqisi2
 2036 119a 9A60     		str	r2, [r3, #8]
 2037 119c 1A46     		mov	r2, r3
 2038              	.L201:
 2039 119e 9169     		ldr	r1, [r2, #24]
 2040 11a0 5F4B     		ldr	r3, .L289
 2041 11a2 0907     		lsls	r1, r1, #28
 2042 11a4 FBD5     		bpl	.L201
 2043 11a6 90F8C020 		ldrb	r2, [r0, #192]	@ zero_extendqisi2
 2044 11aa 9A60     		str	r2, [r3, #8]
 2045 11ac 90F8C120 		ldrb	r2, [r0, #193]	@ zero_extendqisi2
 2046 11b0 9A60     		str	r2, [r3, #8]
 2047 11b2 90F8C220 		ldrb	r2, [r0, #194]	@ zero_extendqisi2
 2048 11b6 9A60     		str	r2, [r3, #8]
 2049 11b8 90F8C320 		ldrb	r2, [r0, #195]	@ zero_extendqisi2
 2050 11bc 9A60     		str	r2, [r3, #8]
 2051 11be 1A46     		mov	r2, r3
 2052              	.L202:
 2053 11c0 9169     		ldr	r1, [r2, #24]
 2054 11c2 574B     		ldr	r3, .L289
 2055 11c4 0907     		lsls	r1, r1, #28
 2056 11c6 FBD5     		bpl	.L202
 2057 11c8 90F8C420 		ldrb	r2, [r0, #196]	@ zero_extendqisi2
 2058 11cc 9A60     		str	r2, [r3, #8]
 2059 11ce 90F8C520 		ldrb	r2, [r0, #197]	@ zero_extendqisi2
 2060 11d2 9A60     		str	r2, [r3, #8]
 2061 11d4 90F8C620 		ldrb	r2, [r0, #198]	@ zero_extendqisi2
 2062 11d8 9A60     		str	r2, [r3, #8]
 2063 11da 90F8C720 		ldrb	r2, [r0, #199]	@ zero_extendqisi2
 2064 11de 9A60     		str	r2, [r3, #8]
 2065 11e0 1A46     		mov	r2, r3
 2066              	.L203:
 2067 11e2 9169     		ldr	r1, [r2, #24]
 2068 11e4 4E4B     		ldr	r3, .L289
 2069 11e6 0907     		lsls	r1, r1, #28
 2070 11e8 FBD5     		bpl	.L203
 2071 11ea 90F8C820 		ldrb	r2, [r0, #200]	@ zero_extendqisi2
 2072 11ee 9A60     		str	r2, [r3, #8]
 2073 11f0 90F8C920 		ldrb	r2, [r0, #201]	@ zero_extendqisi2
 2074 11f4 9A60     		str	r2, [r3, #8]
 2075 11f6 90F8CA20 		ldrb	r2, [r0, #202]	@ zero_extendqisi2
 2076 11fa 9A60     		str	r2, [r3, #8]
 2077 11fc 90F8CB20 		ldrb	r2, [r0, #203]	@ zero_extendqisi2
 2078 1200 9A60     		str	r2, [r3, #8]
 2079 1202 1A46     		mov	r2, r3
 2080              	.L204:
 2081 1204 9169     		ldr	r1, [r2, #24]
 2082 1206 464B     		ldr	r3, .L289
 2083 1208 0907     		lsls	r1, r1, #28
 2084 120a FBD5     		bpl	.L204
 2085 120c 90F8CC20 		ldrb	r2, [r0, #204]	@ zero_extendqisi2
 2086 1210 9A60     		str	r2, [r3, #8]
 2087 1212 90F8CD20 		ldrb	r2, [r0, #205]	@ zero_extendqisi2
 2088 1216 9A60     		str	r2, [r3, #8]
 2089 1218 90F8CE20 		ldrb	r2, [r0, #206]	@ zero_extendqisi2
 2090 121c 9A60     		str	r2, [r3, #8]
 2091 121e 90F8CF20 		ldrb	r2, [r0, #207]	@ zero_extendqisi2
 2092 1222 9A60     		str	r2, [r3, #8]
 2093 1224 1A46     		mov	r2, r3
 2094              	.L205:
 2095 1226 9169     		ldr	r1, [r2, #24]
 2096 1228 3D4B     		ldr	r3, .L289
 2097 122a 0907     		lsls	r1, r1, #28
 2098 122c FBD5     		bpl	.L205
 2099 122e 90F8D020 		ldrb	r2, [r0, #208]	@ zero_extendqisi2
 2100 1232 9A60     		str	r2, [r3, #8]
 2101 1234 90F8D120 		ldrb	r2, [r0, #209]	@ zero_extendqisi2
 2102 1238 9A60     		str	r2, [r3, #8]
 2103 123a 90F8D220 		ldrb	r2, [r0, #210]	@ zero_extendqisi2
 2104 123e 9A60     		str	r2, [r3, #8]
 2105 1240 90F8D320 		ldrb	r2, [r0, #211]	@ zero_extendqisi2
 2106 1244 9A60     		str	r2, [r3, #8]
 2107 1246 1A46     		mov	r2, r3
 2108              	.L206:
 2109 1248 9169     		ldr	r1, [r2, #24]
 2110 124a 354B     		ldr	r3, .L289
 2111 124c 0907     		lsls	r1, r1, #28
 2112 124e FBD5     		bpl	.L206
 2113 1250 90F8D420 		ldrb	r2, [r0, #212]	@ zero_extendqisi2
 2114 1254 9A60     		str	r2, [r3, #8]
 2115 1256 90F8D520 		ldrb	r2, [r0, #213]	@ zero_extendqisi2
 2116 125a 9A60     		str	r2, [r3, #8]
 2117 125c 90F8D620 		ldrb	r2, [r0, #214]	@ zero_extendqisi2
 2118 1260 9A60     		str	r2, [r3, #8]
 2119 1262 90F8D720 		ldrb	r2, [r0, #215]	@ zero_extendqisi2
 2120 1266 9A60     		str	r2, [r3, #8]
 2121 1268 1A46     		mov	r2, r3
 2122              	.L207:
 2123 126a 9169     		ldr	r1, [r2, #24]
 2124 126c 2C4B     		ldr	r3, .L289
 2125 126e 0907     		lsls	r1, r1, #28
 2126 1270 FBD5     		bpl	.L207
 2127 1272 90F8D820 		ldrb	r2, [r0, #216]	@ zero_extendqisi2
 2128 1276 9A60     		str	r2, [r3, #8]
 2129 1278 90F8D920 		ldrb	r2, [r0, #217]	@ zero_extendqisi2
 2130 127c 9A60     		str	r2, [r3, #8]
 2131 127e 90F8DA20 		ldrb	r2, [r0, #218]	@ zero_extendqisi2
 2132 1282 9A60     		str	r2, [r3, #8]
 2133 1284 90F8DB20 		ldrb	r2, [r0, #219]	@ zero_extendqisi2
 2134 1288 9A60     		str	r2, [r3, #8]
 2135 128a 1A46     		mov	r2, r3
 2136              	.L208:
 2137 128c 9169     		ldr	r1, [r2, #24]
 2138 128e 244B     		ldr	r3, .L289
 2139 1290 0907     		lsls	r1, r1, #28
 2140 1292 FBD5     		bpl	.L208
 2141 1294 90F8DC20 		ldrb	r2, [r0, #220]	@ zero_extendqisi2
 2142 1298 9A60     		str	r2, [r3, #8]
 2143 129a 90F8DD20 		ldrb	r2, [r0, #221]	@ zero_extendqisi2
 2144 129e 9A60     		str	r2, [r3, #8]
 2145 12a0 90F8DE20 		ldrb	r2, [r0, #222]	@ zero_extendqisi2
 2146 12a4 9A60     		str	r2, [r3, #8]
 2147 12a6 90F8DF20 		ldrb	r2, [r0, #223]	@ zero_extendqisi2
 2148 12aa 9A60     		str	r2, [r3, #8]
 2149 12ac 1A46     		mov	r2, r3
 2150              	.L209:
 2151 12ae 9169     		ldr	r1, [r2, #24]
 2152 12b0 1B4B     		ldr	r3, .L289
 2153 12b2 0907     		lsls	r1, r1, #28
 2154 12b4 FBD5     		bpl	.L209
 2155 12b6 90F8E020 		ldrb	r2, [r0, #224]	@ zero_extendqisi2
 2156 12ba 9A60     		str	r2, [r3, #8]
 2157 12bc 90F8E120 		ldrb	r2, [r0, #225]	@ zero_extendqisi2
 2158 12c0 9A60     		str	r2, [r3, #8]
 2159 12c2 90F8E220 		ldrb	r2, [r0, #226]	@ zero_extendqisi2
 2160 12c6 9A60     		str	r2, [r3, #8]
 2161 12c8 90F8E320 		ldrb	r2, [r0, #227]	@ zero_extendqisi2
 2162 12cc 9A60     		str	r2, [r3, #8]
 2163 12ce 1A46     		mov	r2, r3
 2164              	.L210:
 2165 12d0 9169     		ldr	r1, [r2, #24]
 2166 12d2 134B     		ldr	r3, .L289
 2167 12d4 0907     		lsls	r1, r1, #28
 2168 12d6 FBD5     		bpl	.L210
 2169 12d8 90F8E420 		ldrb	r2, [r0, #228]	@ zero_extendqisi2
 2170 12dc 9A60     		str	r2, [r3, #8]
 2171 12de 90F8E520 		ldrb	r2, [r0, #229]	@ zero_extendqisi2
 2172 12e2 9A60     		str	r2, [r3, #8]
 2173 12e4 90F8E620 		ldrb	r2, [r0, #230]	@ zero_extendqisi2
 2174 12e8 9A60     		str	r2, [r3, #8]
 2175 12ea 90F8E720 		ldrb	r2, [r0, #231]	@ zero_extendqisi2
 2176 12ee 9A60     		str	r2, [r3, #8]
 2177 12f0 1A46     		mov	r2, r3
 2178              	.L211:
 2179 12f2 9169     		ldr	r1, [r2, #24]
 2180 12f4 0A4B     		ldr	r3, .L289
 2181 12f6 0907     		lsls	r1, r1, #28
 2182 12f8 FBD5     		bpl	.L211
 2183 12fa 90F8E820 		ldrb	r2, [r0, #232]	@ zero_extendqisi2
 2184 12fe 9A60     		str	r2, [r3, #8]
 2185 1300 90F8E920 		ldrb	r2, [r0, #233]	@ zero_extendqisi2
 2186 1304 9A60     		str	r2, [r3, #8]
 2187 1306 90F8EA20 		ldrb	r2, [r0, #234]	@ zero_extendqisi2
 2188 130a 9A60     		str	r2, [r3, #8]
 2189 130c 90F8EB20 		ldrb	r2, [r0, #235]	@ zero_extendqisi2
 2190 1310 9A60     		str	r2, [r3, #8]
 2191 1312 1A46     		mov	r2, r3
 2192              	.L212:
 2193 1314 9169     		ldr	r1, [r2, #24]
 2194 1316 024B     		ldr	r3, .L289
 2195 1318 0907     		lsls	r1, r1, #28
 2196 131a FBD5     		bpl	.L212
 2197 131c 02E0     		b	.L290
 2198              	.L291:
 2199 131e 00BF     		.align	2
 2200              	.L289:
 2201 1320 00000340 		.word	1073938432
 2202              	.L290:
 2203 1324 90F8EC20 		ldrb	r2, [r0, #236]	@ zero_extendqisi2
 2204 1328 9A60     		str	r2, [r3, #8]
 2205 132a 90F8ED20 		ldrb	r2, [r0, #237]	@ zero_extendqisi2
 2206 132e 9A60     		str	r2, [r3, #8]
 2207 1330 90F8EE20 		ldrb	r2, [r0, #238]	@ zero_extendqisi2
 2208 1334 9A60     		str	r2, [r3, #8]
 2209 1336 90F8EF20 		ldrb	r2, [r0, #239]	@ zero_extendqisi2
 2210 133a 9A60     		str	r2, [r3, #8]
 2211 133c 1A46     		mov	r2, r3
 2212              	.L213:
 2213 133e 9169     		ldr	r1, [r2, #24]
 2214 1340 274B     		ldr	r3, .L292
 2215 1342 0907     		lsls	r1, r1, #28
 2216 1344 FBD5     		bpl	.L213
 2217 1346 90F8F020 		ldrb	r2, [r0, #240]	@ zero_extendqisi2
 2218 134a 9A60     		str	r2, [r3, #8]
 2219 134c 90F8F120 		ldrb	r2, [r0, #241]	@ zero_extendqisi2
 2220 1350 9A60     		str	r2, [r3, #8]
 2221 1352 90F8F220 		ldrb	r2, [r0, #242]	@ zero_extendqisi2
 2222 1356 9A60     		str	r2, [r3, #8]
 2223 1358 90F8F320 		ldrb	r2, [r0, #243]	@ zero_extendqisi2
 2224 135c 9A60     		str	r2, [r3, #8]
 2225 135e 1A46     		mov	r2, r3
 2226              	.L214:
 2227 1360 9169     		ldr	r1, [r2, #24]
 2228 1362 1F4B     		ldr	r3, .L292
 2229 1364 0907     		lsls	r1, r1, #28
 2230 1366 FBD5     		bpl	.L214
 2231 1368 90F8F420 		ldrb	r2, [r0, #244]	@ zero_extendqisi2
 2232 136c 9A60     		str	r2, [r3, #8]
 2233 136e 90F8F520 		ldrb	r2, [r0, #245]	@ zero_extendqisi2
 2234 1372 9A60     		str	r2, [r3, #8]
 2235 1374 90F8F620 		ldrb	r2, [r0, #246]	@ zero_extendqisi2
 2236 1378 9A60     		str	r2, [r3, #8]
 2237 137a 90F8F720 		ldrb	r2, [r0, #247]	@ zero_extendqisi2
 2238 137e 9A60     		str	r2, [r3, #8]
 2239 1380 1A46     		mov	r2, r3
 2240              	.L215:
 2241 1382 9169     		ldr	r1, [r2, #24]
 2242 1384 164B     		ldr	r3, .L292
 2243 1386 0907     		lsls	r1, r1, #28
 2244 1388 FBD5     		bpl	.L215
 2245 138a 90F8F820 		ldrb	r2, [r0, #248]	@ zero_extendqisi2
 2246 138e 9A60     		str	r2, [r3, #8]
 2247 1390 90F8F920 		ldrb	r2, [r0, #249]	@ zero_extendqisi2
 2248 1394 9A60     		str	r2, [r3, #8]
 2249 1396 90F8FA20 		ldrb	r2, [r0, #250]	@ zero_extendqisi2
 2250 139a 9A60     		str	r2, [r3, #8]
 2251 139c 90F8FB20 		ldrb	r2, [r0, #251]	@ zero_extendqisi2
 2252 13a0 9A60     		str	r2, [r3, #8]
 2253 13a2 1A46     		mov	r2, r3
 2254              	.L216:
 2255 13a4 9169     		ldr	r1, [r2, #24]
 2256 13a6 0E4B     		ldr	r3, .L292
 2257 13a8 0907     		lsls	r1, r1, #28
 2258 13aa FBD5     		bpl	.L216
 2259 13ac 90F8FC20 		ldrb	r2, [r0, #252]	@ zero_extendqisi2
 2260 13b0 9A60     		str	r2, [r3, #8]
 2261 13b2 90F8FD20 		ldrb	r2, [r0, #253]	@ zero_extendqisi2
 2262 13b6 9A60     		str	r2, [r3, #8]
 2263 13b8 90F8FE20 		ldrb	r2, [r0, #254]	@ zero_extendqisi2
 2264 13bc 9A60     		str	r2, [r3, #8]
 2265 13be 90F8FF20 		ldrb	r2, [r0, #255]	@ zero_extendqisi2
 2266 13c2 9A60     		str	r2, [r3, #8]
 2267 13c4 1A46     		mov	r2, r3
 2268              	.L217:
 2269 13c6 D168     		ldr	r1, [r2, #12]
 2270 13c8 054B     		ldr	r3, .L292
 2271 13ca C806     		lsls	r0, r1, #27
 2272 13cc FBD4     		bmi	.L217
 2273 13ce 9A68     		ldr	r2, [r3, #8]
 2274 13d0 9A68     		ldr	r2, [r3, #8]
 2275 13d2 9A68     		ldr	r2, [r3, #8]
 2276 13d4 9A68     		ldr	r2, [r3, #8]
 2277 13d6 9A68     		ldr	r2, [r3, #8]
 2278 13d8 9A68     		ldr	r2, [r3, #8]
 2279 13da 9A68     		ldr	r2, [r3, #8]
 2280 13dc 9B68     		ldr	r3, [r3, #8]
 2281 13de 7047     		bx	lr
 2282              	.L293:
 2283              		.align	2
 2284              	.L292:
 2285 13e0 00000340 		.word	1073938432
 2287              		.ident	"GCC: (GNU) 4.6.2"