   1              		.syntax unified
   2              		.cpu cortex-m3
   3              		.fpu softvfp
   4              		.eabi_attribute 20, 1
   5              		.eabi_attribute 21, 1
   6              		.eabi_attribute 23, 3
   7              		.eabi_attribute 24, 1
   8              		.eabi_attribute 25, 1
   9              		.eabi_attribute 26, 1
  10              		.eabi_attribute 30, 4
  11              		.eabi_attribute 18, 4
  12              		.thumb
  13              		.file	"uart_base.cpp"
  14              		.text
  15              		.align	1
  16              		.global	_ZN9UART_Base7getCharEPcj
  17              		.thumb
  18              		.thumb_func
  20              	_ZN9UART_Base7getCharEPcj:
  21              		@ args = 0, pretend = 0, frame = 0
  22              		@ frame_needed = 0, uses_anonymous_args = 0
  23 0000 08B5     		push	{r3, lr}
  24 0002 4068     		ldr	r0, [r0, #4]
  25 0004 0023     		movs	r3, #0
  26 0006 FFF7FEFF 		bl	xQueueGenericReceive
  27 000a 0030     		adds	r0, r0, #0
  28 000c 18BF     		it	ne
  29 000e 0120     		movne	r0, #1
  30 0010 08BD     		pop	{r3, pc}
  32              		.align	1
  33              		.global	_ZN9UART_Base7putCharEcj
  34              		.thumb
  35              		.thumb_func
  37              	_ZN9UART_Base7putCharEcj:
  38              		@ args = 0, pretend = 0, frame = 16
  39              		@ frame_needed = 0, uses_anonymous_args = 0
  40 0012 30B5     		push	{r4, r5, lr}
  41 0014 85B0     		sub	sp, sp, #20
  42 0016 04AD     		add	r5, sp, #16
  43 0018 05F8091D 		strb	r1, [r5, #-9]!
  44 001c 0446     		mov	r4, r0
  45 001e 2946     		mov	r1, r5
  46 0020 8068     		ldr	r0, [r0, #8]
  47 0022 0023     		movs	r3, #0
  48 0024 FFF7FEFF 		bl	xQueueGenericSend
  49 0028 A0B1     		cbz	r0, .L3
  50 002a FFF7FEFF 		bl	vPortEnterCritical
  51 002e 0023     		movs	r3, #0
  52 0030 0393     		str	r3, [sp, #12]
  53 0032 237B     		ldrb	r3, [r4, #12]	@ zero_extendqisi2
  54 0034 5BB9     		cbnz	r3, .L5
  55 0036 A068     		ldr	r0, [r4, #8]
  56 0038 2946     		mov	r1, r5
  57 003a 03AA     		add	r2, sp, #12
  58 003c FFF7FEFF 		bl	xQueueReceiveFromISR
  59 0040 28B1     		cbz	r0, .L5
  60 0042 0123     		movs	r3, #1
  61 0044 2373     		strb	r3, [r4, #12]
  62 0046 9DF80720 		ldrb	r2, [sp, #7]	@ zero_extendqisi2
  63 004a 2368     		ldr	r3, [r4, #0]
  64 004c 1A70     		strb	r2, [r3, #0]
  65              	.L5:
  66 004e FFF7FEFF 		bl	vPortExitCritical
  67 0052 0120     		movs	r0, #1
  68              	.L3:
  69 0054 05B0     		add	sp, sp, #20
  70 0056 30BD     		pop	{r4, r5, pc}
  72              		.align	1
  73              		.global	_ZN9UART_Base15handleInterruptEv
  74              		.thumb
  75              		.thumb_func
  77              	_ZN9UART_Base15handleInterruptEv:
  78              		@ args = 0, pretend = 0, frame = 8
  79              		@ frame_needed = 0, uses_anonymous_args = 0
  80 0058 73B5     		push	{r0, r1, r4, r5, r6, lr}
  81 005a 0368     		ldr	r3, [r0, #0]
  82 005c 0446     		mov	r4, r0
  83 005e 9A68     		ldr	r2, [r3, #8]
  84 0060 0023     		movs	r3, #0
  85 0062 02F00F02 		and	r2, r2, #15
  86 0066 042A     		cmp	r2, #4
  87 0068 0093     		str	r3, [sp, #0]
  88 006a 8DF80730 		strb	r3, [sp, #7]
  89 006e 26D0     		beq	.L17
  90 0070 0C2A     		cmp	r2, #12
  91 0072 24D0     		beq	.L17
  92 0074 022A     		cmp	r2, #2
  93 0076 26D1     		bne	.L8
  94 0078 0373     		strb	r3, [r0, #12]
  95 007a 1025     		movs	r5, #16
  96 007c 0126     		movs	r6, #1
  97 007e 07E0     		b	.L11
  98              	.L13:
  99 0080 2368     		ldr	r3, [r4, #0]
 100 0082 9DF80720 		ldrb	r2, [sp, #7]	@ zero_extendqisi2
 101 0086 2673     		strb	r6, [r4, #12]
 102 0088 1A70     		strb	r2, [r3, #0]
 103              	.L14:
 104 008a 013D     		subs	r5, r5, #1
 105 008c EDB2     		uxtb	r5, r5
 106 008e D5B1     		cbz	r5, .L8
 107              	.L11:
 108 0090 A068     		ldr	r0, [r4, #8]
 109 0092 FFF7FEFF 		bl	xQueueIsQueueEmptyFromISR
 110 0096 B0B9     		cbnz	r0, .L8
 111 0098 A068     		ldr	r0, [r4, #8]
 112 009a 0DF10701 		add	r1, sp, #7
 113 009e 6A46     		mov	r2, sp
 114 00a0 FFF7FEFF 		bl	xQueueReceiveFromISR
 115 00a4 0028     		cmp	r0, #0
 116 00a6 EBD1     		bne	.L13
 117 00a8 EFE7     		b	.L14
 118              	.L15:
 119 00aa 1B78     		ldrb	r3, [r3, #0]	@ zero_extendqisi2
 120 00ac 6068     		ldr	r0, [r4, #4]
 121 00ae 8DF80730 		strb	r3, [sp, #7]
 122 00b2 0DF10701 		add	r1, sp, #7
 123 00b6 6A46     		mov	r2, sp
 124 00b8 0023     		movs	r3, #0
 125 00ba FFF7FEFF 		bl	xQueueGenericSendFromISR
 126              	.L17:
 127 00be 2368     		ldr	r3, [r4, #0]
 128 00c0 1A7D     		ldrb	r2, [r3, #20]	@ zero_extendqisi2
 129 00c2 D207     		lsls	r2, r2, #31
 130 00c4 F1D4     		bmi	.L15
 131              	.L8:
 132 00c6 009B     		ldr	r3, [sp, #0]
 133 00c8 0BB1     		cbz	r3, .L7
 134 00ca FFF7FEFF 		bl	vPortYieldFromISR
 135              	.L7:
 136 00ce 7CBD     		pop	{r2, r3, r4, r5, r6, pc}
 138              		.align	1
 139              		.global	_ZN9UART_BaseC2EPj
 140              		.thumb
 141              		.thumb_func
 143              	_ZN9UART_BaseC2EPj:
 144              		@ args = 0, pretend = 0, frame = 0
 145              		@ frame_needed = 0, uses_anonymous_args = 0
 146              		@ link register save eliminated.
 147 00d0 0023     		movs	r3, #0
 148 00d2 0160     		str	r1, [r0, #0]
 149 00d4 0373     		strb	r3, [r0, #12]
 150 00d6 7047     		bx	lr
 152              		.global	__aeabi_ui2d
 153              		.global	__aeabi_dadd
 154              		.global	__aeabi_d2uiz
 155              		.align	1
 156              		.global	_ZN9UART_Base4initEjjii
 157              		.thumb
 158              		.thumb_func
 160              	_ZN9UART_Base4initEjjii:
 161              		@ args = 4, pretend = 0, frame = 0
 162              		@ frame_needed = 0, uses_anonymous_args = 0
 163 00d8 70B5     		push	{r4, r5, r6, lr}
 164 00da 0446     		mov	r4, r0
 165 00dc 1E46     		mov	r6, r3
 166 00de 0368     		ldr	r3, [r0, #0]
 167 00e0 2D48     		ldr	r0, .L28
 168 00e2 8342     		cmp	r3, r0
 169 00e4 09D1     		bne	.L21
 170 00e6 00F57020 		add	r0, r0, #983040
 171 00ea D0F8C450 		ldr	r5, [r0, #196]
 172 00ee 45F00805 		orr	r5, r5, #8
 173 00f2 C0F8C450 		str	r5, [r0, #196]
 174 00f6 2025     		movs	r5, #32
 175 00f8 19E0     		b	.L27
 176              	.L21:
 177 00fa 2848     		ldr	r0, .L28+4
 178 00fc 8342     		cmp	r3, r0
 179 00fe 09D1     		bne	.L23
 180 0100 00F5C820 		add	r0, r0, #409600
 181 0104 D0F8C450 		ldr	r5, [r0, #196]
 182 0108 45F08075 		orr	r5, r5, #16777216
 183 010c C0F8C450 		str	r5, [r0, #196]
 184 0110 8025     		movs	r5, #128
 185 0112 0CE0     		b	.L27
 186              	.L23:
 187 0114 2248     		ldr	r0, .L28+8
 188 0116 8342     		cmp	r3, r0
 189 0118 3CD1     		bne	.L25
 190 011a 00F5C020 		add	r0, r0, #393216
 191 011e D0F8C450 		ldr	r5, [r0, #196]
 192 0122 45F00075 		orr	r5, r5, #33554432
 193 0126 C0F8C450 		str	r5, [r0, #196]
 194 012a 4FF48075 		mov	r5, #256
 195              	.L27:
 196 012e 1D48     		ldr	r0, .L28+12
 197 0130 1201     		lsls	r2, r2, #4
 198 0132 0560     		str	r5, [r0, #0]
 199 0134 4720     		movs	r0, #71
 200 0136 1872     		strb	r0, [r3, #8]
 201 0138 2368     		ldr	r3, [r4, #0]
 202 013a 8020     		movs	r0, #128
 203 013c 1873     		strb	r0, [r3, #12]
 204 013e 2368     		ldr	r3, [r4, #0]
 205 0140 0020     		movs	r0, #0
 206 0142 1871     		strb	r0, [r3, #4]
 207 0144 B1FBF2F0 		udiv	r0, r1, r2
 208 0148 FFF7FEFF 		bl	__aeabi_ui2d
 209 014c 0022     		movs	r2, #0
 210 014e 164B     		ldr	r3, .L28+16
 211 0150 FFF7FEFF 		bl	__aeabi_dadd
 212 0154 FFF7FEFF 		bl	__aeabi_d2uiz
 213 0158 2568     		ldr	r5, [r4, #0]
 214 015a 0121     		movs	r1, #1
 215 015c 2870     		strb	r0, [r5, #0]
 216 015e 2368     		ldr	r3, [r4, #0]
 217 0160 0325     		movs	r5, #3
 218 0162 1D73     		strb	r5, [r3, #12]
 219 0164 082E     		cmp	r6, #8
 220 0166 ACBF     		ite	ge
 221 0168 3046     		movge	r0, r6
 222 016a 0820     		movlt	r0, #8
 223 016c FFF7FEFF 		bl	xQueueCreate
 224 0170 6060     		str	r0, [r4, #4]
 225 0172 0498     		ldr	r0, [sp, #16]
 226 0174 0121     		movs	r1, #1
 227 0176 0828     		cmp	r0, #8
 228 0178 B8BF     		it	lt
 229 017a 0820     		movlt	r0, #8
 230 017c FFF7FEFF 		bl	xQueueCreate
 231 0180 2368     		ldr	r3, [r4, #0]
 232 0182 A060     		str	r0, [r4, #8]
 233 0184 5D60     		str	r5, [r3, #4]
 234 0186 6068     		ldr	r0, [r4, #4]
 235 0188 28B1     		cbz	r0, .L24
 236 018a A068     		ldr	r0, [r4, #8]
 237 018c 0030     		adds	r0, r0, #0
 238 018e 18BF     		it	ne
 239 0190 0120     		movne	r0, #1
 240 0192 70BD     		pop	{r4, r5, r6, pc}
 241              	.L25:
 242 0194 0020     		movs	r0, #0
 243              	.L24:
 244 0196 70BD     		pop	{r4, r5, r6, pc}
 245              	.L29:
 246              		.align	2
 247              	.L28:
 248 0198 00C00040 		.word	1073790976
 249 019c 00800940 		.word	1074364416
 250 01a0 00C00940 		.word	1074380800
 251 01a4 00E100E0 		.word	-536813312
 252 01a8 0000E03F 		.word	1071644672
 254              		.global	_ZN9UART_BaseC1EPj
 255              		.thumb_set _ZN9UART_BaseC1EPj,_ZN9UART_BaseC2EPj
 256              		.ident	"GCC: (GNU) 4.6.2"